 CoreClient

 Timestamp is 68843341 (Sat Jul 26 08:45:37 2025)

 Preferred load address is 10000000

 Start         Length     Name                   Class
 0001:00000000 000b7aeeH .text                   CODE
 0001:000b7af0 00001790H .text$x                 CODE
 0002:00000000 0000032cH .idata$5                DATA
 0002:00000330 0000abfdH .rdata                  DATA
 0002:0000af30 00001b00H .xdata$x                DATA
 0002:0000ca30 00000078H .idata$2                DATA
 0002:0000caa8 00000014H .idata$3                DATA
 0002:0000cabc 0000032cH .idata$4                DATA
 0002:0000cde8 0000156cH .idata$6                DATA
 0002:0000e360 00001a00H .edata                  DATA
 0003:00000000 00000004H .CRT$XCA                DATA
 0003:00000004 000000e4H .CRT$XCU                DATA
 0003:000000e8 00000004H .CRT$XCZ                DATA
 0003:000000ec 00000004H .CRT$XIA                DATA
 0003:000000f0 00000004H .CRT$XIZ                DATA
 0003:00000100 0000d730H .data                   DATA
 0003:0000d830 01d442f4H .bss                    DATA

  Address         Publics by Value              Rva+Base     Lib:Object

 0001:00000000       ?GetMoney@KInventory@@QAEHXZ 10001000 f i KThiefSkill.obj
 0001:00000020       ?SetMoney@KInventory@@QAEHH@Z 10001020 f i KThiefSkill.obj
 0001:00000050       ??4KInventory@@QAEAAV0@ABV0@@Z 10001050 f i KThiefSkill.obj
 0001:00000090       ?GetBuildItem@KItemList@@QAEHH@Z 10001090 f i KThiefSkill.obj
 0001:000000c0       ?GetEquipment@KItemList@@QBEHH@Z 100010c0 f i KThiefSkill.obj
 0001:000000f0       ?GetMoney@KItemList@@QAEHH@Z 100010f0 f i KThiefSkill.obj
 0001:00000130       ?Hand@KItemList@@QAEHXZ    10001130 f i KThiefSkill.obj
 0001:00000150       ?GetMaskLock@KItemList@@QAEHXZ 10001150 f i KThiefSkill.obj
 0001:00000170       ?IsLockOperation@KItemList@@QAEHXZ 10001170 f i KThiefSkill.obj
 0001:00000190       ?IsActiveSet@KItemList@@QBEHXZ 10001190 f i KThiefSkill.obj
 0001:000001b0       ??4KItemList@@QAEAAV0@ABV0@@Z 100011b0 f i KThiefSkill.obj
 0001:000001e0       ??0KThiefSkill@@QAE@XZ     100011e0 f   KThiefSkill.obj
 0001:00000258       ??1KThiefSkill@@UAE@XZ     10001258 f   KThiefSkill.obj
 0001:00000285       ?GetSkillId@KThiefSkill@@UAEHXZ 10001285 f   KThiefSkill.obj
 0001:0000029c       ?GetSkillName@KThiefSkill@@UAEPBDXZ 1000129c f   KThiefSkill.obj
 0001:000002b4       ?GetSkillStyle@KThiefSkill@@UAEHXZ 100012b4 f   KThiefSkill.obj
 0001:000002cb       ?LoadSkillLevelData@KThiefSkill@@UAEXKH@Z 100012cb f   KThiefSkill.obj
 0001:000002df       ?DoSkill@KThiefSkill@@QAEHPAVKNpc@@HH@Z 100012df f   KThiefSkill.obj
 0001:00000401       ?Cast@KThiefSkill@@QAEHPAVKPlayer@@0@Z 10001401 f   KThiefSkill.obj
 0001:0000041a       ?OnSkill@KThiefSkill@@QAEHPAVKNpc@@@Z 1000141a f   KThiefSkill.obj
 0001:000005be       ?CanCastSkill@KThiefSkill@@UBEHHAAH0@Z 100015be f   KThiefSkill.obj
 0001:000006b5       ?GetDesc@KThiefSkill@@QAEXKKPADH_N@Z 100016b5 f   KThiefSkill.obj
 0001:000006e8       ?LoadSetting@KThiefSkill@@QAEHPAD@Z 100016e8 f   KThiefSkill.obj
 0001:00000ba4       ?GetSkillCost@KThiefSkill@@UBEHPAX@Z 10001ba4 f   KThiefSkill.obj
 0001:00000cd1       ?DrawSkillIcon@KThiefSkill@@UAEXHHHHH@Z 10001cd1 f   KThiefSkill.obj
 0001:00000fd0       ?GetSkillCostType@KThiefSkill@@UBE?AW4NPCATTRIB@@XZ 10001fd0 f i KThiefSkill.obj
 0001:00000ff0       ?GetAttackRadius@KThiefSkill@@UBEHXZ 10001ff0 f i KThiefSkill.obj
 0001:00001010       ?IsTargetOnly@KThiefSkill@@UBEHXZ 10002010 f i KThiefSkill.obj
 0001:00001030       ?IsTargetSelf@KThiefSkill@@UBEHXZ 10002030 f i KThiefSkill.obj
 0001:00001050       ?IsTargetEnemy@KThiefSkill@@UBEHXZ 10002050 f i KThiefSkill.obj
 0001:00001070       ?IsTargetAlly@KThiefSkill@@UBEHXZ 10002070 f i KThiefSkill.obj
 0001:00001090       ?IsTargetObj@KThiefSkill@@UBEHXZ 10002090 f i KThiefSkill.obj
 0001:000010b0       ??_EKThiefSkill@@UAEPAXI@Z 100020b0 f i KThiefSkill.obj
 0001:000010b0       ??_GKThiefSkill@@UAEPAXI@Z 100020b0 f i KThiefSkill.obj
 0001:000010f0       ??0ISkill@@QAE@XZ          100020f0 f i KThiefSkill.obj
 0001:00001110       ?GetDelayPerCast@KThiefSkill@@QAEKXZ 10002110 f i KThiefSkill.obj
 0001:00001130       ??1ISkill@@UAE@XZ          10002130 f i KThiefSkill.obj
 0001:00001150       ?IsAura@ISkill@@UBEHXZ     10002150 f i KThiefSkill.obj
 0001:00001170       ?IsPhysical@ISkill@@UBEHXZ 10002170 f i KThiefSkill.obj
 0001:00001190       ?GetSkillAttrib@ISkill@@UBEFXZ 10002190 f i KThiefSkill.obj
 0001:000011b0       ?IsExpSkill@ISkill@@UBEHXZ 100021b0 f i KThiefSkill.obj
 0001:000011d0       ?GetSkillLevelUpScriptId@ISkill@@UBEKXZ 100021d0 f i KThiefSkill.obj
 0001:000011f0       ??_GISkill@@UAEPAXI@Z      100021f0 f i KThiefSkill.obj
 0001:000011f0       ??_EISkill@@UAEPAXI@Z      100021f0 f i KThiefSkill.obj
 0001:00001230       ??4KMapMusic@@QAEAAV0@ABV0@@Z 10002230 f i KMissle.obj
 0001:00001260       ?GetGameTime@KSubWorldSet@@QAEHXZ 10002260 f i KMissle.obj
 0001:00001280       ?GetGameVersion@KSubWorldSet@@QAEHXZ 10002280 f i KMissle.obj
 0001:000012a0       ?SetPing@KSubWorldSet@@QAEXK@Z 100022a0 f i KMissle.obj
 0001:000012c0       ?GetPing@KSubWorldSet@@QAEKXZ 100022c0 f i KMissle.obj
 0001:000012e0       ??4KSubWorldSet@@QAEAAV0@ABV0@@Z 100022e0 f i KMissle.obj
 0001:00001310       ??1KSubWorldSet@@QAE@XZ    10002310 f i KMissle.obj
 0001:00001340       ??0KMissleSet@@QAE@XZ      10002340 f i KMissle.obj
 0001:000013c0       ??4KMissleSet@@QAEAAV0@ABV0@@Z 100023c0 f i KMissle.obj
 0001:00001400       ??1KMissleSet@@QAE@XZ      10002400 f i KMissle.obj
 0001:0000157c       ??0KMissle@@QAE@XZ         1000257c f   KMissle.obj
 0001:000016a3       ?Release@KMissle@@AAEXXZ   100026a3 f   KMissle.obj
 0001:00001713       ??1KMissle@@UAE@XZ         10002713 f   KMissle.obj
 0001:0000177e       ?GetInfoFromTabFile@KMissle@@QAEHH@Z 1000277e f   KMissle.obj
 0001:000017c6       ?GetInfoFromTabFile@KMissle@@QAEHPAVKITabFile@@H@Z 100027c6 f   KMissle.obj
 0001:000021b6       ?Init@KMissle@@AAEHHHHHH@Z 100031b6 f   KMissle.obj
 0001:000021e7       ?Activate@KMissle@@QAEHXZ  100031e7 f   KMissle.obj
 0001:000026fd       ?OnWait@KMissle@@AAEXXZ    100036fd f   KMissle.obj
 0001:0000270f       ?OnCollision@KMissle@@AAEXXZ 1000370f f   KMissle.obj
 0001:00002721       ?CheckCollision@KMissle@@AAEHXZ 10003721 f   KMissle.obj
 0001:00002a5c       ?OnFly@KMissle@@AAEXXZ     10003a5c f   KMissle.obj
 0001:000039df       ?OnVanish@KMissle@@AAEXXZ  100049df f   KMissle.obj
 0001:000039f1       ?Paint@KMissle@@QAEXXZ     100049f1 f   KMissle.obj
 0001:00003ba9       ?CheckBeyondRegion@KMissle@@AAEHHH@Z 10004ba9 f   KMissle.obj
 0001:00003fe5       ??4KMissle@@AAEAAV0@AAV0@@Z 10004fe5 f   KMissle.obj
 0001:00004421       ?ProcessDamage@KMissle@@AAEHH@Z 10005421 f   KMissle.obj
 0001:00004437       ?DoVanish@KMissle@@AAEXXZ  10005437 f   KMissle.obj
 0001:0000456e       ?DoCollision@KMissle@@AAEXXZ 1000556e f   KMissle.obj
 0001:0000475b       ?DoFly@KMissle@@AAEXXZ     1000575b f   KMissle.obj
 0001:00004788       ?GetOffsetAxis@KMissle@@SAHHHHHHHAAH00@Z 10005788 f   KMissle.obj
 0001:00004910       ?ProcessCollision@KMissle@@AAEHHHHHHH@Z 10005910 f   KMissle.obj
 0001:00004ba4       ?ProcessCollision@KMissle@@AAEHXZ 10005ba4 f   KMissle.obj
 0001:00004c0e       ?CreateSpecialEffect@KMissle@@QAEHW4eMissleStatus@@HHHH@Z 10005c0e f   KMissle.obj
 0001:00004e63       ?CreateMissleForShow@KMissle@@SAHPAD00PAUTMissleForShow@@@Z 10005e63 f   KMissle.obj
 0001:00005143       ?GetLightInfo@KMissle@@QAEXPAUKLightInfo@@@Z 10006143 f   KMissle.obj
 0001:000051ec       ?DoWait@KMissle@@AAEXXZ    100061ec f   KMissle.obj
 0001:00005295       ?PrePareFly@KMissle@@AAEHXZ 10006295 f   KMissle.obj
 0001:000055b8       ?CheckNearestCollision@KMissle@@AAEHXZ 100065b8 f   KMissle.obj
 0001:000058bb       ?FindNearestCollision@KMissle@@AAEHHH@Z 100068bb f   KMissle.obj
 0001:00005a15       ?GetMpsPos@KMissle@@QAEXPAH0@Z 10006a15 f   KMissle.obj
 0001:00005a90       ??_GKMissle@@UAEPAXI@Z     10006a90 f i KMissle.obj
 0001:00005a90       ??_EKMissle@@UAEPAXI@Z     10006a90 f i KMissle.obj
 0001:00005ad0       ??0KIndexNode@@QAE@XZ      10006ad0 f i KMissle.obj
 0001:00005b20       ??0KNode@@QAE@XZ           10006b20 f i KMissle.obj
 0001:00005b60       ??_EKNode@@UAEPAXI@Z       10006b60 f i KMissle.obj
 0001:00005b60       ??_GKNode@@UAEPAXI@Z       10006b60 f i KMissle.obj
 0001:00005ba0       ??1KNode@@UAE@XZ           10006ba0 f i KMissle.obj
 0001:00005bc0       ??_EKIndexNode@@UAEPAXI@Z  10006bc0 f i KMissle.obj
 0001:00005bc0       ??_GKIndexNode@@UAEPAXI@Z  10006bc0 f i KMissle.obj
 0001:00005c00       ??1KIndexNode@@UAE@XZ      10006c00 f i KMissle.obj
 0001:00005c30       ?IsMatch@KNpc@@QAEHK@Z     10006c30 f i KMissle.obj
 0001:00005c60       ?g_DirSin@@YAHHH@Z         10006c60 f i KMissle.obj
 0001:00005c90       ?g_DirCos@@YAHHH@Z         10006c90 f i KMissle.obj
 0001:00005cc0       ?g_GetDirIndex@@YAHHHHH@Z  10006cc0 f i KMissle.obj
 0001:00005cf0       ?g_GetDirIdxForFindPath@@YAHHHHH@Z 10006cf0 f i KMissle.obj
 0001:00005df0       ?g_GetDistance@@YAHHHHH@Z  10006df0 f i KMissle.obj
 0001:00005e70       ?qsqrt@@YAMM@Z             10006e70 f i KMissle.obj
 0001:00005ed0       ?Send@KWorldMsg@@QAEHKHHH@Z 10006ed0 f i KMissle.obj
 0001:00005fb0       ?AddTail@KList@@QAEXPAVKNode@@@Z 10006fb0 f i KMissle.obj
 0001:00005fe0       ?InsertBefore@KNode@@QAEXPAV1@@Z 10006fe0 f i KMissle.obj
 0001:00006060       ??0KWorldMsgNode@@QAE@XZ   10007060 f i KMissle.obj
 0001:00006090       ??_EKWorldMsgNode@@UAEPAXI@Z 10007090 f i KMissle.obj
 0001:00006090       ??_GKWorldMsgNode@@UAEPAXI@Z 10007090 f i KMissle.obj
 0001:000060d0       ??1KWorldMsgNode@@UAE@XZ   100070d0 f i KMissle.obj
 0001:00006100       ?ZAxisMove@KMissle@@AAEXXZ 10007100 f i KMissle.obj
 0001:00006170       ?TestBarrier@KMissle@@AAEHXZ 10007170 f i KMissle.obj
 0001:00006210       ?g_DirIndex2Dir@@YAHHH@Z   10007210 f i KMissle.obj
 0001:00006250       ?SpecialMovieIsAllEnd@KMissleRes@@QAEHXZ 10007250 f i KMissle.obj
 0001:00006290       ?GetHead@KList@@QAEPAVKNode@@XZ 10007290 f i KMissle.obj
 0001:000062c0       ?GetNext@KNode@@QAEPAV1@XZ 100072c0 f i KMissle.obj
 0001:000062f0       ?GetSkill@KSkillManager@@QAEPAVISkill@@HH@Z 100072f0 f i KMissle.obj
 0001:000063a0       ??0KSkillSpecialNode@@QAE@XZ 100073a0 f i KMissle.obj
 0001:000063e0       ??_EKSkillSpecialNode@@UAEPAXI@Z 100073e0 f i KMissle.obj
 0001:000063e0       ??_GKSkillSpecialNode@@UAEPAXI@Z 100073e0 f i KMissle.obj
 0001:00006420       ??1KSkillSpecialNode@@UAE@XZ 10007420 f i KMissle.obj
 0001:00006470       ?g_Dir2DirIndex@@YAHHH@Z   10007470 f i KMissle.obj
 0001:000064b0       ?KSG_StringGetInt@@YAHPAPADH@Z 100074b0 f i KMissle.obj
 0001:000064e0       ?KSG_StringSkipSymbol@@YA_NPAPADH@Z 100074e0 f i KMissle.obj
 0001:00006510       ??0KMissleRes@@QAE@XZ      10007510 f   KMissleRes.obj
 0001:00006649       ??1KMissleRes@@QAE@XZ      10007649 f   KMissleRes.obj
 0001:00006723       ?LoadResource@KMissleRes@@QAEXHPAD0@Z 10007723 f   KMissleRes.obj
 0001:0000677e       ?Init@KMissleRes@@QAEHXZ   1000777e f   KMissleRes.obj
 0001:000067a7       ?Remove@KMissleRes@@QAEXXZ 100077a7 f   KMissleRes.obj
 0001:000067b9       ?Clear@KMissleRes@@QAEXXZ  100077b9 f   KMissleRes.obj
 0001:000068be       ?Draw@KMissleRes@@QAEHHHHHHHH@Z 100078be f   KMissleRes.obj
 0001:00006d75       ?PlaySoundA@KMissleRes@@QAEXHHHH@Z 10007d75 f   KMissleRes.obj
 0001:00006ea6       ?GetSndVolume@KMissleRes@@QAEHH@Z 10007ea6 f   KMissleRes.obj
 0001:00006ee9       ?StopSound@KMissleRes@@QAEXXZ 10007ee9 f   KMissleRes.obj
 0001:00006fa0       ??0KList@@QAE@XZ           10007fa0 f i KMissleRes.obj
 0001:00007020       ??1KList@@QAE@XZ           10008020 f i KMissleRes.obj
 0001:00007080       ?GetTail@KList@@QAEPAVKNode@@XZ 10008080 f i KMissleRes.obj
 0001:000070b0       ?GetPrev@KNode@@QAEPAV1@XZ 100080b0 f i KMissleRes.obj
 0001:000070e0       ?RemoveTail@KList@@QAEPAVKNode@@XZ 100080e0 f i KMissleRes.obj
 0001:00007130       ?Remove@KNode@@QAEXXZ      10008130 f i KMissleRes.obj
 0001:000071e0       ?RemoveHead@KList@@QAEPAVKNode@@XZ 100081e0 f i KMissleRes.obj
 0001:00007230       ?GetSndVolume@KOption@@QAEHXZ 10008230 f i KMissleRes.obj
 0001:000072ab       ?Init@KMissleSet@@QAEXXZ   100082ab f   KMissleSet.obj
 0001:00007345       ?FindFree@KMissleSet@@QAEHXZ 10008345 f   KMissleSet.obj
 0001:00007377       ?Add@KMissleSet@@QAEHHHHHHH@Z 10008377 f   KMissleSet.obj
 0001:0000748a       ?Add@KMissleSet@@QAEHHHH@Z 1000848a f   KMissleSet.obj
 0001:0000768b       ?CreateMissile@KMissleSet@@QAEHHHHHHHHH@Z 1000868b f   KMissleSet.obj
 0001:000076e5       ?Activate@KMissleSet@@QAEHXZ 100086e5 f   KMissleSet.obj
 0001:00007740       ?Remove@KMissleSet@@QAEXH@Z 10008740 f   KMissleSet.obj
 0001:000077bf       ?Draw@KMissleSet@@QAEXXZ   100087bf f   KMissleSet.obj
 0001:00007815       ?GetCount@KMissleSet@@QAEHXZ 10008815 f   KMissleSet.obj
 0001:00007879       ?ClearMissles@KMissleSet@@QAEXXZ 10008879 f   KMissleSet.obj
 0001:000078f0       ??0KSkillList@@QAE@XZ      100088f0 f   KSkillList.obj
 0001:00007932       ??1KSkillList@@QAE@XZ      10008932 f   KSkillList.obj
 0001:00007944       ?FindSame@KSkillList@@QAEHH@Z 10008944 f   KSkillList.obj
 0001:000079ab       ?FindFree@KSkillList@@QAEHXZ 100089ab f   KSkillList.obj
 0001:000079f7       ?GetCount@KSkillList@@QAEHXZ 100089f7 f   KSkillList.obj
 0001:00007a56       ?SetSkillLevel@KSkillList@@QAEXHH@Z 10008a56 f   KSkillList.obj
 0001:00007ab6       ?SetLevel@KSkillList@@QAEHHH@Z 10008ab6 f   KSkillList.obj
 0001:00007b27       ?IncreaseLevel@KSkillList@@QAEHHHH@Z 10008b27 f   KSkillList.obj
 0001:00007c6e       ?Add@KSkillList@@QAEHHH_N@Z 10008c6e f   KSkillList.obj
 0001:00007e91       ?Remove@KSkillList@@QAEXH@Z 10008e91 f   KSkillList.obj
 0001:00007f79       ?GetLevel@KSkillList@@QAEHH@Z 10008f79 f   KSkillList.obj
 0001:00008014       ?GetCurrentLevel@KSkillList@@QAEHH@Z 10009014 f   KSkillList.obj
 0001:0000806b       ?GetPointAdd@KSkillList@@QAEDH@Z 1000906b f   KSkillList.obj
 0001:000080c2       ?CanCast@KSkillList@@QAEHHK@Z 100090c2 f   KSkillList.obj
 0001:00008137       ?SetNextCastTime@KSkillList@@QAEXHK@Z 10009137 f   KSkillList.obj
 0001:0000818d       ?SetMaxCastTime@KSkillList@@QAEXHK@Z 1000918d f   KSkillList.obj
 0001:000081e3       ?GetEnhanceSkills@KSkillList@@QAEHH@Z 100091e3 f   KSkillList.obj
 0001:000082ed       ?GetSkillSortList@KSkillList@@QAEHPAUKUiSkillData@@@Z 100092ed f   KSkillList.obj
 0001:0000850e       ?GetLeftSkillSortList@KSkillList@@QAEHPAUKUiSkillData@@@Z 1000950e f   KSkillList.obj
 0001:00008733       ?GetRightSkillSortList@KSkillList@@QAEHPAUKUiSkillData@@@Z 10009733 f   KSkillList.obj
 0001:0000894b       ?GetSkillPosition@KSkillList@@QAEHH@Z 1000994b f   KSkillList.obj
 0001:00008b00       ?GetNextCastTime@KSkillList@@QAEKH@Z 10009b00 f   KSkillList.obj
 0001:00008b57       ?GetMaxCastTime@KSkillList@@QAEKH@Z 10009b57 f   KSkillList.obj
 0001:00008bae       ?GetSkillInfoList@KSkillList@@QAEHHPAUKUiSkillItem@@H@Z 10009bae f   KSkillList.obj
 0001:00008f5c       ?GetSkillState@KSkillList@@QAEHH@Z 10009f5c f   KSkillList.obj
 0001:00009218       ?GetSkillFight@KSkillList@@QAEHH@Z 1000a218 f   KSkillList.obj
 0001:00009488       ?FindSkillAura@KSkillList@@QAEHH@Z 1000a488 f   KSkillList.obj
 0001:0000967d       ?FindSkillRight@KSkillList@@QAEHH@Z 1000a67d f   KSkillList.obj
 0001:00009907       ?FindSkillLifeReplenish@KSkillList@@QAEHXZ 1000a907 f   KSkillList.obj
 0001:00009a00       ?IsSkillLifeReplenish@KSkill@@QBEHXZ 1000aa00 f i KSkillList.obj
 0001:00009a20       ?GetSkillLRInfo@KSkill@@QBE?AW4eSkillLRInfo@@XZ 1000aa20 f i KSkillList.obj
 0001:00009a40       ?IsBuffEffect@KSkill@@QBEHXZ 1000aa40 f i KSkillList.obj
 0001:00009a60       ?GetEnhanceSkills@KSkill@@QAEPAUKMagicAttrib@@XZ 1000aa60 f i KSkillList.obj
 0001:00009a80       ?GetEnhanceSkillsNum@KSkill@@QAEHXZ 1000aa80 f i KSkillList.obj
 0001:00009afb       ??0KSkillManager@@QAE@XZ   1000aafb f   KSkillManager.obj
 0001:00009b10       ??1KSkillManager@@QAE@XZ   1000ab10 f   KSkillManager.obj
 0001:00009c08       ?Init@KSkillManager@@QAEHXZ 1000ac08 f   KSkillManager.obj
 0001:00009f45       ?InstanceSkill@KSkillManager@@AAEPAVISkill@@KK@Z 1000af45 f   KSkillManager.obj
 0001:0000a240       ??4KSkill@@QAEAAV0@ABV0@@Z 1000b240 f i KSkillManager.obj
 0001:0000aaa0       ??4ISkill@@QAEAAV0@ABV0@@Z 1000baa0 f i KSkillManager.obj
 0001:0000aac0       ?SetSkillId@KSkill@@QAEXH@Z 1000bac0 f i KSkillManager.obj
 0001:0000aae0       ?SetSkillLevel@KSkill@@QAEXK@Z 1000bae0 f i KSkillManager.obj
 0001:0000ab00       ?GetSkillStyle@KSkillManager@@AAEHK@Z 1000bb00 f i KSkillManager.obj
 0001:0000ab40       ??0KSkill@@QAE@XZ          1000bb40 f   KSkills.obj
 0001:0000acf1       ??1KSkill@@UAE@XZ          1000bcf1 f   KSkills.obj
 0001:0000ad1e       ?CanCastSkill@KSkill@@UBEHHAAH0@Z 1000bd1e f   KSkills.obj
 0001:0000afd8       ?Cast@KSkill@@QBEHHHHHW4eSkillLauncherType@@H@Z 1000bfd8 f   KSkills.obj
 0001:0000b23f       ?Vanish@KSkill@@ABEXPAVKMissle@@@Z 1000c23f f   KSkills.obj
 0001:0000b26b       ?OnMissleEvent@KSkill@@QBEHGPAVKMissle@@@Z 1000c26b f   KSkills.obj
 0001:0000b5ba       ?FlyEvent@KSkill@@ABEXPAVKMissle@@@Z 1000c5ba f   KSkills.obj
 0001:0000b5e6       ?Collidsion@KSkill@@ABEXPAVKMissle@@@Z 1000c5e6 f   KSkills.obj
 0001:0000b612       ?CastMissles@KSkill@@ABEHHHHHW4eSkillLauncherType@@@Z 1000c612 f   KSkills.obj
 0001:0000ccdf       ?CastZone@KSkill@@ABEHPAUTOrdinSkillParam@@HHHHH@Z 1000dcdf f   KSkills.obj
 0001:0000d3f8       ?CastLine@KSkill@@ABEHPAUTOrdinSkillParam@@HHHHH@Z 1000e3f8 f   KSkills.obj
 0001:0000d96c       ?CastExtractiveLineMissle@KSkill@@ABEHPAUTOrdinSkillParam@@HHHHHHH@Z 1000e96c f   KSkills.obj
 0001:0000de63       ?CastWall@KSkill@@ABEHPAUTOrdinSkillParam@@HHHHH@Z 1000ee63 f   KSkills.obj
 0001:0000e4c5       ?CastCircle@KSkill@@ABEHPAUTOrdinSkillParam@@HHH@Z 1000f4c5 f   KSkills.obj
 0001:0000e975       ?CastSpread@KSkill@@ABEHPAUTOrdinSkillParam@@HHH@Z 1000f975 f   KSkills.obj
 0001:0000f02a       ?GetChildSkillNum@KSkill@@QBEHH@Z 1001002a f   KSkills.obj
 0001:0000f047       ?CreateMissle@KSkill@@ABEXHHH@Z 10010047 f   KSkills.obj
 0001:0000f43e       ?GetInfoFromTabFile@KSkill@@QAEHH@Z 1001043e f   KSkills.obj
 0001:0000f47d       ?GetInfoFromTabFile@KSkill@@QAEHPAVKITabFile@@H@Z 1001047d f   KSkills.obj
 0001:0000ff94       ?LoadSkillLevelData@KSkill@@UAEXKH@Z 10010f94 f   KSkills.obj
 0001:000104a9       ?GetMissleGenerateTime@KSkill@@QBEIH@Z 100114a9 f   KSkills.obj
 0001:0001066b       ?GetSkillIdFromName@KSkill@@SAHPAD@Z 1001166b f   KSkills.obj
 0001:000106fa       ?CastInitiativeSkill@KSkill@@ABEHHHHH@Z 100116fa f   KSkills.obj
 0001:00010713       ?CastPassivitySkill@KSkill@@ABEHHHHHH@Z 10011713 f   KSkills.obj
 0001:0001072c       ?ParseString2MagicAttrib@KSkill@@AAEHKPAD0@Z 1001172c f   KSkills.obj
 0001:000113a6       ?DrawSkillIcon@KSkill@@UAEXHHHHH@Z 100123a6 f   KSkills.obj
 0001:000116bb       ?GetDesc@KSkill@@SAXKKPADH_N@Z 100126bb f   KSkills.obj
 0001:00012b5a       ?GetDescAboutLevel@KSkill@@QAEXPADHH@Z 10013b5a f   KSkills.obj
 0001:00013181       ?GetDescAboutEventSkillLevel@KSkill@@QAEXPADH@Z 10014181 f   KSkills.obj
 0001:00013337       ?PlayPreCastSound@KSkill@@QBEXHHH@Z 10014337 f   KSkills.obj
 0001:00013460       ??0KMagicAttrib@@QAE@XZ    10014460 f i KSkills.obj
 0001:000134a0       ??_GKSkill@@UAEPAXI@Z      100144a0 f i KSkills.obj
 0001:000134a0       ??_EKSkill@@UAEPAXI@Z      100144a0 f i KSkills.obj
 0001:000134e0       ??_H@YGXPAXIHP6EX0@Z@Z     100144e0 f i KSkills.obj
 0001:00013520       ?Param2PCoordinate@KSkill@@ABEHHHHPAH0W4eSkillLauncherType@@@Z 10014520 f i KSkills.obj
 0001:000136d0       ?IsTargetOnly@KSkill@@UBEHXZ 100146d0 f i KSkills.obj
 0001:000136f0       ?IsTargetSelf@KSkill@@UBEHXZ 100146f0 f i KSkills.obj
 0001:00013710       ?IsTargetEnemy@KSkill@@UBEHXZ 10014710 f i KSkills.obj
 0001:00013730       ?IsTargetAlly@KSkill@@UBEHXZ 10014730 f i KSkills.obj
 0001:00013750       ?IsTargetObj@KSkill@@UBEHXZ 10014750 f i KSkills.obj
 0001:00013770       ?GetSkillName@KSkill@@UAEPBDXZ 10014770 f i KSkills.obj
 0001:00013790       ?GetSkillStyle@KSkill@@UAEHXZ 10014790 f i KSkills.obj
 0001:000137b0       ?GetAttackRadius@KSkill@@UBEHXZ 100147b0 f i KSkills.obj
 0001:000137d0       ?GetSkillCost@KSkill@@UBEHPAX@Z 100147d0 f i KSkills.obj
 0001:000137f0       ?GetSkillCostType@KSkill@@UBE?AW4NPCATTRIB@@XZ 100147f0 f i KSkills.obj
 0001:00013810       ?GetSkillId@KSkill@@UAEHXZ 10014810 f i KSkills.obj
 0001:00013830       ?IsAura@KSkill@@UBEHXZ     10014830 f i KSkills.obj
 0001:00013850       ?IsPhysical@KSkill@@UBEHXZ 10014850 f i KSkills.obj
 0001:00013870       ?GetSkillAttrib@KSkill@@UBEFXZ 10014870 f i KSkills.obj
 0001:00013890       ?IsExpSkill@KSkill@@UBEHXZ 10014890 f i KSkills.obj
 0001:000138b0       ?MagicAttrib2String@KSkill@@ABEPBDH@Z 100148b0 f i KSkills.obj
 0001:000138e0       ?GetSkillReqLevel@KSkill@@QBEGXZ 100148e0 f i KSkills.obj
 0001:00013900       ?GetFlySkillId@KSkill@@QBEHXZ 10014900 f i KSkills.obj
 0001:00013920       ?GetStartSkillId@KSkill@@QBEHXZ 10014920 f i KSkills.obj
 0001:00013940       ?GetVanishedSkillId@KSkill@@QBEHXZ 10014940 f i KSkills.obj
 0001:00013960       ?GetCollideSkillId@KSkill@@QBEHXZ 10014960 f i KSkills.obj
 0001:00013980       ?GetEventSkillLevel@KSkill@@QBEHXZ 10014980 f i KSkills.obj
 0001:000139a0       ?GetStatePriority@KSkill@@QBEEXZ 100149a0 f i KSkills.obj
 0001:000139c0       ?GetSkillMaxLevel@KSkillManager@@QAEEH@Z 100149c0 f i KSkills.obj
 0001:00013a00       ?GetDamageAttribs@KSkill@@QAEPAUKMagicAttrib@@XZ 10014a00 f i KSkills.obj
 0001:00013a7b       ??0KSkillSpecial@@QAE@XZ   10014a7b f   KSkillSpecial.obj
 0001:00013b14       ?Init@KSkillSpecial@@QAEHXZ 10014b14 f   KSkillSpecial.obj
 0001:00013b3f       ?Draw@KSkillSpecial@@QAEXH@Z 10014b3f f   KSkillSpecial.obj
 0001:00013d99       ?SetAnimation@KSkillSpecial@@QAEXPADI@Z 10014d99 f   KSkillSpecial.obj
 0001:00013ddc       ?Remove@KSkillSpecial@@QAEXXZ 10014ddc f   KSkillSpecial.obj
 0001:00013df0       ?Init@KFaction@@QAEHXZ     10014df0 f   KFaction.obj
 0001:00014446       ?GetID@KFaction@@QAEHHH@Z  10015446 f   KFaction.obj
 0001:00014480       ?GetID@KFaction@@QAEHHPAD@Z 10015480 f   KFaction.obj
 0001:0001452e       ?GetCamp@KFaction@@QAEHH@Z 1001552e f   KFaction.obj
 0001:000145de       ??0KNpc@@QAE@XZ            100155de f   KNpc.obj
 0001:00014764       ?Init@KNpc@@QAEXXZ         10015764 f   KNpc.obj
 0001:00014f22       ?GetActiveSkill@KNpc@@QAEPAVISkill@@XZ 10015f22 f   KNpc.obj
 0001:00014ffd       ?SetCurrentCamp@KNpc@@QAEXH@Z 10015ffd f   KNpc.obj
 0001:0001501d       ?SetCamp@KNpc@@QAEXH@Z     1001601d f   KNpc.obj
 0001:0001503d       ?RestoreCurrentCamp@KNpc@@QAEXXZ 1001603d f   KNpc.obj
 0001:00015061       ?Activate@KNpc@@QAEXXZ     10016061 f   KNpc.obj
 0001:00015566       ?AutoFixXY@KNpc@@AAEXXZ    10016566 f   KNpc.obj
 0001:00015814       ?ProcStatus@KNpc@@QAEXXZ   10016814 f   KNpc.obj
 0001:0001598e       ?ProcCommand@KNpc@@QAEXH@Z 1001698e f   KNpc.obj
 0001:00015c60       ?ProcessState@KNpc@@QAEHXZ 10016c60 f   KNpc.obj
 0001:00016285       ?DoDeath@KNpc@@AAEXHH@Z    10017285 f   KNpc.obj
 0001:000163ac       ?OnDeath@KNpc@@AAEXXZ      100173ac f   KNpc.obj
 0001:00016597       ?DoDefense@KNpc@@AAEXXZ    10017597 f   KNpc.obj
 0001:000165b6       ?OnDefense@KNpc@@AAEXXZ    100175b6 f   KNpc.obj
 0001:000165c8       ?DoIdle@KNpc@@AAEXXZ       100175c8 f   KNpc.obj
 0001:000165f5       ?OnIdle@KNpc@@AAEXXZ       100175f5 f   KNpc.obj
 0001:00016607       ?DoHurt@KNpc@@AAEXHHH@Z    10017607 f   KNpc.obj
 0001:00016746       ?OnHurt@KNpc@@AAEXXZ       10017746 f   KNpc.obj
 0001:00016a9a       ?DoSpecial1@KNpc@@AAEXXZ   10017a9a f   KNpc.obj
 0001:00016abe       ?OnSpecial1@KNpc@@AAEXXZ   10017abe f   KNpc.obj
 0001:00016bd5       ?DoSpecial2@KNpc@@AAEXXZ   10017bd5 f   KNpc.obj
 0001:00016be7       ?OnSpecial2@KNpc@@AAEXXZ   10017be7 f   KNpc.obj
 0001:00016ccf       ?DoSpecial3@KNpc@@AAEXXZ   10017ccf f   KNpc.obj
 0001:00016ce1       ?OnSpecial3@KNpc@@AAEXXZ   10017ce1 f   KNpc.obj
 0001:00016cf3       ?DoSpecial4@KNpc@@AAEXXZ   10017cf3 f   KNpc.obj
 0001:00016d05       ?OnSpecial4@KNpc@@AAEXXZ   10017d05 f   KNpc.obj
 0001:00016d17       ?DoGlide@KNpc@@AAEHF@Z     10017d17 f   KNpc.obj
 0001:00017334       ?OnGlide@KNpc@@AAEXXZ      10018334 f   KNpc.obj
 0001:00017346       ?GlideTo@KNpc@@AAEXHHF@Z   10018346 f   KNpc.obj
 0001:0001739c       ?DoStand@KNpc@@AAEXXZ      1001839c f   KNpc.obj
 0001:00017470       ?OnStand@KNpc@@AAEXXZ      10018470 f   KNpc.obj
 0001:000174ea       ?DoRevive@KNpc@@AAEXXZ     100184ea f   KNpc.obj
 0001:000175bf       ?OnRevive@KNpc@@AAEXXZ     100185bf f   KNpc.obj
 0001:000175e6       ?DoRun@KNpc@@AAEXXZ        100185e6 f   KNpc.obj
 0001:00017757       ?OnRun@KNpc@@AAEXH@Z       10018757 f   KNpc.obj
 0001:0001782f       ?DoSit@KNpc@@AAEXXZ        1001882f f   KNpc.obj
 0001:000178d2       ?OnSit@KNpc@@AAEXXZ        100188d2 f   KNpc.obj
 0001:0001790f       ?DoSkill@KNpc@@AAEXHH@Z    1001890f f   KNpc.obj
 0001:00017afd       ?UnDoSkill@KNpc@@AAEXXZ    10018afd f   KNpc.obj
 0001:00017b57       ?DoOrdinSkill@KNpc@@AAEHPAVKSkill@@HH@Z 10018b57 f   KNpc.obj
 0001:00017f90       ?DoAttack@KNpc@@AAEXXZ     10018f90 f   KNpc.obj
 0001:00018040       ?CastMeleeSkill@KNpc@@AAEHPAVKSkill@@@Z 10019040 f   KNpc.obj
 0001:0001838c       ?DoBlurAttack@KNpc@@AAEHXZ 1001938c f   KNpc.obj
 0001:0001848e       ?DoMagic@KNpc@@AAEXXZ      1001948e f   KNpc.obj
 0001:00018507       ?OnSkill@KNpc@@AAEXXZ      10019507 f   KNpc.obj
 0001:000186ba       ?JumpTo@KNpc@@AAEXHH@Z     100196ba f   KNpc.obj
 0001:00018706       ?RunTo@KNpc@@AAEXHH@Z      10019706 f   KNpc.obj
 0001:00018740       ?Goto@KNpc@@AAEXHH@Z       10019740 f   KNpc.obj
 0001:0001877a       ?DoWalk@KNpc@@AAEXXZ       1001977a f   KNpc.obj
 0001:0001888f       ?DoPlayerTalk@KNpc@@QAEXPAD@Z 1001988f f   KNpc.obj
 0001:000188a3       ?OnPlayerTalk@KNpc@@AAEXXZ 100198a3 f   KNpc.obj
 0001:000188b5       ?OnWalk@KNpc@@AAEXXZ       100198b5 f   KNpc.obj
 0001:000188f0       ?GetSkillLevel@KNpc@@QAEHH@Z 100198f0 f   KNpc.obj
 0001:00018946       ?ModifyAttrib@KNpc@@QAEXHPAX@Z 10019946 f   KNpc.obj
 0001:0001897c       ?SetImmediatelySkillEffect@KNpc@@QAEXHPAXH@Z 1001997c f   KNpc.obj
 0001:00018a2d       ?AppendSkillEffect@KNpc@@QAEXKHHPAX0@Z 10019a2d f   KNpc.obj
 0001:000196ae       ?ProcMove@KNpc@@AAEXH@Z    1001a6ae f   KNpc.obj
 0001:00019ddb       ?ProcJump@KNpc@@AAEXH@Z    1001addb f   KNpc.obj
 0001:0001a259       ?SendCommand@KNpc@@QAEXW4NPCCMD@@HHH@Z 1001b259 f   KNpc.obj
 0001:0001a37a       ?SendCommandRandMove@KNpc@@QAEXHHH@Z 1001b37a f   KNpc.obj
 0001:0001a47b       ?NewPath@KNpc@@AAEHHH@Z    1001b47b f   KNpc.obj
 0001:0001a4ac       ?NewJump@KNpc@@AAEHHH@Z    1001b4ac f   KNpc.obj
 0001:0001a7db       ?NewGlide@KNpc@@AAEHHHH@Z  1001b7db f   KNpc.obj
 0001:0001aaee       ?SelfDamage@KNpc@@QAEXH@Z  1001baee f   KNpc.obj
 0001:0001ab30       ?Cost@KNpc@@QAEHW4NPCATTRIB@@HH@Z 1001bb30 f   KNpc.obj
 0001:0001acce       ?DoJump@KNpc@@AAEXXZ       1001bcce f   KNpc.obj
 0001:0001adbe       ?OnJump@KNpc@@AAEHXZ       1001bdbe f   KNpc.obj
 0001:0001ae48       ?WaitForFrame@KNpc@@AAEHXZ 1001be48 f   KNpc.obj
 0001:0001ae99       ?IsReachFrame@KNpc@@AAEHH@Z 1001be99 f   KNpc.obj
 0001:0001aed6       ?Load@KNpc@@QAEXHHH@Z      1001bed6 f   KNpc.obj
 0001:0001b3a5       ?GetMpsPos@KNpc@@QAEXPAH0@Z 1001c3a5 f   KNpc.obj
 0001:0001b417       ?SetActiveSkill@KNpc@@QAEHH@Z 1001c417 f   KNpc.obj
 0001:0001b54d       ?SetAuraSkill@KNpc@@QAEXH@Z 1001c54d f   KNpc.obj
 0001:0001b6dd       ?SetPlayerIdx@KNpc@@QAEHH@Z 1001c6dd f   KNpc.obj
 0001:0001b723       ?SetPos@KNpc@@QAE_NHH@Z    1001c723 f   KNpc.obj
 0001:0001b935       ?MoveNpc@KNpc@@QAEXHHHHH_N@Z 1001c935 f   KNpc.obj
 0001:0001bbbe       ?PaintInfo@KNpc@@QAEHH_NHK@Z 1001cbbe f   KNpc.obj
 0001:0001c7d5       ?PaintNpcAuto@KNpc@@QAEXH_NHK@Z 1001d7d5 f   KNpc.obj
 0001:0001ca01       ?PaintSeriesNpc@KNpc@@QAEXHH@Z 1001da01 f   KNpc.obj
 0001:0001cb59       ?PaintHorseState@KNpc@@QAEXHH@Z 1001db59 f   KNpc.obj
 0001:0001cd43       ?PaintRankInfo@KNpc@@QAEXHHK@Z 1001dd43 f   KNpc.obj
 0001:0001d1b3       ?PaintTransLifeInfo@KNpc@@QAEXHH@Z 1001e1b3 f   KNpc.obj
 0001:0001d43b       ?PaintShopInfo@KNpc@@QAEXHH@Z 1001e43b f   KNpc.obj
 0001:0001d87f       ?PaintChat@KNpc@@QAEHH@Z   1001e87f f   KNpc.obj
 0001:0001da2c       ?SetChatInfo@KNpc@@QAEHPBD0G@Z 1001ea2c f   KNpc.obj
 0001:0001de8c       ?SetWarning@KNpc@@QAEHH@Z  1001ee8c f   KNpc.obj
 0001:0001deb5       ?PaintWarning@KNpc@@QAEHH_N@Z 1001eeb5 f   KNpc.obj
 0001:0001e052       ?PaintLife@KNpc@@QAEHH_N@Z 1001f052 f   KNpc.obj
 0001:0001e2d0       ?PaintMana@KNpc@@QAEHH@Z   1001f2d0 f   KNpc.obj
 0001:0001e48e       ?Paint@KNpc@@QAEXXZ        1001f48e f   KNpc.obj
 0001:0001e85b       ?AddBaseLifeMax@KNpc@@QAEXH@Z 1001f85b f   KNpc.obj
 0001:0001e896       ?AddCurLifeMax@KNpc@@QAEXH@Z 1001f896 f   KNpc.obj
 0001:0001e8bf       ?AddBaseStaminaMax@KNpc@@QAEXH@Z 1001f8bf f   KNpc.obj
 0001:0001e8fa       ?AddCurStaminaMax@KNpc@@QAEXH@Z 1001f8fa f   KNpc.obj
 0001:0001e923       ?AddBaseManaMax@KNpc@@QAEXH@Z 1001f923 f   KNpc.obj
 0001:0001e95e       ?AddCurManaMax@KNpc@@QAEXH@Z 1001f95e f   KNpc.obj
 0001:0001e987       ?CalcCurLifeReplenish@KNpc@@QAEXXZ 1001f987 f   KNpc.obj
 0001:0001e9ab       ?Remove@KNpc@@QAEXXZ       1001f9ab f   KNpc.obj
 0001:0001e9d7       ?RemoveRes@KNpc@@QAEXXZ    1001f9d7 f   KNpc.obj
 0001:0001ea08       ?SetSeries@KNpc@@QAEXH@Z   1001fa08 f   KNpc.obj
 0001:0001ea3a       ?SetStateSkillEffect@KNpc@@QAEXHHHPAXHHH@Z 1001fa3a f   KNpc.obj
 0001:0001ee83       ?ModifyMissleCollsion@KNpc@@QAEHH@Z 1001fe83 f   KNpc.obj
 0001:0001eece       ?ModifyMissleLifeTime@KNpc@@QAEHH@Z 1001fece f   KNpc.obj
 0001:0001ef00       ?ModifyMissleSpeed@KNpc@@QAEHH@Z 1001ff00 f   KNpc.obj
 0001:0001ef2d       ?DoManyAttack@KNpc@@AAEHXZ 1001ff2d f   KNpc.obj
 0001:0001f0e5       ?OnManyAttack@KNpc@@AAEXXZ 100200e5 f   KNpc.obj
 0001:0001f1b7       ?DoRunAttack@KNpc@@AAEHXZ  100201b7 f   KNpc.obj
 0001:0001f4e1       ?OnRunAttack@KNpc@@AAEXXZ  100204e1 f   KNpc.obj
 0001:0001f759       ?DoJumpAttack@KNpc@@AAEHXZ 10020759 f   KNpc.obj
 0001:0001f977       ?OnJumpAttack@KNpc@@AAEHXZ 10020977 f   KNpc.obj
 0001:0001fb28       ?CheckHitTarget@KNpc@@AAEHHHH@Z 10020b28 f   KNpc.obj
 0001:0001fbec       ?AddStateInfo@KNpc@@AAEXH@Z 10020bec f   KNpc.obj
 0001:0001fcae       ?AddStateSkillList@KNpc@@AAEXPAVKStateNode@@@Z 10020cae f   KNpc.obj
 0001:0001fd3f       ?AddStateSkillListClient@KNpc@@AAEXPAVKStateNode@@@Z 10020d3f f   KNpc.obj
 0001:0001fde0       ?RemoveStateSkillList@KNpc@@AAEXPAE@Z 10020de0 f   KNpc.obj
 0001:0001fefd       ?GetNpcCopyFromTemplate@KNpc@@QAEXHHH@Z 10020efd f   KNpc.obj
 0001:000202cf       ?LoadDataFromTemplate@KNpc@@QAEXHHH@Z 100212cf f   KNpc.obj
 0001:00020509       ?SetPhysicsDamage@KNpc@@QAEXHH@Z 10021509 f   KNpc.obj
 0001:00020535       ?SetBaseAttackRating@KNpc@@QAEXH@Z 10021535 f   KNpc.obj
 0001:00020569       ?SetBaseDefence@KNpc@@QAEXH@Z 10021569 f   KNpc.obj
 0001:0002059d       ?SetMenuState@KNpc@@QAEXHPADH@Z 1002159d f   KNpc.obj
 0001:000205d5       ?GetMenuState@KNpc@@QAEHXZ 100215d5 f   KNpc.obj
 0001:000205ff       ?SearchAroundID@KNpc@@QAEKK@Z 100215ff f   KNpc.obj
 0001:000206c3       ?SetSpecialSpr@KNpc@@QAEXPAD@Z 100216c3 f   KNpc.obj
 0001:000206f3       ?SetInstantSpr@KNpc@@QAEXH@Z 100216f3 f   KNpc.obj
 0001:0002074b       ?GetNormalNpcStandDir@KNpc@@QAEHH@Z 1002174b f   KNpc.obj
 0001:0002077b       ?SetNpcState@KNpc@@QAEXPAE@Z 1002177b f   KNpc.obj
 0001:0002086f       ?ClearNpcState@KNpc@@QAEXXZ 1002186f f   KNpc.obj
 0001:00020912       ?RestoreNpcBaseInfo@KNpc@@QAEXXZ 10021912 f   KNpc.obj
 0001:00020ef1       ?DrawBorder@KNpc@@QAEXXZ   10021ef1 f   KNpc.obj
 0001:00020f26       ?DrawMenuState@KNpc@@QAEHH@Z 10021f26 f   KNpc.obj
 0001:00020f64       ?IsPlayer@KNpc@@QAEHXZ     10021f64 f   KNpc.obj
 0001:00020f87       ?IsAlive@KNpc@@QAEHXZ      10021f87 f   KNpc.obj
 0001:00020fbe       ?ClearStateSkillEffect@KNpc@@QAEXXZ 10021fbe f   KNpc.obj
 0001:00021107       ?ClearNormalState@KNpc@@QAEXXZ 10022107 f   KNpc.obj
 0001:000211fb       ?CheckTrap@KNpc@@QAEXXZ    100221fb f   KNpc.obj
 0001:000212f4       ?SetFightMode@KNpc@@QAEXH@Z 100222f4 f   KNpc.obj
 0001:00021348       ?TurnTo@KNpc@@QAEXH@Z      10022348 f   KNpc.obj
 0001:000213df       ?ReCalcStateEffect@KNpc@@QAEXXZ 100223df f   KNpc.obj
 0001:000214dd       ?GetCurActiveWeaponSkill@KNpc@@QAEHXZ 100224dd f   KNpc.obj
 0001:000215d2       ?HurtAutoMove@KNpc@@AAEXXZ 100225d2 f   KNpc.obj
 0001:00021ae5       ?ProcNetCommand@KNpc@@QAEXW4NPCCMD@@HHH@Z 10022ae5 f   KNpc.obj
 0001:00021bd5       ?ClearBlood@KNpc@@QAEXH@Z  10022bd5 f   KNpc.obj
 0001:00021c14       ?SetBlood@KNpc@@QAEXH@Z    10022c14 f   KNpc.obj
 0001:00021cd5       ?PaintBlood@KNpc@@QAEHH@Z  10022cd5 f   KNpc.obj
 0001:00021e9d       ?EditPos@KNpc@@QAEX_N@Z    10022e9d f   KNpc.obj
 0001:00021ef6       ?SendClientPos2Server@KNpc@@QAEXXZ 10022ef6 f   KNpc.obj
 0001:00021feb       ?GetNpcPate@KNpc@@QAEHXZ   10022feb f   KNpc.obj
 0001:000220ed       ?GetNpcPatePeopleInfo@KNpc@@QAEHXZ 100230ed f   KNpc.obj
 0001:000221f6       ?FindStateSkill@KNpc@@QAEHH@Z 100231f6 f   KNpc.obj
 0001:00022266       ?GetFrameCopyFromTemplate@KNpc@@QAEXHHH@Z 10023266 f   KNpc.obj
 0001:000225e5       ?LoadFrameFromTemplate@KNpc@@QAEXHHH@Z 100235e5 f   KNpc.obj
 0001:000226d1       ?ReSetRes@KNpc@@QAEXH@Z    100236d1 f   KNpc.obj
 0001:00022959       ?AutoDoSkill@KNpc@@QAEXHHHH@Z 10023959 f   KNpc.obj
 0001:00022f0f       ?RandMove@KNpc@@QAEXHHH@Z  10023f0f f   KNpc.obj
 0001:00022fcf       ?ExecuteStand@KNpc@@QAEXXZ 10023fcf f   KNpc.obj
 0001:0002300d       ?SetTitleEffect@KNpc@@QAEXH@Z 1002400d f   KNpc.obj
 0001:000231ba       ?ClientGotoPos@KNpc@@QAEXHHH@Z 100241ba f   KNpc.obj
 0001:000232cf       ?ExecuteScript@KNpc@@QAEHPAD0H@Z 100242cf f   KNpc.obj
 0001:0002333a       ?ExecuteScript@KNpc@@QAEHKPADH@Z 1002433a f   KNpc.obj
 0001:00023572       ?ExecuteScript@KNpc@@QAEHKPAD0@Z 10024572 f   KNpc.obj
 0001:000237df       ?ExecuteScript@KNpc@@QAEHPAD00@Z 100247df f   KNpc.obj
 0001:00023859       ?ExecuteScript2@KNpc@@QAEHKPAD00@Z 10024859 f   KNpc.obj
 0001:00023ada       ?ExecuteScript2@KNpc@@QAEHKPADHH@Z 10024ada f   KNpc.obj
 0001:00023d17       ?ExecuteScript2@KNpc@@QAEHPAD0HH@Z 10024d17 f   KNpc.obj
 0001:00023d86       ?ExecuteScript2@KNpc@@QAEHPAD000@Z 10024d86 f   KNpc.obj
 0001:00023e10       ??1KNpc@@QAE@XZ            10024e10 f i KNpc.obj
 0001:00023eb0       ?Clear@KSkillList@@QAEXXZ  10024eb0 f i KNpc.obj
 0001:00023ef0       ?SetAdjustColorId@KNpcRes@@QAEXK@Z 10024ef0 f i KNpc.obj
 0001:00023f10       ?GetChildSkillId@KSkill@@QBEHXZ 10024f10 f i KNpc.obj
 0001:00023f30       ?IsNeedShadow@KSkill@@QBEHXZ 10024f30 f i KNpc.obj
 0001:00023f50       ?GetPreCastEffectFile@KSkill@@QBEPBDXZ 10024f50 f i KNpc.obj
 0001:00023f70       ?GetActionType@KSkill@@QBE?AW4CLIENTACTION@@XZ 10024f70 f i KNpc.obj
 0001:00023f90       ?GetParam1@KSkill@@QBEHXZ  10024f90 f i KNpc.obj
 0001:00023fb0       ?GetDelayPerCast@KSkill@@QBEHXZ 10024fb0 f i KNpc.obj
 0001:00023fd0       ?GetDelayPerCastOnHorse@KSkill@@QBEHXZ 10024fd0 f i KNpc.obj
 0001:00023ff0       ?GetMeleeType@KSkill@@QBEHXZ 10024ff0 f i KNpc.obj
 0001:00024010       ?GetPlayerWalkSpeed@KNpcSet@@QAEHXZ 10025010 f i KNpc.obj
 0001:00024030       ?GetPlayerRunSpeed@KNpcSet@@QAEHXZ 10025030 f i KNpc.obj
 0001:00024050       ?GetPlayerAttackFrame@KNpcSet@@QAEHXZ 10025050 f i KNpc.obj
 0001:00024070       ?GetPlayerHurtFrame@KNpcSet@@QAEHXZ 10025070 f i KNpc.obj
 0001:00024090       ?GetPlayerStandFrame@KNpcSet@@QAEHH@Z 10025090 f i KNpc.obj
 0001:000240c0       ?GetPlayerWalkFrame@KNpcSet@@QAEHH@Z 100250c0 f i KNpc.obj
 0001:000240f0       ?GetPlayerRunFrame@KNpcSet@@QAEHH@Z 100250f0 f i KNpc.obj
 0001:00024120       ?GetPlayerID@KPlayer@@QAEKXZ 10025120 f i KNpc.obj
 0001:00024140       ?GetNodeCount@KList@@QAEJXZ 10025140 f i KNpc.obj
 0001:000241a0       ??0KOutputTextParam@@QAE@XZ 100251a0 f i KNpc.obj
 0001:00024210       ?GetEnmityPKState@KPlayerPK@@QAEHXZ 10025210 f i KNpc.obj
 0001:00024230       ?GetStateSpecailId@KSkill@@QBEHXZ 10025230 f i KNpc.obj
 0001:00024250       ??0KStateNode@@QAE@XZ      10025250 f i KNpc.obj
 0001:000242d0       ??_EKStateNode@@UAEPAXI@Z  100252d0 f i KNpc.obj
 0001:000242d0       ??_GKStateNode@@UAEPAXI@Z  100252d0 f i KNpc.obj
 0001:00024310       ??1KStateNode@@UAE@XZ      10025310 f i KNpc.obj
 0001:00024340       ?g_RandPercent@@YAHH@Z     10025340 f i KNpc.obj
 0001:00024370       ?GetChildSkillNum@KSkill@@QBEHXZ 10025370 f i KNpc.obj
 0001:00024390       ?GetSkill@KSkillManager@@QAEPAVISkill@@HHW4eSKillStyle@@@Z 10025390 f i KNpc.obj
 0001:00024400       ?AddHead@KList@@QAEXPAVKNode@@@Z 10025400 f i KNpc.obj
 0001:00024430       ?InsertAfter@KNode@@QAEXPAV1@@Z 10025430 f i KNpc.obj
 0001:000244b0       ??0KNpcTemplate@@QAE@XZ    100254b0 f i KNpc.obj
 0001:000244e0       ?GetMapX@KNpc@@QBEHXZ      100254e0 f i KNpc.obj
 0001:00024500       ?GetMapY@KNpc@@QBEHXZ      10025500 f i KNpc.obj
 0001:00024520       ?GetOffX@KNpc@@QBEHXZ      10025520 f i KNpc.obj
 0001:00024540       ?GetOffY@KNpc@@QBEHXZ      10025540 f i KNpc.obj
 0001:00024560       ??0?$vector@UFindPathNode@@V?$allocator@UFindPathNode@@@std@@@std@@QAE@ABV?$allocator@UFindPathNode@@@1@@Z 10025560 f i KNpc.obj
 0001:000245a0       ??1?$vector@UFindPathNode@@V?$allocator@UFindPathNode@@@std@@@std@@QAE@XZ 100255a0 f i KNpc.obj
 0001:00024610       ?_Destroy@?$vector@UFindPathNode@@V?$allocator@UFindPathNode@@@std@@@std@@IAEXPAUFindPathNode@@0@Z 10025610 f i KNpc.obj
 0001:00024650       ?deallocate@?$allocator@UFindPathNode@@@std@@QAEXPAXI@Z 10025650 f i KNpc.obj
 0001:00024680       ?destroy@?$allocator@UFindPathNode@@@std@@QAEXPAUFindPathNode@@@Z 10025680 f i KNpc.obj
 0001:000246b0       ?_Destroy@std@@YAXPAUFindPathNode@@@Z 100256b0 f i KNpc.obj
 0001:000246e7       ??0KNpcAI@@QAE@XZ          100256e7 f   KNpcAI.obj
 0001:0002470f       ?Activate@KNpcAI@@QAEXH@Z  1002570f f   KNpcAI.obj
 0001:000247e4       ?ProcessShowNpc@KNpcAI@@AAEHXZ 100257e4 f   KNpcAI.obj
 0001:00024915       ?ShowNpcType11@KNpcAI@@AAEHXZ 10025915 f   KNpcAI.obj
 0001:00024b38       ?ShowNpcType12@KNpcAI@@AAEHXZ 10025b38 f   KNpcAI.obj
 0001:00024d77       ?ShowNpcType13@KNpcAI@@AAEHXZ 10025d77 f   KNpcAI.obj
 0001:00024f58       ?ShowNpcType14@KNpcAI@@AAEHXZ 10025f58 f   KNpcAI.obj
 0001:000251b5       ?ShowNpcType15@KNpcAI@@AAEHXZ 100261b5 f   KNpcAI.obj
 0001:00025396       ?ShowNpcType16@KNpcAI@@AAEHXZ 10026396 f   KNpcAI.obj
 0001:000255d3       ?ShowNpcType17@KNpcAI@@AAEHXZ 100265d3 f   KNpcAI.obj
 0001:00025825       ?ProcessPlayer@KNpcAI@@AAEXXZ 10026825 f   KNpcAI.obj
 0001:00025896       ?FollowObject@KNpcAI@@AAEXH@Z 10026896 f   KNpcAI.obj
 0001:00025933       ?FollowPeople@KNpcAI@@AAEXH@Z 10026933 f   KNpcAI.obj
 0001:00025d97       ?TriggerMapTrap@KNpcAI@@AAEXXZ 10026d97 f   KNpcAI.obj
 0001:00025dc9       ?TriggerObjectTrap@KNpcAI@@AAEXXZ 10026dc9 f   KNpcAI.obj
 0001:00025ddb       ?GetNearestNpc@KNpcAI@@AAEHH@Z 10026ddb f   KNpcAI.obj
 0001:0002654f       ?IsPlayerCome@KNpcAI@@AAEHXZ 1002754f f   KNpcAI.obj
 0001:00026615       ?GetNpcNumber@KNpcAI@@AAEHH@Z 10027615 f   KNpcAI.obj
 0001:000268c2       ?KeepAttackRange@KNpcAI@@AAEXHH@Z 100278c2 f   KNpcAI.obj
 0001:000269ad       ?FollowAttack@KNpcAI@@AAEXH@Z 100279ad f   KNpcAI.obj
 0001:00026acd       ?InEyeshot@KNpcAI@@AAEHH@Z 10027acd f   KNpcAI.obj
 0001:00026b22       ?CommonAction@KNpcAI@@AAEXXZ 10027b22 f   KNpcAI.obj
 0001:00026c7f       ?KeepActiveRange@KNpcAI@@AAEHXZ 10027c7f f   KNpcAI.obj
 0001:00026dbc       ?DoShowFlee@KNpcAI@@AAEHH@Z 10027dbc f   KNpcAI.obj
 0001:00026ef4       ?Flee@KNpcAI@@AAEXH@Z      10027ef4 f   KNpcAI.obj
 0001:00026f93       ?ProcessAIType01@KNpcAI@@AAEXXZ 10027f93 f   KNpcAI.obj
 0001:00027200       ?ProcessAIType02@KNpcAI@@AAEXXZ 10028200 f   KNpcAI.obj
 0001:00027521       ?ProcessAIType03@KNpcAI@@AAEXXZ 10028521 f   KNpcAI.obj
 0001:000277cf       ?ProcessAIType04@KNpcAI@@AAEXXZ 100287cf f   KNpcAI.obj
 0001:000279f3       ?ProcessAIType05@KNpcAI@@AAEXXZ 100289f3 f   KNpcAI.obj
 0001:00027ccb       ?ProcessAIType06@KNpcAI@@AAEXXZ 10028ccb f   KNpcAI.obj
 0001:00027f30       ?ProcessAIType07@KNpcAI@@AAEXXZ 10028f30 f   KNpcAI.obj
 0001:000280d0       ?CanShowNpc@KNpcAI@@AAEHXZ 100290d0 f i KNpcAI.obj
 0001:00028150       ?GetNpcMoveOffset@KNpcAI@@AAEHHHPAH0@Z 10029150 f i KNpcAI.obj
 0001:00028220       ?GetRandomNumber@@YAHHH@Z  10029220 f i KNpcAI.obj
 0001:000282ab       ??0KNpcAttribModify@@QAE@XZ 100292ab f   KNpcAttribModify.obj
 0001:0002890c       ??1KNpcAttribModify@@QAE@XZ 1002990c f   KNpcAttribModify.obj
 0001:0002891e       ?ModifyAttrib@KNpcAttribModify@@QAEXPAVKNpc@@PAX@Z 1002991e f   KNpcAttribModify.obj
 0001:0002899d       ?AddColdDamageV@KNpcAttribModify@@AAEXPAVKNpc@@PAX@Z 1002999d f   KNpcAttribModify.obj
 0001:00028a67       ?AddFireDamageV@KNpcAttribModify@@AAEXPAVKNpc@@PAX@Z 10029a67 f   KNpcAttribModify.obj
 0001:00028aee       ?AddLightingDamageV@KNpcAttribModify@@AAEXPAVKNpc@@PAX@Z 10029aee f   KNpcAttribModify.obj
 0001:00028b75       ?AddPhysicsDamageP@KNpcAttribModify@@AAEXPAVKNpc@@PAX@Z 10029b75 f   KNpcAttribModify.obj
 0001:00028cf5       ?AddPoisonDamageV@KNpcAttribModify@@AAEXPAVKNpc@@PAX@Z 10029cf5 f   KNpcAttribModify.obj
 0001:00028dca       ?AddPhysicsDamageV@KNpcAttribModify@@AAEXPAVKNpc@@PAX@Z 10029dca f   KNpcAttribModify.obj
 0001:00028e08       ?AllresP@KNpcAttribModify@@AAEXPAVKNpc@@PAX@Z 10029e08 f   KNpcAttribModify.obj
 0001:00028ef1       ?AllSkillV@KNpcAttribModify@@AAEXPAVKNpc@@PAX@Z 10029ef1 f   KNpcAttribModify.obj
 0001:00028fce       ?AttackRatingP@KNpcAttribModify@@AAEXPAVKNpc@@PAX@Z 10029fce f   KNpcAttribModify.obj
 0001:0002906d       ?AttackRatingV@KNpcAttribModify@@AAEXPAVKNpc@@PAX@Z 1002a06d f   KNpcAttribModify.obj
 0001:000290df       ?AttackSpeedV@KNpcAttribModify@@AAEXPAVKNpc@@PAX@Z 1002a0df f   KNpcAttribModify.obj
 0001:00029151       ?BadStatusTimeReduceV@KNpcAttribModify@@AAEXPAVKNpc@@PAX@Z 1002a151 f   KNpcAttribModify.obj
 0001:00029174       ?BurnTimeReduceP@KNpcAttribModify@@AAEXPAVKNpc@@PAX@Z 1002a174 f   KNpcAttribModify.obj
 0001:00029188       ?CastSpeedV@KNpcAttribModify@@AAEXPAVKNpc@@PAX@Z 1002a188 f   KNpcAttribModify.obj
 0001:000291fa       ?ChangeCampV@KNpcAttribModify@@AAEXPAVKNpc@@PAX@Z 1002a1fa f   KNpcAttribModify.obj
 0001:00029293       ?ColdArmorV@KNpcAttribModify@@AAEXPAVKNpc@@PAX@Z 1002a293 f   KNpcAttribModify.obj
 0001:000292a7       ?ColdresP@KNpcAttribModify@@AAEXPAVKNpc@@PAX@Z 1002a2a7 f   KNpcAttribModify.obj
 0001:00029319       ?DeadlyStrikeP@KNpcAttribModify@@AAEXPAVKNpc@@PAX@Z 1002a319 f   KNpcAttribModify.obj
 0001:0002938b       ?DexterityV@KNpcAttribModify@@AAEXPAVKNpc@@PAX@Z 1002a38b f   KNpcAttribModify.obj
 0001:0002941f       ?EarthSkillV@KNpcAttribModify@@AAEXPAVKNpc@@PAX@Z 1002a41f f   KNpcAttribModify.obj
 0001:00029475       ?EnergyV@KNpcAttribModify@@AAEXPAVKNpc@@PAX@Z 1002a475 f   KNpcAttribModify.obj
 0001:00029509       ?FastHitRecoverV@KNpcAttribModify@@AAEXPAVKNpc@@PAX@Z 1002a509 f   KNpcAttribModify.obj
 0001:0002957b       ?FastWalkRunP@KNpcAttribModify@@AAEXPAVKNpc@@PAX@Z 1002a57b f   KNpcAttribModify.obj
 0001:00029634       ?FireArmorV@KNpcAttribModify@@AAEXPAVKNpc@@PAX@Z 1002a634 f   KNpcAttribModify.obj
 0001:00029648       ?FireSkillV@KNpcAttribModify@@AAEXPAVKNpc@@PAX@Z 1002a648 f   KNpcAttribModify.obj
 0001:0002969e       ?FreezeTimeReduceP@KNpcAttribModify@@AAEXPAVKNpc@@PAX@Z 1002a69e f   KNpcAttribModify.obj
 0001:000296dc       ?KnockBackP@KNpcAttribModify@@AAEXPAVKNpc@@PAX@Z 1002a6dc f   KNpcAttribModify.obj
 0001:0002974e       ?LifeMaxP@KNpcAttribModify@@AAEXPAVKNpc@@PAX@Z 1002a74e f   KNpcAttribModify.obj
 0001:00029820       ?LifeMaxV@KNpcAttribModify@@AAEXPAVKNpc@@PAX@Z 1002a820 f   KNpcAttribModify.obj
 0001:0002988f       ?LifeReplenishV@KNpcAttribModify@@AAEXPAVKNpc@@PAX@Z 1002a88f f   KNpcAttribModify.obj
 0001:000298fe       ?LifeV@KNpcAttribModify@@AAEXPAVKNpc@@PAX@Z 1002a8fe f   KNpcAttribModify.obj
 0001:0002996d       ?LightingArmorV@KNpcAttribModify@@AAEXPAVKNpc@@PAX@Z 1002a96d f   KNpcAttribModify.obj
 0001:00029981       ?LightingresP@KNpcAttribModify@@AAEXPAVKNpc@@PAX@Z 1002a981 f   KNpcAttribModify.obj
 0001:000299f3       ?LuckyV@KNpcAttribModify@@AAEXPAVKNpc@@PAX@Z 1002a9f3 f   KNpcAttribModify.obj
 0001:00029a5c       ?ManaMaxP@KNpcAttribModify@@AAEXPAVKNpc@@PAX@Z 1002aa5c f   KNpcAttribModify.obj
 0001:00029af8       ?ManaMaxV@KNpcAttribModify@@AAEXPAVKNpc@@PAX@Z 1002aaf8 f   KNpcAttribModify.obj
 0001:00029b67       ?ManaReplenishV@KNpcAttribModify@@AAEXPAVKNpc@@PAX@Z 1002ab67 f   KNpcAttribModify.obj
 0001:00029bd9       ?ManaV@KNpcAttribModify@@AAEXPAVKNpc@@PAX@Z 1002abd9 f   KNpcAttribModify.obj
 0001:00029c48       ?ManaShieldP@KNpcAttribModify@@AAEXPAVKNpc@@PAX@Z 1002ac48 f   KNpcAttribModify.obj
 0001:00029cc1       ?MeleeDamageReturnP@KNpcAttribModify@@AAEXPAVKNpc@@PAX@Z 1002acc1 f   KNpcAttribModify.obj
 0001:00029d33       ?MeleeDamageReturnV@KNpcAttribModify@@AAEXPAVKNpc@@PAX@Z 1002ad33 f   KNpcAttribModify.obj
 0001:00029da5       ?MetalSkillV@KNpcAttribModify@@AAEXPAVKNpc@@PAX@Z 1002ada5 f   KNpcAttribModify.obj
 0001:00029dfb       ?PhysicsArmorV@KNpcAttribModify@@AAEXPAVKNpc@@PAX@Z 1002adfb f   KNpcAttribModify.obj
 0001:00029e0f       ?PhysicsresP@KNpcAttribModify@@AAEXPAVKNpc@@PAX@Z 1002ae0f f   KNpcAttribModify.obj
 0001:00029e81       ?Damage2ManaP@KNpcAttribModify@@AAEXPAVKNpc@@PAX@Z 1002ae81 f   KNpcAttribModify.obj
 0001:00029ef3       ?PoisonArmorV@KNpcAttribModify@@AAEXPAVKNpc@@PAX@Z 1002aef3 f   KNpcAttribModify.obj
 0001:00029f07       ?PoisonDamageReduceV@KNpcAttribModify@@AAEXPAVKNpc@@PAX@Z 1002af07 f   KNpcAttribModify.obj
 0001:00029f8e       ?PoisonresP@KNpcAttribModify@@AAEXPAVKNpc@@PAX@Z 1002af8e f   KNpcAttribModify.obj
 0001:0002a000       ?PoisonTimeReduceP@KNpcAttribModify@@AAEXPAVKNpc@@PAX@Z 1002b000 f   KNpcAttribModify.obj
 0001:0002a072       ?RangeDamageReturnV@KNpcAttribModify@@AAEXPAVKNpc@@PAX@Z 1002b072 f   KNpcAttribModify.obj
 0001:0002a0e4       ?RangeDamageReturnP@KNpcAttribModify@@AAEXPAVKNpc@@PAX@Z 1002b0e4 f   KNpcAttribModify.obj
 0001:0002a156       ?SlowMissleB@KNpcAttribModify@@AAEXPAVKNpc@@PAX@Z 1002b156 f   KNpcAttribModify.obj
 0001:0002a1b9       ?StaminaMaxP@KNpcAttribModify@@AAEXPAVKNpc@@PAX@Z 1002b1b9 f   KNpcAttribModify.obj
 0001:0002a255       ?StaminaMaxV@KNpcAttribModify@@AAEXPAVKNpc@@PAX@Z 1002b255 f   KNpcAttribModify.obj
 0001:0002a2c4       ?StaminaReplenishV@KNpcAttribModify@@AAEXPAVKNpc@@PAX@Z 1002b2c4 f   KNpcAttribModify.obj
 0001:0002a336       ?StaminaV@KNpcAttribModify@@AAEXPAVKNpc@@PAX@Z 1002b336 f   KNpcAttribModify.obj
 0001:0002a3a5       ?StealLifeP@KNpcAttribModify@@AAEXPAVKNpc@@PAX@Z 1002b3a5 f   KNpcAttribModify.obj
 0001:0002a41e       ?StealManaP@KNpcAttribModify@@AAEXPAVKNpc@@PAX@Z 1002b41e f   KNpcAttribModify.obj
 0001:0002a497       ?StealStaminaP@KNpcAttribModify@@AAEXPAVKNpc@@PAX@Z 1002b497 f   KNpcAttribModify.obj
 0001:0002a510       ?StrengthV@KNpcAttribModify@@AAEXPAVKNpc@@PAX@Z 1002b510 f   KNpcAttribModify.obj
 0001:0002a5a4       ?StunTimeReduceP@KNpcAttribModify@@AAEXPAVKNpc@@PAX@Z 1002b5a4 f   KNpcAttribModify.obj
 0001:0002a616       ?VisionRadiusP@KNpcAttribModify@@AAEXPAVKNpc@@PAX@Z 1002b616 f   KNpcAttribModify.obj
 0001:0002a688       ?VitalityV@KNpcAttribModify@@AAEXPAVKNpc@@PAX@Z 1002b688 f   KNpcAttribModify.obj
 0001:0002a71c       ?WaterSkillV@KNpcAttribModify@@AAEXPAVKNpc@@PAX@Z 1002b71c f   KNpcAttribModify.obj
 0001:0002a772       ?WoodSkillV@KNpcAttribModify@@AAEXPAVKNpc@@PAX@Z 1002b772 f   KNpcAttribModify.obj
 0001:0002a7c8       ?FireresP@KNpcAttribModify@@AAEXPAVKNpc@@PAX@Z 1002b7c8 f   KNpcAttribModify.obj
 0001:0002a844       ?ArmorDefenseV@KNpcAttribModify@@AAEXPAVKNpc@@PAX@Z 1002b844 f   KNpcAttribModify.obj
 0001:0002a8b6       ?ColdEnhanceP@KNpcAttribModify@@AAEXPAVKNpc@@PAX@Z 1002b8b6 f   KNpcAttribModify.obj
 0001:0002a928       ?FireEnhanceP@KNpcAttribModify@@AAEXPAVKNpc@@PAX@Z 1002b928 f   KNpcAttribModify.obj
 0001:0002a99a       ?LightingEnhanceP@KNpcAttribModify@@AAEXPAVKNpc@@PAX@Z 1002b99a f   KNpcAttribModify.obj
 0001:0002aa0c       ?PoisonEnhanceP@KNpcAttribModify@@AAEXPAVKNpc@@PAX@Z 1002ba0c f   KNpcAttribModify.obj
 0001:0002aa7e       ?LifePotionV@KNpcAttribModify@@AAEXPAVKNpc@@PAX@Z 1002ba7e f   KNpcAttribModify.obj
 0001:0002ab6b       ?ManaPotionV@KNpcAttribModify@@AAEXPAVKNpc@@PAX@Z 1002bb6b f   KNpcAttribModify.obj
 0001:0002ac58       ?PhysicsResMaxP@KNpcAttribModify@@AAEXPAVKNpc@@PAX@Z 1002bc58 f   KNpcAttribModify.obj
 0001:0002acca       ?ColdResMaxP@KNpcAttribModify@@AAEXPAVKNpc@@PAX@Z 1002bcca f   KNpcAttribModify.obj
 0001:0002ad3c       ?FireResMaxP@KNpcAttribModify@@AAEXPAVKNpc@@PAX@Z 1002bd3c f   KNpcAttribModify.obj
 0001:0002adb8       ?LightingResMaxP@KNpcAttribModify@@AAEXPAVKNpc@@PAX@Z 1002bdb8 f   KNpcAttribModify.obj
 0001:0002ae2a       ?PoisonResMaxP@KNpcAttribModify@@AAEXPAVKNpc@@PAX@Z 1002be2a f   KNpcAttribModify.obj
 0001:0002ae9c       ?AllResMaxP@KNpcAttribModify@@AAEXPAVKNpc@@PAX@Z 1002be9c f   KNpcAttribModify.obj
 0001:0002af85       ?FatallyStrikeP@KNpcAttribModify@@AAEXPAVKNpc@@PAX@Z 1002bf85 f   KNpcAttribModify.obj
 0001:0002af99       ?MixPoisonDamage@KNpcAttribModify@@QAEXPAUKMagicAttrib@@0@Z 1002bf99 f   KNpcAttribModify.obj
 0001:0002b09d       ?AddPhysicsMagicV@KNpcAttribModify@@AAEXPAVKNpc@@PAX@Z 1002c09d f   KNpcAttribModify.obj
 0001:0002b131       ?AddColdMagicV@KNpcAttribModify@@AAEXPAVKNpc@@PAX@Z 1002c131 f   KNpcAttribModify.obj
 0001:0002b246       ?AddFireMagicV@KNpcAttribModify@@AAEXPAVKNpc@@PAX@Z 1002c246 f   KNpcAttribModify.obj
 0001:0002b2da       ?AddLightingMagicV@KNpcAttribModify@@AAEXPAVKNpc@@PAX@Z 1002c2da f   KNpcAttribModify.obj
 0001:0002b36e       ?AddPoisonMagicV@KNpcAttribModify@@AAEXPAVKNpc@@PAX@Z 1002c36e f   KNpcAttribModify.obj
 0001:0002b443       ?DynamicMagicShieldV@KNpcAttribModify@@AAEXPAVKNpc@@PAX@Z 1002c443 f   KNpcAttribModify.obj
 0001:0002b4bf       ?ReturnResP@KNpcAttribModify@@AAEXPAVKNpc@@PAX@Z 1002c4bf f   KNpcAttribModify.obj
 0001:0002b53b       ?ExpEnhanceP@KNpcAttribModify@@AAEXPAVKNpc@@PAX@Z 1002c53b f   KNpcAttribModify.obj
 0001:0002b5b7       ?PoisonDamageReturnP@KNpcAttribModify@@AAEXPAVKNpc@@PAX@Z 1002c5b7 f   KNpcAttribModify.obj
 0001:0002b633       ?ReturnSkillP@KNpcAttribModify@@AAEXPAVKNpc@@PAX@Z 1002c633 f   KNpcAttribModify.obj
 0001:0002b6af       ?AutoReplySkill@KNpcAttribModify@@AAEXPAVKNpc@@PAX@Z 1002c6af f   KNpcAttribModify.obj
 0001:0002b76e       ?LifeReplenishP@KNpcAttribModify@@AAEXPAVKNpc@@PAX@Z 1002c76e f   KNpcAttribModify.obj
 0001:0002b7ea       ?IgnoreSkillP@KNpcAttribModify@@AAEXPAVKNpc@@PAX@Z 1002c7ea f   KNpcAttribModify.obj
 0001:0002b866       ?AutoAttackSkill@KNpcAttribModify@@AAEXPAVKNpc@@PAX@Z 1002c866 f   KNpcAttribModify.obj
 0001:0002b8f4       ?Poison2DecManaP@KNpcAttribModify@@AAEXPAVKNpc@@PAX@Z 1002c8f4 f   KNpcAttribModify.obj
 0001:0002b9b3       ?SkillAppendSkill@KNpcAttribModify@@AAEXPAVKNpc@@PAX@Z 1002c9b3 f   KNpcAttribModify.obj
 0001:0002bbce       ?HideNpc@KNpcAttribModify@@AAEXPAVKNpc@@PAX@Z 1002cbce f   KNpcAttribModify.obj
 0001:0002bc4d       ?AutoDeathSkill@KNpcAttribModify@@AAEXPAVKNpc@@PAX@Z 1002cc4d f   KNpcAttribModify.obj
 0001:0002bcdb       ?RandMove@KNpcAttribModify@@AAEXPAVKNpc@@PAX@Z 1002ccdb f   KNpcAttribModify.obj
 0001:0002bd63       ?IgnoreNegativeStateP@KNpcAttribModify@@AAEXPAVKNpc@@PAX@Z 1002cd63 f   KNpcAttribModify.obj
 0001:0002be21       ?AutoRescueSkill@KNpcAttribModify@@AAEXPAVKNpc@@PAX@Z 1002ce21 f   KNpcAttribModify.obj
 0001:0002beaf       ?StaticMagicShieldP@KNpcAttribModify@@AAEXPAVKNpc@@PAX@Z 1002ceaf f   KNpcAttribModify.obj
 0001:0002bf30       ??0KNpcFindPath@@QAE@XZ    1002cf30 f   KNpcFindPath.obj
 0001:0002bf94       ?Init@KNpcFindPath@@QAEXH@Z 1002cf94 f   KNpcFindPath.obj
 0001:0002bff6       ?GetDir@KNpcFindPath@@QAEHHHHHHHPAH0@Z 1002cff6 f   KNpcFindPath.obj
 0001:0002c61d       ?Dir64To8@KNpcFindPath@@QAEHH@Z 1002d61d f   KNpcFindPath.obj
 0001:0002c63d       ?Dir8To64@KNpcFindPath@@QAEHH@Z 1002d63d f   KNpcFindPath.obj
 0001:0002c657       ?CheckDistance@KNpcFindPath@@QAEHHHHHH@Z 1002d657 f   KNpcFindPath.obj
 0001:0002c6b9       ?CheckBarrier@KNpcFindPath@@QAEHHH@Z 1002d6b9 f   KNpcFindPath.obj
 0001:0002c770       ?Init@KNpcGold@@QAEXH@Z    1002d770 f   KNpcGold.obj
 0001:0002c79e       ?Release@KNpcGold@@QAEXXZ  1002d79e f   KNpcGold.obj
 0001:0002c841       ?SetGoldType@KNpcGold@@QAEXH@Z 1002d841 f   KNpcGold.obj
 0001:0002c855       ?SetGoldTypeAndBackData@KNpcGold@@QAEXXZ 1002d855 f   KNpcGold.obj
 0001:0002c9a5       ?RecoverBackData@KNpcGold@@QAEXXZ 1002d9a5 f   KNpcGold.obj
 0001:0002ca39       ?UpdateNpcData@KNpcGold@@AAEXH@Z 1002da39 f   KNpcGold.obj
 0001:0002d701       ?GetGoldType@KNpcGold@@QAEHXZ 1002e701 f   KNpcGold.obj
 0001:0002d71e       ?SetGoldCurrentType@KNpcGold@@QAEXH@Z 1002e71e f   KNpcGold.obj
 0001:0002d7c4       ??0KNpcGoldTemplate@@QAE@XZ 1002e7c4 f   KNpcGold.obj
 0001:0002d803       ?Init@KNpcGoldTemplate@@QAEHXZ 1002e803 f   KNpcGold.obj
 0001:0002e260       ??0KNpcRes@@QAE@XZ         1002f260 f   KNpcRes.obj
 0001:0002e3c3       ?Init@KNpcRes@@QAEHPADPAVKNpcResList@@@Z 1002f3c3 f   KNpcRes.obj
 0001:0002e772       ?Remove@KNpcRes@@QAEXH@Z   1002f772 f   KNpcRes.obj
 0001:0002e7c8       ?Draw@KNpcRes@@QAEXHHHHH@Z 1002f7c8 f   KNpcRes.obj
 0001:0002f78c       ?GetShadowName@KNpcRes@@SAXPAD0@Z 1003078c f   KNpcRes.obj
 0001:0002f7a8       ??1KNpcRes@@QAE@XZ         100307a8 f   KNpcRes.obj
 0001:0002f7d2       ?SetHelm@KNpcRes@@QAEHH@Z  100307d2 f   KNpcRes.obj
 0001:0002f934       ?SetArmor@KNpcRes@@QAEHH@Z 10030934 f   KNpcRes.obj
 0001:0002fabc       ?SetWeapon@KNpcRes@@QAEHH@Z 10030abc f   KNpcRes.obj
 0001:000300ef       ?SetHorse@KNpcRes@@QAEHH@Z 100310ef f   KNpcRes.obj
 0001:0003025d       ?SetMantle@KNpcRes@@QAEHF@Z 1003125d f   KNpcRes.obj
 0001:000303f2       ?SetAction@KNpcRes@@QAEHH@Z 100313f2 f   KNpcRes.obj
 0001:00030a2d       ?SetRideHorse@KNpcRes@@QAEHH@Z 10031a2d f   KNpcRes.obj
 0001:0003105f       ?SetPos@KNpcRes@@QAEXHHHHHH@Z 1003205f f   KNpcRes.obj
 0001:000310e8       ?SetState@KNpcRes@@QAEXPAVKList@@PAVKNpcResList@@@Z 100320e8 f   KNpcRes.obj
 0001:000314ea       ?SetSpecialSpr@KNpcRes@@QAEXPAD@Z 100324ea f   KNpcRes.obj
 0001:000315b6       ?SetMenuStateSpr@KNpcRes@@AAEXH@Z 100325b6 f   KNpcRes.obj
 0001:000316ce       ?SetBlur@KNpcRes@@QAEXH@Z  100326ce f   KNpcRes.obj
 0001:00031726       ?GetSoundName@KNpcRes@@AAEXXZ 10032726 f   KNpcRes.obj
 0001:0003176a       ?PlaySoundA@KNpcRes@@AAEXHH@Z 1003276a f   KNpcRes.obj
 0001:00031899       ?GetSndVolume@KNpcRes@@QAEHH@Z 10032899 f   KNpcRes.obj
 0001:000318dc       ?StopSound@KNpcRes@@QAEXXZ 100328dc f   KNpcRes.obj
 0001:00031961       ?SetMenuState@KNpcRes@@QAEXHPADH@Z 10032961 f   KNpcRes.obj
 0001:000319f3       ?GetMenuState@KNpcRes@@QAEHXZ 100329f3 f   KNpcRes.obj
 0001:00031a25       ?SetSleepState@KNpcRes@@QAEXH@Z 10032a25 f   KNpcRes.obj
 0001:00031aa1       ?GetSleepState@KNpcRes@@QAEHXZ 10032aa1 f   KNpcRes.obj
 0001:00031ac4       ?DrawBorder@KNpcRes@@QAEXXZ 10032ac4 f   KNpcRes.obj
 0001:00031cb1       ?DrawMenuState@KNpcRes@@QAEHH@Z 10032cb1 f   KNpcRes.obj
 0001:00031e56       ?GetNormalNpcStandDir@KNpcRes@@QAEHH@Z 10032e56 f   KNpcRes.obj
 0001:00031ec9       ?GetSprNumFrames@KNpcRes@@QAEHPBDH@Z 10032ec9 f   KNpcRes.obj
 0001:00031f27       ?SetBlurSecMove@KNpcRes@@QAEXHHHH@Z 10032f27 f   KNpcRes.obj
 0001:00032092       ?RemoveBlurSecMove@KNpcRes@@QAEXH@Z 10033092 f   KNpcRes.obj
 0001:000320c2       ??0KStateSpr@@QAE@XZ       100330c2 f   KNpcRes.obj
 0001:000320f4       ?Release@KStateSpr@@QAEXXZ 100330f4 f   KNpcRes.obj
 0001:0003214c       ??0KNpcBlur@@QAE@XZ        1003314c f   KNpcRes.obj
 0001:00032188       ??1KNpcBlur@@QAE@XZ        10033188 f   KNpcRes.obj
 0001:0003219a       ?SetNextNo@KNpcBlur@@QAEXXZ 1003319a f   KNpcRes.obj
 0001:000321ce       ?SetMapPos@KNpcBlur@@QAEXHHHH@Z 100331ce f   KNpcRes.obj
 0001:00032266       ?ChangeAlpha@KNpcBlur@@QAEXXZ 10033266 f   KNpcRes.obj
 0001:000324c7       ?ClearCurNo@KNpcBlur@@QAEXXZ 100334c7 f   KNpcRes.obj
 0001:00032520       ?SetFile@KNpcBlur@@QAEXHPADHHHHH@Z 10033520 f   KNpcRes.obj
 0001:0003267c       ?Draw@KNpcBlur@@QAEXH@Z    1003367c f   KNpcRes.obj
 0001:000326da       ?NowGetBlur@KNpcBlur@@QAEHXZ 100336da f   KNpcRes.obj
 0001:000326fe       ?Init@KNpcBlur@@QAEHXZ     100336fe f   KNpcRes.obj
 0001:000327f8       ?Remove@KNpcBlur@@QAEXXZ   100337f8 f   KNpcRes.obj
 0001:00032885       ?Remove@KNpcBlur@@QAEXH@Z  10033885 f   KNpcRes.obj
 0001:00032993       ?AddObj@KNpcBlur@@QAEXXZ   10033993 f   KNpcRes.obj
 0001:000329a5       ?RemoveObj@KNpcBlur@@QAEXXZ 100339a5 f   KNpcRes.obj
 0001:000329c0       ?CheckExist@KSprControl@@QAEHXZ 100339c0 f i KNpcRes.obj
 0001:000329f0       ?GetNpcKind@KNpcResNode@@QAEHXZ 100339f0 f i KNpcRes.obj
 0001:00032a6b       ??0KNpcResList@@QAE@XZ     10033a6b f   KNpcResList.obj
 0001:00032ae6       ??1KNpcResList@@QAE@XZ     10033ae6 f   KNpcResList.obj
 0001:00032bb0       ?Init@KNpcResList@@QAEHXZ  10033bb0 f   KNpcResList.obj
 0001:00032c30       ?FindNpcRes@KNpcResList@@AAEPAVKNpcResNode@@PAD@Z 10033c30 f   KNpcResList.obj
 0001:00032cde       ?AddNpcRes@KNpcResList@@QAEPAVKNpcResNode@@PAD@Z 10033cde f   KNpcResList.obj
 0001:00032e20       ??0KNpcResNode@@QAE@XZ     10033e20 f   KNpcResNode.obj
 0001:00032f38       ??1KNpcResNode@@UAE@XZ     10033f38 f   KNpcResNode.obj
 0001:00032fef       ?Init@KNpcResNode@@QAEHPADPAVCActionName@@1@Z 10033fef f   KNpcResNode.obj
 0001:000348ca       ?ComposePathAndName@KNpcResNode@@QAEXPAD00@Z 100358ca f   KNpcResNode.obj
 0001:0003498f       ?CheckPartExist@KNpcResNode@@QAEHH@Z 1003598f f   KNpcResNode.obj
 0001:000349d2       ?GetFileName@KNpcResNode@@QAEHHHHPAD0H@Z 100359d2 f   KNpcResNode.obj
 0001:00034a34       ?GetInterval@KNpcResNode@@QAEHHHHH@Z 10035a34 f   KNpcResNode.obj
 0001:00034a81       ?GetTotalFrames@KNpcResNode@@QAEHHHHH@Z 10035a81 f   KNpcResNode.obj
 0001:00034ace       ?GetTotalDirs@KNpcResNode@@QAEHHHHH@Z 10035ace f   KNpcResNode.obj
 0001:00034b1b       ?GetActNo@KNpcResNode@@QAEHHHH@Z 10035b1b f   KNpcResNode.obj
 0001:00034b7b       ?GetSort@KNpcResNode@@QAEHHHHPAHH@Z 10035b7b f   KNpcResNode.obj
 0001:00034c23       ?GetActionSoundName@KNpcResNode@@QAEXHPAD@Z 10035c23 f   KNpcResNode.obj
 0001:00034c83       ?GetShadowName@KNpcResNode@@SAXPAD0@Z 10035c83 f   KNpcResNode.obj
 0001:00034d0d       ??0CActionName@@QAE@XZ     10035d0d f   KNpcResNode.obj
 0001:00034d6f       ?Init@CActionName@@QAEHPAD@Z 10035d6f f   KNpcResNode.obj
 0001:00034f6e       ?GetActionNo@CActionName@@QAEHPAD@Z 10035f6e f   KNpcResNode.obj
 0001:00034ff0       ?GetActionCount@CActionName@@QAEHXZ 10035ff0 f   KNpcResNode.obj
 0001:0003500b       ?GetActionName@CActionName@@QAEHHPADH@Z 1003600b f   KNpcResNode.obj
 0001:00035085       ??0CShadowFileName@@QAE@XZ 10036085 f   KNpcResNode.obj
 0001:000350ad       ??1CShadowFileName@@QAE@XZ 100360ad f   KNpcResNode.obj
 0001:00035101       ?Init@CShadowFileName@@QAEXH@Z 10036101 f   KNpcResNode.obj
 0001:000351a0       ?GetFile@CShadowFileName@@QAEHHPAH0000PAD@Z 100361a0 f   KNpcResNode.obj
 0001:00035268       ??0CStateMagicTable@@QAE@XZ 10036268 f   KNpcResNode.obj
 0001:0003532e       ?Init@CStateMagicTable@@QAEHXZ 1003632e f   KNpcResNode.obj
 0001:000356c2       ?GetInfo@CStateMagicTable@@QAEXHPADPAH111111@Z 100366c2 f   KNpcResNode.obj
 0001:000357df       ??0CRESINFO@@QAE@XZ        100367df f   KNpcResNode.obj
 0001:00035811       ??1CRESINFO@@QAE@XZ        10036811 f   KNpcResNode.obj
 0001:00035835       ?AutoDelete@CRESINFO@@QAEXXZ 10036835 f   KNpcResNode.obj
 0001:00035895       ?AutoNew@CRESINFO@@QAEHHH@Z 10036895 f   KNpcResNode.obj
 0001:000359a5       ?GetName@CRESINFO@@QAEHHHPAD0H@Z 100369a5 f   KNpcResNode.obj
 0001:00035a53       ?GetInterval@CRESINFO@@QAEHHHH@Z 10036a53 f   KNpcResNode.obj
 0001:00035aa6       ?GetTotalFrames@CRESINFO@@QAEHHHH@Z 10036aa6 f   KNpcResNode.obj
 0001:00035af8       ?GetTotalDirs@CRESINFO@@QAEHHHH@Z 10036af8 f   KNpcResNode.obj
 0001:00035b4b       ??0CEquipStyleTable@@QAE@XZ 10036b4b f   KNpcResNode.obj
 0001:00035b7d       ??1CEquipStyleTable@@QAE@XZ 10036b7d f   KNpcResNode.obj
 0001:00035ba1       ?AutoDelete@CEquipStyleTable@@QAEXXZ 10036ba1 f   KNpcResNode.obj
 0001:00035c01       ?AutoNew@CEquipStyleTable@@QAEHHH@Z 10036c01 f   KNpcResNode.obj
 0001:00035cb9       ?SetValue@CEquipStyleTable@@QAEXHHH@Z 10036cb9 f   KNpcResNode.obj
 0001:00035d08       ?GetValue@CEquipStyleTable@@QAEHHH@Z 10036d08 f   KNpcResNode.obj
 0001:00035d65       ??0CSortTable@@QAE@XZ      10036d65 f   KNpcResNode.obj
 0001:00035dd7       ??1CSortTable@@QAE@XZ      10036dd7 f   KNpcResNode.obj
 0001:00035dfb       ?Release@CSortTable@@AAEXXZ 10036dfb f   KNpcResNode.obj
 0001:00035e92       ?SortStrToNum@CSortTable@@AAEXPADPAHH@Z 10036e92 f   KNpcResNode.obj
 0001:00035ff1       ?GetTable@CSortTable@@QAEHPADPAVCActionName@@H@Z 10036ff1 f   KNpcResNode.obj
 0001:00036120       ?GetTable@CSortTable@@QAEHPAVKIniFile@@PAVCActionName@@H@Z 10037120 f   KNpcResNode.obj
 0001:0003699d       ?GetSort@CSortTable@@QAEHHHHPAHH@Z 1003799d f   KNpcResNode.obj
 0001:00036ec0       ??_EKNpcResNode@@UAEPAXI@Z 10037ec0 f i KNpcResNode.obj
 0001:00036ec0       ??_GKNpcResNode@@UAEPAXI@Z 10037ec0 f i KNpcResNode.obj
 0001:00036f00       ??0SACTTABLEOFF@@QAE@XZ    10037f00 f i KNpcResNode.obj
 0001:00036f30       ?Clear@SACTTABLEOFF@@QAEXXZ 10037f30 f i KNpcResNode.obj
 0001:00036f60       ??0SECTINFO@KNpcResNode@@QAE@XZ 10037f60 f i KNpcResNode.obj
 0001:00036f90       ?Clear@SECTINFO@KNpcResNode@@QAEXXZ 10037f90 f i KNpcResNode.obj
 0001:0003701b       ??0KNpcSet@@QAE@XZ         1003801b f   KNpcSet.obj
 0001:000370f4       ?Init@KNpcSet@@QAEXXZ      100380f4 f   KNpcSet.obj
 0001:00037260       ?LoadPlayerBaseValue@KNpcSet@@QAEXPAD@Z 10038260 f   KNpcSet.obj
 0001:00037494       ?IsNpcExist@KNpcSet@@QAEHHK@Z 10038494 f   KNpcSet.obj
 0001:000374c5       ?GenOneRelation@KNpcSet@@AAE?AW4NPC_RELATION@@W4NPCKIND@@0W4NPCCAMP@@1W4NPCFIGHT@@2@Z 100384c5 f   KNpcSet.obj
 0001:000375d1       ?GenRelationTable@KNpcSet@@AAEHXZ 100385d1 f   KNpcSet.obj
 0001:00037740       ?SearchID@KNpcSet@@QAEHK@Z 10038740 f   KNpcSet.obj
 0001:000377bd       ?SearchClientID@KNpcSet@@QAEHUKClientNpcID@@@Z 100387bd f   KNpcSet.obj
 0001:0003784e       ?SearchName@KNpcSet@@QAEHPAD@Z 1003884e f   KNpcSet.obj
 0001:000378e0       ?SearchNameID@KNpcSet@@QAEHK@Z 100388e0 f   KNpcSet.obj
 0001:0003799c       ?FindFree@KNpcSet@@AAEHXZ  1003899c f   KNpcSet.obj
 0001:000379d4       ?AddClientNpc@KNpcSet@@QAEHHHHHHH@Z 100389d4 f   KNpcSet.obj
 0001:00037b4b       ?Add@KNpcSet@@QAEHHHPAX@Z  10038b4b f   KNpcSet.obj
 0001:00037cb9       ?Add@KNpcSet@@QAEHHHHHH@Z  10038cb9 f   KNpcSet.obj
 0001:00037d5b       ?Add@KNpcSet@@QAEHHHHHHHHH@Z 10038d5b f   KNpcSet.obj
 0001:0003800c       ?Remove@KNpcSet@@QAEXH@Z   1003900c f   KNpcSet.obj
 0001:000380b1       ?RemoveAll@KNpcSet@@QAEXXZ 100390b1 f   KNpcSet.obj
 0001:000381ab       ?InsertNpcToRegion@KNpcSet@@QAEXH@Z 100391ab f   KNpcSet.obj
 0001:000382e1       ?GetDistance@KNpcSet@@SAHHH@Z 100392e1 f   KNpcSet.obj
 0001:00038594       ?GetDistanceSquare@KNpcSet@@SAHHH@Z 10039594 f   KNpcSet.obj
 0001:0003880f       ?GetNextIdx@KNpcSet@@QAEHH@Z 1003980f f   KNpcSet.obj
 0001:0003885e       ?CheckBalance@KNpcSet@@QAEXXZ 1003985e f   KNpcSet.obj
 0001:00038b73       ?GetAroundPlayerForTeamInvite@KNpcSet@@QAEHPAUKUiPlayerItem@@H@Z 10039b73 f   KNpcSet.obj
 0001:00038e38       ?GetAroundPlayer@KNpcSet@@QAEHPAUKUiPlayerItem@@H@Z 10039e38 f   KNpcSet.obj
 0001:00038ff1       ?SetShowNameFlag@KNpcSet@@QAEXH@Z 10039ff1 f   KNpcSet.obj
 0001:00039037       ?CheckShowName@KNpcSet@@QAEHXZ 1003a037 f   KNpcSet.obj
 0001:00039055       ?SetShowLifeFlag@KNpcSet@@QAEXH@Z 1003a055 f   KNpcSet.obj
 0001:0003909b       ?CheckShowLife@KNpcSet@@QAEHXZ 1003a09b f   KNpcSet.obj
 0001:000390b9       ?SetShowChatFlag@KNpcSet@@QAEXH@Z 1003a0b9 f   KNpcSet.obj
 0001:000390ff       ?CheckShowChat@KNpcSet@@QAEHXZ 1003a0ff f   KNpcSet.obj
 0001:0003911d       ?SetShowManaFlag@KNpcSet@@QAEXH@Z 1003a11d f   KNpcSet.obj
 0001:00039163       ?CheckShowMana@KNpcSet@@QAEHXZ 1003a163 f   KNpcSet.obj
 0001:00039181       ?AutoGetNpcNear@KNpcSet@@QAEHHHHHQAHHHH@Z 1003a181 f   KNpcSet.obj
 0001:00039359       ?GetDistanceMps@KNpcSet@@QAEHHHHH@Z 1003a359 f   KNpcSet.obj
 0001:000393b9       ?AutoGetPlayerPk@KNpcSet@@QAEHHHHH@Z 1003a3b9 f   KNpcSet.obj
 0001:00039536       ?ClearActivateFlagOfAllNpc@KNpcSet@@QAEXXZ 1003a536 f   KNpcSet.obj
 0001:000395a9       ?GetAroundOpenCaptain@KNpcSet@@QAEXH@Z 1003a5a9 f   KNpcSet.obj
 0001:00039808       ?SearchNpcAt@KNpcSet@@QAEHHHHH@Z 1003a808 f   KNpcSet.obj
 0001:000399eb       ?IsNpcRequestExist@KNpcSet@@QAEHK@Z 1003a9eb f   KNpcSet.obj
 0001:00039a1e       ?InsertNpcRequest@KNpcSet@@QAEXK@Z 1003aa1e f   KNpcSet.obj
 0001:00039b00       ?RemoveNpcRequest@KNpcSet@@QAEXK@Z 1003ab00 f   KNpcSet.obj
 0001:00039bcd       ?GetRequestIndex@KNpcSet@@QAEHK@Z 1003abcd f   KNpcSet.obj
 0001:00039c53       ?GetRelation@KNpcSet@@QAE?AW4NPC_RELATION@@HH@Z 1003ac53 f   KNpcSet.obj
 0001:0003a2b1       ??0KInstantSpecial@@QAE@XZ 1003b2b1 f   KNpcSet.obj
 0001:0003a345       ?LoadSprName@KInstantSpecial@@AAEXXZ 1003b345 f   KNpcSet.obj
 0001:0003a46a       ?LoadSoundName@KInstantSpecial@@AAEXXZ 1003b46a f   KNpcSet.obj
 0001:0003a5f9       ?GetSprName@KInstantSpecial@@QAEXHPADH@Z 1003b5f9 f   KNpcSet.obj
 0001:0003a697       ?PlaySoundA@KInstantSpecial@@QAEXH@Z 1003b697 f   KNpcSet.obj
 0001:0003a7b0       ??1KNpcSet@@QAE@XZ         1003b7b0 f i KNpcSet.obj
 0001:0003a870       ?GetEnmityPKAimNpcID@KPlayerPK@@QAEHXZ 1003b870 f i KNpcSet.obj
 0001:0003a890       ?GetExercisePKAim@KPlayerPK@@QAEHXZ 1003b890 f i KNpcSet.obj
 0001:0003a8b0       ?InitNpcBaseData@KNpcTemplate@@QAEXH@Z 1003b8b0 f   KNpcTemplate.obj
 0001:0003ace7       ?InitNpcLevelData@KNpcTemplate@@QAEXPAVKTabFile@@HPAVKLuaScript@@HH@Z 1003bce7 f   KNpcTemplate.obj
 0001:0003ae9b       ?GetNpcLevelDataFromScript@KNpcTemplate@@SAHPAVKLuaScript@@PADHH1@Z 1003be9b f   KNpcTemplate.obj
 0001:0003af88       ?GetNpcLevelDataFromScript@KNpcTemplate@@SAHPAVKLuaScript@@PADHHNNN@Z 1003bf88 f   KNpcTemplate.obj
 0001:0003b072       ?SkillString2Id@KNpcTemplate@@SAHPAD@Z 1003c072 f   KNpcTemplate.obj
 0001:0003b1e8       ??0KPlayer@@QAE@XZ         1003c1e8 f   KPlayer.obj
 0001:0003b2dc       ??1KPlayer@@QAE@XZ         1003c2dc f   KPlayer.obj
 0001:0003b36e       ?Release@KPlayer@@QAEXXZ   1003c36e f   KPlayer.obj
 0001:0003b622       ?SetPlayerIndex@KPlayer@@QAEXH@Z 1003c622 f   KPlayer.obj
 0001:0003b651       ?GetPlayerIndex@KPlayer@@QAEHXZ 1003c651 f   KPlayer.obj
 0001:0003b669       ?Active@KPlayer@@QAEXXZ    1003c669 f   KPlayer.obj
 0001:0003b85a       ?ProcessMsg@KPlayer@@QAEXPAVKWorldMsgNode@@@Z 1003c85a f   KPlayer.obj
 0001:0003b880       ?ProcessInputMsg@KPlayer@@QAEXIIJ@Z 1003c880 f   KPlayer.obj
 0001:0003badb       ?OnButtonDown@KPlayer@@AAEXHHHW4MOUSE_BUTTON@@@Z 1003cadb f   KPlayer.obj
 0001:0003bb41       ?OnButtonMove@KPlayer@@AAEXHHHW4MOUSE_BUTTON@@@Z 1003cb41 f   KPlayer.obj
 0001:0003bb84       ?OnButtonUp@KPlayer@@AAEXHHW4MOUSE_BUTTON@@@Z 1003cb84 f   KPlayer.obj
 0001:0003bba6       ?OnMouseMove@KPlayer@@AAEXHH@Z 1003cba6 f   KPlayer.obj
 0001:0003bd74       ?ProcessMouse@KPlayer@@AAEXHHHW4MOUSE_BUTTON@@@Z 1003cd74 f   KPlayer.obj
 0001:0003c3fe       ?Walk@KPlayer@@QAEXHH@Z    1003d3fe f   KPlayer.obj
 0001:0003c5e9       ?TurnLeft@KPlayer@@QAEXXZ  1003d5e9 f   KPlayer.obj
 0001:0003c68d       ?TurnRight@KPlayer@@QAEXXZ 1003d68d f   KPlayer.obj
 0001:0003c731       ?TurnBack@KPlayer@@QAEXXZ  1003d731 f   KPlayer.obj
 0001:0003c7e9       ?FindSelectNpc@KPlayer@@QAEXHHH@Z 1003d7e9 f   KPlayer.obj
 0001:0003c886       ?FindSelectObject@KPlayer@@QAEXHH@Z 1003d886 f   KPlayer.obj
 0001:0003c8e6       ?NetCommandPlayerTalk@KPlayer@@AAEHPAE@Z 1003d8e6 f   KPlayer.obj
 0001:0003c8fc       ?ConformIdx@KPlayer@@QAEHH@Z 1003d8fc f   KPlayer.obj
 0001:0003c92d       ?ResetBaseAttribute@KPlayer@@QAEXD@Z 1003d92d f   KPlayer.obj
 0001:0003cc40       ?CalcCurLucky@KPlayer@@AAEXXZ 1003dc40 f   KPlayer.obj
 0001:0003cc64       ?ChangeCurStrength@KPlayer@@QAEXH@Z 1003dc64 f   KPlayer.obj
 0001:0003cc9f       ?ChangeCurDexterity@KPlayer@@QAEXH@Z 1003dc9f f   KPlayer.obj
 0001:0003cd62       ?ChangeCurVitality@KPlayer@@QAEXH@Z 1003dd62 f   KPlayer.obj
 0001:0003ce17       ?ChangeCurEngergy@KPlayer@@QAEXH@Z 1003de17 f   KPlayer.obj
 0001:0003ce8b       ?AddBaseLucky@KPlayer@@QAEXH@Z 1003de8b f   KPlayer.obj
 0001:0003cec6       ?SetNpcPhysicsDamage@KPlayer@@AAEXXZ 1003dec6 f   KPlayer.obj
 0001:0003cffe       ?SetNpcAttackRating@KPlayer@@AAEXXZ 1003dffe f   KPlayer.obj
 0001:0003d054       ?SetNpcDefence@KPlayer@@AAEXXZ 1003e054 f   KPlayer.obj
 0001:0003d0ac       ?AddExp@KPlayer@@QAEXMHH@Z 1003e0ac f   KPlayer.obj
 0001:0003d0df       ?AddSelfExp@KPlayer@@QAEXHH@Z 1003e0df f   KPlayer.obj
 0001:0003d2a0       ?DirectAddExp@KPlayer@@QAEXH@Z 1003e2a0 f   KPlayer.obj
 0001:0003d326       ?LevelUp@KPlayer@@QAEXXZ   1003e326 f   KPlayer.obj
 0001:0003d892       ?UpdataCurData@KPlayer@@QAEXXZ 1003e892 f   KPlayer.obj
 0001:0003e2a4       ?ReCalcEquip@KPlayer@@QAEXXZ 1003f2a4 f   KPlayer.obj
 0001:0003e3db       ?ReCalcState@KPlayer@@QAEXXZ 1003f3db f   KPlayer.obj
 0001:0003e460       ?AddLeadExp@KPlayer@@QAEXH@Z 1003f460 f   KPlayer.obj
 0001:0003e536       ?LevelAddBaseLifeMax@KPlayer@@AAEXXZ 1003f536 f   KPlayer.obj
 0001:0003e5cc       ?LevelAddBaseStaminaMax@KPlayer@@AAEXXZ 1003f5cc f   KPlayer.obj
 0001:0003e678       ?LevelAddBaseManaMax@KPlayer@@AAEXXZ 1003f678 f   KPlayer.obj
 0001:0003e70e       ?ChangePlayerCamp@KPlayer@@QAEXH@Z 1003f70e f   KPlayer.obj
 0001:0003e748       ?ApplyTeamInfo@KPlayer@@QAEXK@Z 1003f748 f   KPlayer.obj
 0001:0003e7cc       ?ApplySelfTeamInfo@KPlayer@@QAEXXZ 1003f7cc f   KPlayer.obj
 0001:0003e806       ?ApplyCreateTeam@KPlayer@@QAEHXZ 1003f806 f   KPlayer.obj
 0001:0003e830       ?ApplyTeamOpenClose@KPlayer@@QAEHH@Z 1003f830 f   KPlayer.obj
 0001:0003e93d       ?ApplyAddTeam@KPlayer@@QAEXH@Z 1003f93d f   KPlayer.obj
 0001:0003eafe       ?AcceptTeamMember@KPlayer@@QAEXK@Z 1003fafe f   KPlayer.obj
 0001:0003ec12       ?TeamDropApplyOne@KPlayer@@QAEXK@Z 1003fc12 f   KPlayer.obj
 0001:0003ecb5       ?LeaveTeam@KPlayer@@QAEXXZ 1003fcb5 f   KPlayer.obj
 0001:0003ed38       ?TeamKickMember@KPlayer@@QAEXK@Z 1003fd38 f   KPlayer.obj
 0001:0003ede0       ?ApplyTeamChangeCaptain@KPlayer@@QAEXK@Z 1003fde0 f   KPlayer.obj
 0001:0003ee88       ?ApplyTeamDismiss@KPlayer@@QAEXXZ 1003fe88 f   KPlayer.obj
 0001:0003ef24       ?ApplySetPK@KPlayer@@QAEXH@Z 1003ff24 f   KPlayer.obj
 0001:0003efb1       ?ApplyFactionData@KPlayer@@QAEXXZ 1003ffb1 f   KPlayer.obj
 0001:0003f034       ?SendChat@KPlayer@@QAEXPAUKUiMsgParam@@PAD@Z 10040034 f   KPlayer.obj
 0001:0003f0ef       ?ApplyAddBaseAttribute@KPlayer@@QAEXHH@Z 100400ef f   KPlayer.obj
 0001:0003f19e       ?ApplyAddSkillLevel@KPlayer@@QAEHHH@Z 1004019e f   KPlayer.obj
 0001:0003f29c       ?ApplyUseItem@KPlayer@@QAEHHUItemPos@@@Z 1004029c f   KPlayer.obj
 0001:0003f69b       ?PickUpObj@KPlayer@@QAEXH@Z 1004069b f   KPlayer.obj
 0001:0003f886       ?ObjMouseClick@KPlayer@@QAEXH@Z 10040886 f   KPlayer.obj
 0001:0003f947       ?MoveItem@KPlayer@@QAEXUItemPos@@0@Z 10040947 f   KPlayer.obj
 0001:0003fd65       ?ThrowAwayItem@KPlayer@@QAEHXZ 10040d65 f   KPlayer.obj
 0001:000400eb       ?AutoThrowAwayItem@KPlayer@@QAEHH@Z 100410eb f   KPlayer.obj
 0001:000402a8       ?ChatAddFriend@KPlayer@@QAEXH@Z 100412a8 f   KPlayer.obj
 0001:00040335       ?ChatRefuseFriend@KPlayer@@QAEXH@Z 10041335 f   KPlayer.obj
 0001:000403c2       ?TradeApplyOpen@KPlayer@@QAEXPADH@Z 100413c2 f   KPlayer.obj
 0001:00040481       ?TradeApplyClose@KPlayer@@QAEXXZ 10041481 f   KPlayer.obj
 0001:00040512       ?TradeApplyStart@KPlayer@@QAEXH@Z 10041512 f   KPlayer.obj
 0001:0004065c       ?TradeMoveMoney@KPlayer@@QAEHH@Z 1004165c f   KPlayer.obj
 0001:00040743       ?TradeDecision@KPlayer@@QAEXH@Z 10041743 f   KPlayer.obj
 0001:00040814       ?TradeApplyLock@KPlayer@@QAEXH@Z 10041814 f   KPlayer.obj
 0001:000408d0       ?s2cApplyAddTeam@KPlayer@@QAEXPAE@Z 100418d0 f   KPlayer.obj
 0001:00040b67       ?TaskGetSaveVal@KPlayer@@QAEHH@Z 10041b67 f   KPlayer.obj
 0001:00040b97       ?TaskSetSaveVal@KPlayer@@QAEXHH@Z 10041b97 f   KPlayer.obj
 0001:00040c40       ?TaskGetClearVal@KPlayer@@QAEHH@Z 10041c40 f   KPlayer.obj
 0001:00040c70       ?TaskSetClearVal@KPlayer@@QAEXHH@Z 10041c70 f   KPlayer.obj
 0001:00040ca4       ?CheckRideHorse@KPlayer@@QAEXH@Z 10041ca4 f   KPlayer.obj
 0001:00040d7a       ?SetLevel@KPlayer@@QAEXE@Z 10041d7a f   KPlayer.obj
 0001:000415d6       ?RefeshPlayer@KPlayer@@QAEX_N@Z 100425d6 f   KPlayer.obj
 0001:0004163e       ?AddAllSkillPoint@KPlayer@@QAEXH@Z 1004263e f   KPlayer.obj
 0001:000416c9       ?AddSkillPoint@KPlayer@@QAEXHH@Z 100426c9 f   KPlayer.obj
 0001:0004186a       ?UpdateSkillPointAdd@KPlayer@@QAEXXZ 1004286a f   KPlayer.obj
 0001:000418eb       ?SetDefaultImmedSkill@KPlayer@@QAEXXZ 100428eb f   KPlayer.obj
 0001:000419bc       ?SetLeftSkill@KPlayer@@QAEXH@Z 100429bc f   KPlayer.obj
 0001:00041a32       ?SetRightSkill@KPlayer@@QAEXH@Z 10042a32 f   KPlayer.obj
 0001:00041b1a       ?UpdateWeaponSkill@KPlayer@@QAEXXZ 10042b1a f   KPlayer.obj
 0001:00041c15       ?SetChatCurChannel@KPlayer@@QAEXH@Z 10042c15 f   KPlayer.obj
 0001:00041c49       ?TeamInviteAdd@KPlayer@@QAEXK@Z 10042c49 f   KPlayer.obj
 0001:00041c79       ?ExecuteScript@KPlayer@@QAEHPAD0H@Z 10042c79 f   KPlayer.obj
 0001:00041ce4       ?ExecuteScript@KPlayer@@QAEHKPADH@Z 10042ce4 f   KPlayer.obj
 0001:00041f4b       ?ExecuteScript@KPlayer@@QAEHKPAD0@Z 10042f4b f   KPlayer.obj
 0001:000421e7       ?ExecuteScript@KPlayer@@QAEHPAD00@Z 100431e7 f   KPlayer.obj
 0001:00042261       ?ExecuteScript2@KPlayer@@QAEHPAD0HHH@Z 10043261 f   KPlayer.obj
 0001:000422d2       ?ExecuteScript2@KPlayer@@QAEHKPADHHH@Z 100432d2 f   KPlayer.obj
 0001:0004254e       ?ExecuteScript2@KPlayer@@QAEHPAD0H0H@Z 1004354e f   KPlayer.obj
 0001:000425bf       ?ExecuteScript2@KPlayer@@QAEHKPADH0H@Z 100435bf f   KPlayer.obj
 0001:0004283b       ?DoScriptAction@KPlayer@@QAEXPAUPLAYER_SCRIPTACTION_SYNC@@@Z 1004383b f   KPlayer.obj
 0001:0004287b       ?ProcessPlayerSelectFromUI@KPlayer@@QAEXPAE@Z 1004387b f   KPlayer.obj
 0001:00042a54       ?OnSelectFromUI@KPlayer@@QAEXPAUPLAYER_SELECTUI_COMMAND@@W4UIInfo@@@Z 10043a54 f   KPlayer.obj
 0001:00042d01       ?ChatFriendOnLine@KPlayer@@QAEXKH@Z 10043d01 f   KPlayer.obj
 0001:00042e4e       ?GetFactionName@KPlayer@@QAEXPADH@Z 10043e4e f   KPlayer.obj
 0001:00042e7e       ?OnScriptAction@KPlayer@@QAEXPAUPLAYER_SCRIPTACTION_SYNC@@@Z 10043e7e f   KPlayer.obj
 0001:000445b0       ?s2cTradeChangeState@KPlayer@@QAEXPAE@Z 100455b0 f   KPlayer.obj
 0001:00044aa0       ?s2cLevelUp@KPlayer@@QAEXPAE@Z 10045aa0 f   KPlayer.obj
 0001:00045434       ?s2cGetCurAttribute@KPlayer@@QAEXPAE@Z 10046434 f   KPlayer.obj
 0001:00045945       ?s2cSetExp@KPlayer@@QAEXH@Z 10046945 f   KPlayer.obj
 0001:00045a7b       ?s2cSyncMoney@KPlayer@@QAEXPAE@Z 10046a7b f   KPlayer.obj
 0001:00045c14       ?s2cTradeApplyStart@KPlayer@@QAEXPAE@Z 10046c14 f   KPlayer.obj
 0001:00045d10       ?s2cTradeMoneySync@KPlayer@@QAEXPAE@Z 10046d10 f   KPlayer.obj
 0001:00045d83       ?s2cTradeDecision@KPlayer@@QAEXPAE@Z 10046d83 f   KPlayer.obj
 0001:00045fd5       ?SyncCurPlayer@KPlayer@@QAEXPAE@Z 10046fd5 f   KPlayer.obj
 0001:00046556       ?CheckTrading@KPlayer@@QAEHXZ 10047556 f   KPlayer.obj
 0001:00046579       ?SetFirstDamage@KPlayer@@QAEXXZ 10047579 f   KPlayer.obj
 0001:000469c3       ?SetBaseAttackRating@KPlayer@@QAEXXZ 100479c3 f   KPlayer.obj
 0001:000469fa       ?SetBaseDefence@KPlayer@@QAEXXZ 100479fa f   KPlayer.obj
 0001:00046a2d       ?SetBaseResistData@KPlayer@@QAEXXZ 10047a2d f   KPlayer.obj
 0001:00046c51       ?SetBaseSpeedAndRadius@KPlayer@@QAEXXZ 10047c51 f   KPlayer.obj
 0001:00046cf9       ?DialogNpc@KPlayer@@QAEXH@Z 10047cf9 f   KPlayer.obj
 0001:00046dea       ?CheckObject@KPlayer@@QAEXH@Z 10047dea f   KPlayer.obj
 0001:00046eba       ?ShopApplyOpen@KPlayer@@QAEHXZ 10047eba f   KPlayer.obj
 0001:00047060       ?ShopApplyClose@KPlayer@@QAEHXZ 10048060 f   KPlayer.obj
 0001:0004714e       ?DrawSelectInfo@KPlayer@@QAEXXZ 1004814e f   KPlayer.obj
 0001:000472ae       ?GetEchoDamage@KPlayer@@QAEXPAH00H@Z 100482ae f   KPlayer.obj
 0001:00047d1f       ?SetNpcDamageAttrib@KPlayer@@QAEXXZ 10048d1f f   KPlayer.obj
 0001:00047d43       ?SetBronzeCoin@KPlayer@@QAEXH@Z 10048d43 f   KPlayer.obj
 0001:00047d60       ?GetBronzeCoin@KPlayer@@QAEHXZ 10048d60 f   KPlayer.obj
 0001:00047d78       ?SetLockBronzeCoin@KPlayer@@QAEXH@Z 10048d78 f   KPlayer.obj
 0001:00047d95       ?GetLockBronzeCoin@KPlayer@@QAEHXZ 10048d95 f   KPlayer.obj
 0001:00047dad       ?HideMask@KPlayer@@QAEXH@Z 10048dad f   KPlayer.obj
 0001:00047eb8       ?SetExpAddNo@KPlayer@@AAEXH@Z 10048eb8 f   KPlayer.obj
 0001:00047f3c       ?ClientSystemMsg@KPlayer@@QAEXPBD0@Z 10048f3c f   KPlayer.obj
 0001:00047f8e       ?SetAutoFlag@KPlayer@@QAEXH@Z 10048f8e f   KPlayer.obj
 0001:00047fae       ?SetStoreBoxNum@KPlayer@@QAEXE@Z 10048fae f   KPlayer.obj
 0001:00047fd3       ?SetExpandBoxNum@KPlayer@@QAEXE@Z 10048fd3 f   KPlayer.obj
 0001:00048000       ??0KPlayerAI@@QAE@XZ       10049000 f i KPlayer.obj
 0001:00048070       ??1KPlayerAI@@QAE@XZ       10049070 f i KPlayer.obj
 0001:000480a0       ??0KEquipmentArray@@QAE@XZ 100490a0 f i KPlayer.obj
 0001:000480e0       ??1KEquipmentArray@@QAE@XZ 100490e0 f i KPlayer.obj
 0001:00048110       ??0KAutoMove@@QAE@XZ       10049110 f i KPlayer.obj
 0001:00048130       ??0KPlayerChat@@QAE@XZ     10049130 f i KPlayer.obj
 0001:000481c0       ??1KPlayerChat@@QAE@XZ     100491c0 f i KPlayer.obj
 0001:00048250       ??1CChatFriendTeam@@QAE@XZ 10049250 f i KPlayer.obj
 0001:00048280       ?Clear@BuySellInfo@@QAEXXZ 10049280 f i KPlayer.obj
 0001:000482c0       ?IsCanInput@KNpc@@QAEHXZ   100492c0 f i KPlayer.obj
 0001:000482e0       ?GetWidth@KItem@@QBEEXZ    100492e0 f i KPlayer.obj
 0001:00048300       ?GetHeight@KItem@@QBEEXZ   10049300 f i KPlayer.obj
 0001:00048320       ?GetGenre@KItem@@QBEDXZ    10049320 f i KPlayer.obj
 0001:00048340       ?GetDetailType@KItem@@QBEFXZ 10049340 f i KPlayer.obj
 0001:00048360       ?GetParticular@KItem@@QAEFXZ 10049360 f i KPlayer.obj
 0001:00048380       ?GetMaxStackCount@KItem@@QBEHXZ 10049380 f i KPlayer.obj
 0001:000483a0       ?GetBindState@KItem@@QBEKXZ 100493a0 f i KPlayer.obj
 0001:000483c0       ?GetID@KItem@@QBEKXZ       100493c0 f i KPlayer.obj
 0001:000483e0       ?GetSkillIdxLevel@KSkillList@@QBEHH@Z 100493e0 f i KPlayer.obj
 0001:00048410       ?ResetSkillPointAdd@KSkillList@@QAEXH@Z 10049410 f i KPlayer.obj
 0001:00048440       ??_EKLuaScript@@UAEPAXI@Z  10049440 f i KPlayer.obj
 0001:00048440       ??_GKLuaScript@@UAEPAXI@Z  10049440 f i KPlayer.obj
 0001:00048490       ?GetBaseMagic@KItem@@QBEHXZ 10049490 f i KPlayer.obj
 0001:000484b0       ?FindSame@KEquipmentArray@@QAEHH@Z 100494b0 f   KPlayerAI.obj
 0001:0004851b       ?Init@KPlayerAI@@QAEXXZ    1004951b f   KPlayerAI.obj
 0001:0004853f       ?Release@KPlayerAI@@QAEXXZ 1004953f f   KPlayerAI.obj
 0001:00048b32       ?ResetAuto@KPlayerAI@@QAEXXZ 10049b32 f   KPlayerAI.obj
 0001:00048c35       ?SendAroundAuto@KPlayerAI@@QAEXH@Z 10049c35 f   KPlayerAI.obj
 0001:00048d5e       ?Active@KPlayerAI@@QAEXXZ  10049d5e f   KPlayerAI.obj
 0001:00049762       ?FindNearNpc2Array@KPlayerAI@@QAEHH@Z 1004a762 f   KPlayerAI.obj
 0001:00049922       ?AutoAddNpc2Array@KPlayerAI@@QAEHH@Z 1004a922 f   KPlayerAI.obj
 0001:0004a574       ?PlayerFollowActack@KPlayerAI@@QAEXH@Z 1004b574 f   KPlayerAI.obj
 0001:0004b15a       ?AutoReturn@KPlayerAI@@QAEHXZ 1004c15a f   KPlayerAI.obj
 0001:0004b348       ?PlayerMoveMps@KPlayerAI@@QAEHXZ 1004c348 f   KPlayerAI.obj
 0001:0004b6d1       ?MoveTo@KPlayerAI@@QAEXHH@Z 1004c6d1 f   KPlayerAI.obj
 0001:0004b81a       ?IsNotValidNpc@KPlayerAI@@QAEHH@Z 1004c81a f   KPlayerAI.obj
 0001:0004ba5e       ?DefensePlayer@KPlayerAI@@QAEHH@Z 1004ca5e f   KPlayerAI.obj
 0001:0004bc5e       ?CheckPlayerRider@KPlayerAI@@QAEXXZ 1004cc5e f   KPlayerAI.obj
 0001:0004bd5d       ?AutoBuffSkillState@KPlayerAI@@QAEHXZ 1004cd5d f   KPlayerAI.obj
 0001:0004bf24       ?AutoBuffEmi@KPlayerAI@@QAEHXZ 1004cf24 f   KPlayerAI.obj
 0001:0004c367       ?PlayerSwitchAura@KPlayerAI@@QAEXXZ 1004d367 f   KPlayerAI.obj
 0001:0004c40b       ?PlayerBuffWhenManaSmall@KPlayerAI@@QAEXXZ 1004d40b f   KPlayerAI.obj
 0001:0004c522       ?PlayerActiveFightHand@KPlayerAI@@QAEXXZ 1004d522 f   KPlayerAI.obj
 0001:0004c637       ?InviteParty@KPlayerAI@@QAEXXZ 1004d637 f   KPlayerAI.obj
 0001:0004c7fa       ?CheckPTList@KPlayerAI@@QAEHPBD@Z 1004d7fa f   KPlayerAI.obj
 0001:0004c891       ?IsRAPEquip@KPlayerAI@@QAEHH@Z 1004d891 f   KPlayerAI.obj
 0001:0004c8c0       ?IsEquipSatisfyCondition@KPlayerAI@@QAEHH@Z 1004d8c0 f   KPlayerAI.obj
 0001:0004c99a       ?PlayerFilterEquip@KPlayerAI@@QAEXXZ 1004d99a f   KPlayerAI.obj
 0001:0004d0fd       ?FindObjectNearPlayer@KPlayerAI@@QAEHXZ 1004e0fd f   KPlayerAI.obj
 0001:0004d967       ?FindNearObject2Array@KPlayerAI@@QAEHXZ 1004e967 f   KPlayerAI.obj
 0001:0004de46       ?IsNotValidObject@KPlayerAI@@QAEHH@Z 1004ee46 f   KPlayerAI.obj
 0001:0004dfcc       ?PlayerFollowObject@KPlayerAI@@QAEHH@Z 1004efcc f   KPlayerAI.obj
 0001:0004e254       ?PlayerEatAItem@KPlayerAI@@QAEHXZ 1004f254 f   KPlayerAI.obj
 0001:0004e859       ?PlayerUseItem@KPlayerAI@@QAEHH@Z 1004f859 f   KPlayerAI.obj
 0001:0004f187       ?EatFullBox@KPlayerAI@@QAEXXZ 10050187 f   KPlayerAI.obj
 0001:0004f2ca       ?RepairEquip@KPlayerAI@@QAEHXZ 100502ca f   KPlayerAI.obj
 0001:0004f55a       ?SaveMoney@KPlayerAI@@QAEHXZ 1005055a f   KPlayerAI.obj
 0001:0004f5d4       ?BackToMap@KPlayerAI@@QAEXXZ 100505d4 f   KPlayerAI.obj
 0001:0004f865       ?BackMapTrain@KPlayerAI@@QAEXXZ 10050865 f   KPlayerAI.obj
 0001:0004fbb2       ?MoveItemToBox@KPlayerAI@@QAEXXZ 10050bb2 f   KPlayerAI.obj
 0001:0005052b       ?PaintActionAuto@KPlayerAI@@QAEXHHHH@Z 1005152b f   KPlayerAI.obj
 0001:00050590       ?ClearArrayNpcLag@KPlayerAI@@QAEXXZ 10051590 f i KPlayerAI.obj
 0001:000505d0       ?ClearArrayTimeNpcLag@KPlayerAI@@QAEXXZ 100515d0 f i KPlayerAI.obj
 0001:00050610       ?ClearArrayInvitePlayer@KPlayerAI@@QAEXXZ 10051610 f i KPlayerAI.obj
 0001:00050650       ?ClearArrayTimeInvitePlayer@KPlayerAI@@QAEXXZ 10051650 f i KPlayerAI.obj
 0001:00050690       ?ClearArrayObjectLag@KPlayerAI@@QAEXXZ 10051690 f i KPlayerAI.obj
 0001:000506d0       ?ClearArrayTimeObjectLag@KPlayerAI@@QAEXXZ 100516d0 f i KPlayerAI.obj
 0001:00050710       ?ClearArrayObjectNeast@KPlayerAI@@QAEXXZ 10051710 f i KPlayerAI.obj
 0001:00050750       ?GetLeftSkill@KPlayer@@QAEHXZ 10051750 f i KPlayerAI.obj
 0001:00050770       ?GetRightSkill@KPlayer@@QAEHXZ 10051770 f i KPlayerAI.obj
 0001:00050790       ?GetHorseLimit@KSkill@@QBEHXZ 10051790 f i KPlayerAI.obj
 0001:000507b0       ?FindFreeInvitePlayer@KPlayerAI@@QAEHXZ 100517b0 f i KPlayerAI.obj
 0001:00050800       ?FindSameInvitePlayer@KPlayerAI@@QAEHH@Z 10051800 f i KPlayerAI.obj
 0001:00050860       ?GetLevel@KItem@@QBEEXZ    10051860 f i KPlayerAI.obj
 0001:00050880       ?GetBaseMagicAttribType@KItem@@QBEHH@Z 10051880 f i KPlayerAI.obj
 0001:000508b0       ?Release@KPlayerChat@@QAEXXZ 100518b0 f   KPlayerChat.obj
 0001:000509d3       ?CheckExist@KPlayerChat@@QAEHK@Z 100519d3 f   KPlayerChat.obj
 0001:00050a6f       ?CheckExist@KPlayerChat@@QAEHPAD@Z 10051a6f f   KPlayerChat.obj
 0001:00050b2b       ?GetFriendNode@KPlayerChat@@QAEPAVCChatFriend@@K@Z 10051b2b f   KPlayerChat.obj
 0001:00050bc5       ?GetTeamNo@KPlayerChat@@QAEHK@Z 10051bc5 f   KPlayerChat.obj
 0001:00050c7d       ?GetName@KPlayerChat@@QAEHKPAD@Z 10051c7d f   KPlayerChat.obj
 0001:00050d45       ?SetCurChannel@KPlayerChat@@QAEXHKH@Z 10051d45 f   KPlayerChat.obj
 0001:00050dff       ?AddChannel@KPlayerChat@@QAEXH@Z 10051dff f   KPlayerChat.obj
 0001:00050e9d       ?SubChannel@KPlayerChat@@QAEXH@Z 10051e9d f   KPlayerChat.obj
 0001:00050f2d       ?SendTakeChannel@KPlayerChat@@QAEXXZ 10051f2d f   KPlayerChat.obj
 0001:00050fbe       ?SendSentence@KPlayerChat@@QAEXPAUKUiMsgParam@@PAD@Z 10051fbe f   KPlayerChat.obj
 0001:00051225       ?QQSendSentence@KPlayerChat@@QAEXKHPAUKUiMsgParam@@PAD@Z 10052225 f   KPlayerChat.obj
 0001:00051405       ?SetTakeChannel@KPlayerChat@@QAEXK@Z 10052405 f   KPlayerChat.obj
 0001:00051437       ?GetChat@KPlayerChat@@QAEXPAUPLAYER_SEND_CHAT_DATA_SYNC@@@Z 10052437 f   KPlayerChat.obj
 0001:00051d16       ?ApplyAddFriend@KPlayerChat@@QAEXKPAD@Z 10052d16 f   KPlayerChat.obj
 0001:00051ebc       ?GetApplyOneInfo@KPlayerChat@@QAEHPAHPAD1@Z 10052ebc f   KPlayerChat.obj
 0001:00051f9e       ?SaveTeamInfo@KPlayerChat@@QAEXPAD@Z 10052f9e f   KPlayerChat.obj
 0001:000522d0       ?SaveTakeChannelInfo@KPlayerChat@@QAEXPAD@Z 100532d0 f   KPlayerChat.obj
 0001:00052449       ?LoadTakeChannelInfo@KPlayerChat@@QAEXPAD@Z 10053449 f   KPlayerChat.obj
 0001:0005265d       ?CheckTeamNo@KPlayerChat@@QAEHPAD0@Z 1005365d f   KPlayerChat.obj
 0001:000529fe       ?LoadTeamName@KPlayerChat@@QAEXPAD@Z 100539fe f   KPlayerChat.obj
 0001:00052c74       ?AddOne@KPlayerChat@@QAEXKHPADH@Z 10053c74 f   KPlayerChat.obj
 0001:00052da4       ?CheckIsFriend@KPlayerChat@@QAEHH@Z 10053da4 f   KPlayerChat.obj
 0001:00052e40       ?AddTeam@KPlayerChat@@QAEHPAD0@Z 10053e40 f   KPlayerChat.obj
 0001:00053074       ?RenameTeam@KPlayerChat@@QAEHHPAD0@Z 10054074 f   KPlayerChat.obj
 0001:00053229       ?DeleteTeam@KPlayerChat@@QAEHHPAD@Z 10054229 f   KPlayerChat.obj
 0001:000533f0       ?OneFriendChangeTeam@KPlayerChat@@QAEHKHH@Z 100543f0 f   KPlayerChat.obj
 0001:00053525       ?GetMsgOffLine@KPlayerChat@@QAEXK@Z 10054525 f   KPlayerChat.obj
 0001:00053651       ?CheckTakeChannel@KPlayerChat@@QAEHH@Z 10054651 f   KPlayerChat.obj
 0001:00053688       ?ApplyDeleteFriend@KPlayerChat@@QAEXKHPAD@Z 10054688 f   KPlayerChat.obj
 0001:000537fb       ?CheckTalkChannel@KPlayerChat@@QAEHH@Z 100547fb f   KPlayerChat.obj
 0001:00053832       ?SendSelectChannelList@KPlayerChat@@QAEHPAUKUiChatChannel@@H@Z 10054832 f   KPlayerChat.obj
 0001:00053ac2       ?SendTakeChannelList@KPlayerChat@@QAEHPAUKUiChatChannel@@H@Z 10054ac2 f   KPlayerChat.obj
 0001:00053d47       ?GetCurChannel@KPlayerChat@@QAEHPAUKUiChatChannel@@@Z 10054d47 f   KPlayerChat.obj
 0001:00053eed       ?IGetTeamInfo@KPlayerChat@@QAEHHPAUKUiChatGroupInfo@@@Z 10054eed f   KPlayerChat.obj
 0001:00053f94       ?IGetTeamFriendInfo@KPlayerChat@@QAEHHPAUKUiPlayerItem@@@Z 10054f94 f   KPlayerChat.obj
 0001:000540c4       ??0CChatFriendTeam@@QAE@XZ 100550c4 f   KPlayerChat.obj
 0001:0005410a       ?Release@CChatFriendTeam@@QAEXXZ 1005510a f   KPlayerChat.obj
 0001:000541bc       ?SetTime@KCHAT_RECORDER@@AAEXXZ 100551bc f   KPlayerChat.obj
 0001:0005426f       ?SaveSentenceSingle@KCHAT_RECORDER@@QAEXPAD000@Z 1005526f f   KPlayerChat.obj
 0001:000542c8       ?SaveSentenceChannel@KCHAT_RECORDER@@QAEXPAD00@Z 100552c8 f   KPlayerChat.obj
 0001:00054330       ??0PLAYER_SEND_CHAT_DATA_COMMAND@@QAE@XZ 10055330 f i KPlayerChat.obj
 0001:00054370       ?IsEmpty@KList@@QAEHXZ     10055370 f i KPlayerChat.obj
 0001:000543a0       ??0CChatFriend@@QAE@XZ     100553a0 f i KPlayerChat.obj
 0001:00054410       ?Release@CChatFriend@@QAEXXZ 10055410 f i KPlayerChat.obj
 0001:00054450       ??_GCChatFriend@@UAEPAXI@Z 10055450 f i KPlayerChat.obj
 0001:00054450       ??_ECChatFriend@@UAEPAXI@Z 10055450 f i KPlayerChat.obj
 0001:00054490       ??1CChatFriend@@UAE@XZ     10055490 f i KPlayerChat.obj
 0001:000544c0       ??0KPlayerFaction@@QAE@XZ  100554c0 f   KPlayerFaction.obj
 0001:000544e7       ?Release@KPlayerFaction@@QAEXXZ 100554e7 f   KPlayerFaction.obj
 0001:00054516       ?SetSeries@KPlayerFaction@@QAEXH@Z 10055516 f   KPlayerFaction.obj
 0001:0005452a       ?AddFaction@KPlayerFaction@@QAEHHPAD@Z 1005552a f   KPlayerFaction.obj
 0001:000545a5       ?AddFaction@KPlayerFaction@@QAEHHH@Z 100555a5 f   KPlayerFaction.obj
 0001:00054661       ?LeaveFaction@KPlayerFaction@@QAEXXZ 10055661 f   KPlayerFaction.obj
 0001:0005467c       ?OpenCurSkillLevel@KPlayerFaction@@QAEHHPAVKSkillList@@@Z 1005567c f   KPlayerFaction.obj
 0001:00054695       ?GetGurFactionCamp@KPlayerFaction@@QAEHXZ 10055695 f   KPlayerFaction.obj
 0001:000546f5       ?GetCurFactionNo@KPlayerFaction@@QAEHXZ 100556f5 f   KPlayerFaction.obj
 0001:0005470c       ?GetCurFactionName@KPlayerFaction@@QAEXPAD@Z 1005570c f   KPlayerFaction.obj
 0001:00054780       ??0KPlayerMenuState@@QAE@XZ 10055780 f   KPlayerMenuState.obj
 0001:000547a7       ?Release@KPlayerMenuState@@QAEXXZ 100557a7 f   KPlayerMenuState.obj
 0001:00054803       ?SetState@KPlayerMenuState@@QAEXH@Z 10055803 f   KPlayerMenuState.obj
 0001:0005482d       ?Init@KPlayerMenuStateGraph@@QAEHXZ 1005582d f   KPlayerMenuState.obj
 0001:00054942       ?GetStateSpr@KPlayerMenuStateGraph@@QAEXHPAD@Z 10055942 f   KPlayerMenuState.obj
 0001:000549a0       ?Init@KPlayerPK@@QAEXXZ    100559a0 f   KPlayerPK.obj
 0001:000549f2       ?Active@KPlayerPK@@QAEXXZ  100559f2 f   KPlayerPK.obj
 0001:00054a16       ?SetNormalPKState@KPlayerPK@@QAEXEH@Z 10055a16 f   KPlayerPK.obj
 0001:00054b4b       ?ApplySetNormalPKState@KPlayerPK@@QAEXE@Z 10055b4b f   KPlayerPK.obj
 0001:00054bd5       ?GetNormalPKState@KPlayerPK@@QAEEXZ 10055bd5 f   KPlayerPK.obj
 0001:00054bec       ?ApplyEnmityPK@KPlayerPK@@QAEXPAD@Z 10055bec f   KPlayerPK.obj
 0001:00054c56       ?ApplyEnmityPK@KPlayerPK@@QAEXH@Z 10055c56 f   KPlayerPK.obj
 0001:00054e80       ?SetEnmityPKState@KPlayerPK@@QAEXHHPAD@Z 10055e80 f   KPlayerPK.obj
 0001:000550bf       ?EnmityPKCountDown@KPlayerPK@@QAEXXZ 100560bf f   KPlayerPK.obj
 0001:000550fc       ?SetExercisePKState@KPlayerPK@@QAEXHHPAD@Z 100560fc f   KPlayerPK.obj
 0001:0005517e       ?SetPKValue@KPlayerPK@@QAEXD@Z 1005617e f   KPlayerPK.obj
 0001:00055261       ?ChangePKState@KPlayerPK@@QAEXE@Z 10056261 f   KPlayerPK.obj
 0001:000555b0       ?GetPKValue@KPlayerPK@@QBEDXZ 100565b0 f i KPlayerPK.obj
 0001:0005562b       ??0KPlayerSet@@QAE@XZ      1005662b f   KPlayerSet.obj
 0001:000556cb       ??1KPlayerSet@@QAE@XZ      100566cb f   KPlayerSet.obj
 0001:0005573d       ?Init@KPlayerSet@@QAEHXZ   1005673d f   KPlayerSet.obj
 0001:00055a8b       ?FindFree@KPlayerSet@@AAEHXZ 10056a8b f   KPlayerSet.obj
 0001:00055abd       ?FindSame@KPlayerSet@@QAEHK@Z 10056abd f   KPlayerSet.obj
 0001:00055b46       ?GetFirstPlayer@KPlayerSet@@QAEHXZ 10056b46 f   KPlayerSet.obj
 0001:00055b87       ?GetNextPlayer@KPlayerSet@@QAEHXZ 10056b87 f   KPlayerSet.obj
 0001:00055bda       ??0KLevelAdd@@QAE@XZ       10056bda f   KPlayerSet.obj
 0001:00055ca4       ?Init@KLevelAdd@@QAEHXZ    10056ca4 f   KPlayerSet.obj
 0001:00056087       ?GetLevelExp@KLevelAdd@@QAEHE@Z 10057087 f   KPlayerSet.obj
 0001:000560cd       ?GetLifePerLevel@KLevelAdd@@QAEHH@Z 100570cd f   KPlayerSet.obj
 0001:000560fe       ?GetStaminaPerLevel@KLevelAdd@@QAEHHH@Z 100570fe f   KPlayerSet.obj
 0001:00056144       ?GetManaPerLevel@KLevelAdd@@QAEHH@Z 10057144 f   KPlayerSet.obj
 0001:00056175       ?GetLifePerVitality@KLevelAdd@@QAEHH@Z 10057175 f   KPlayerSet.obj
 0001:000561a6       ?GetStaminaPerVitality@KLevelAdd@@QAEHH@Z 100571a6 f   KPlayerSet.obj
 0001:000561d7       ?GetManaPerEnergy@KLevelAdd@@QAEHH@Z 100571d7 f   KPlayerSet.obj
 0001:00056208       ?GetLeadExpShare@KLevelAdd@@QAEHH@Z 10057208 f   KPlayerSet.obj
 0001:00056239       ?GetFireResist@KLevelAdd@@QAEHHH@Z 10057239 f   KPlayerSet.obj
 0001:00056289       ?GetColdResist@KLevelAdd@@QAEHHH@Z 10057289 f   KPlayerSet.obj
 0001:000562d9       ?GetPoisonResist@KLevelAdd@@QAEHHH@Z 100572d9 f   KPlayerSet.obj
 0001:00056329       ?GetLightResist@KLevelAdd@@QAEHHH@Z 10057329 f   KPlayerSet.obj
 0001:00056379       ?GetPhysicsResist@KLevelAdd@@QAEHHH@Z 10057379 f   KPlayerSet.obj
 0001:000563c9       ??0KTeamLeadExp@@QAE@XZ    100573c9 f   KPlayerSet.obj
 0001:0005641c       ?Init@KTeamLeadExp@@QAEHXZ 1005741c f   KPlayerSet.obj
 0001:0005654f       ?GetLevel@KTeamLeadExp@@QAEHKH@Z 1005754f f   KPlayerSet.obj
 0001:000565eb       ?GetMemNumFromExp@KTeamLeadExp@@QAEHK@Z 100575eb f   KPlayerSet.obj
 0001:0005662d       ?GetMemNumFromLevel@KTeamLeadExp@@QAEHH@Z 1005762d f   KPlayerSet.obj
 0001:0005665e       ?GetLevelExp@KTeamLeadExp@@QAEHH@Z 1005765e f   KPlayerSet.obj
 0001:0005668c       ??0KNewPlayerAttribute@@QAE@XZ 1005768c f   KPlayerSet.obj
 0001:00056707       ?Init@KNewPlayerAttribute@@QAEHXZ 10057707 f   KPlayerSet.obj
 0001:00056a20       ??0KShop@@QAE@XZ           10057a20 f   KPlayerShop.obj
 0001:00056a47       ?Release@KShop@@QAEXXZ     10057a47 f   KPlayerShop.obj
 0001:00056af7       ?ApplyViewShop@KShop@@QAEXKH@Z 10057af7 f   KPlayerShop.obj
 0001:00056b8d       ?DeleteAll@KShop@@QAEXXZ   10057b8d f   KPlayerShop.obj
 0001:00056c86       ?GetData@KShop@@QAEXPAE@Z  10057c86 f   KPlayerShop.obj
 0001:00057003       ?FindID@KShop@@QAEKH@Z     10058003 f   KPlayerShop.obj
 0001:000570b1       ?UpdateData@KShop@@QAEXXZ  100580b1 f   KPlayerShop.obj
 0001:000570e0       ?SetID@KItem@@QAEXK@Z      100580e0 f i KPlayerShop.obj
 0001:00057100       ?SetStackCount@KItem@@QAEXH@Z 10058100 f i KPlayerShop.obj
 0001:00057120       ??0KPlayerTask@@QAE@XZ     10058120 f   KPlayerTask.obj
 0001:00057147       ?Release@KPlayerTask@@QAEXXZ 10058147 f   KPlayerTask.obj
 0001:0005718f       ?ClearTempVar@KPlayerTask@@QAEXXZ 1005818f f   KPlayerTask.obj
 0001:000571c3       ?GetSaveVal@KPlayerTask@@QAEHH@Z 100581c3 f   KPlayerTask.obj
 0001:000571f3       ?SetSaveVal@KPlayerTask@@QAEXHH@Z 100581f3 f   KPlayerTask.obj
 0001:00057224       ?GetClearVal@KPlayerTask@@QAEHH@Z 10058224 f   KPlayerTask.obj
 0001:00057258       ?SetClearVal@KPlayerTask@@QAEXHH@Z 10058258 f   KPlayerTask.obj
 0001:000572f3       ??0KPlayerTeam@@QAE@XZ     100582f3 f   KPlayerTeam.obj
 0001:0005732f       ?Release@KPlayerTeam@@QAEXXZ 1005832f f   KPlayerTeam.obj
 0001:0005738e       ?ReleaseList@KPlayerTeam@@QAEXXZ 1005838e f   KPlayerTeam.obj
 0001:000573df       ?ApplyCreate@KPlayerTeam@@QAEHXZ 100583df f   KPlayerTeam.obj
 0001:00057472       ?InviteAdd@KPlayerTeam@@QAEXK@Z 10058472 f   KPlayerTeam.obj
 0001:000574ee       ?ReceiveInvite@KPlayerTeam@@QAEXPAUTEAM_INVITE_ADD_SYNC@@@Z 100584ee f   KPlayerTeam.obj
 0001:00057672       ?ReplyInvite@KPlayerTeam@@QAEXHH@Z 10058672 f   KPlayerTeam.obj
 0001:00057719       ?SetAutoRefuseInvite@KPlayerTeam@@QAEXH@Z 10058719 f   KPlayerTeam.obj
 0001:000577d4       ?GetAutoRefuseState@KPlayerTeam@@QAEHXZ 100587d4 f   KPlayerTeam.obj
 0001:000577ec       ?GetInfo@KPlayerTeam@@QAEHPAUKUiPlayerTeam@@@Z 100587ec f   KPlayerTeam.obj
 0001:000578dd       ?UpdateInterface@KPlayerTeam@@QAEXXZ 100588dd f   KPlayerTeam.obj
 0001:00057935       ?DeleteOneFromApplyList@KPlayerTeam@@QAEXK@Z 10058935 f   KPlayerTeam.obj
 0001:0005799c       ??0KTeam@@QAE@XZ           1005899c f   KPlayerTeam.obj
 0001:000579c3       ?Release@KTeam@@QAEXXZ     100589c3 f   KPlayerTeam.obj
 0001:00057a79       ?SetIndex@KTeam@@QAEXH@Z   10058a79 f   KPlayerTeam.obj
 0001:00057a95       ?FindFree@KTeam@@QAEHXZ    10058a95 f   KPlayerTeam.obj
 0001:00057adf       ?FindMemberID@KTeam@@QAEHK@Z 10058adf f   KPlayerTeam.obj
 0001:00057b3a       ?SetTeamOpen@KTeam@@QAEHXZ 10058b3a f   KPlayerTeam.obj
 0001:00057b6f       ?SetTeamClose@KTeam@@QAEHXZ 10058b6f f   KPlayerTeam.obj
 0001:00057ba4       ?CalcCaptainPower@KTeam@@QAEHXZ 10058ba4 f   KPlayerTeam.obj
 0001:00057bd0       ?CreateTeam@KTeam@@QAEXHPADHK@Z 10058bd0 f   KPlayerTeam.obj
 0001:00057c27       ?AddMember@KTeam@@QAEHKHPAD@Z 10058c27 f   KPlayerTeam.obj
 0001:00057ce5       ?DeleteMember@KTeam@@QAEXK@Z 10058ce5 f   KPlayerTeam.obj
 0001:00057d88       ?GetMemberInfo@KTeam@@QAEHPAUKUiPlayerItem@@H@Z 10058d88 f   KPlayerTeam.obj
 0001:00057ec2       ?CheckIn@KTeam@@QAEHH@Z    10058ec2 f   KPlayerTeam.obj
 0001:00057f40       ??0KTeamApplyList@@QAE@XZ  10058f40 f i KPlayerTeam.obj
 0001:00057f70       ?Release@KTeamApplyList@@QAEXXZ 10058f70 f i KPlayerTeam.obj
 0001:00057fb0       ?Init@KPlayerTong@@QAEXH@Z 10058fb0 f   KPlayerTong.obj
 0001:00057fde       ?Clear@KPlayerTong@@QAEXXZ 10058fde f   KPlayerTong.obj
 0001:00058037       ?SendSystemMsg@KPlayerTong@@QAEXPBD@Z 10059037 f   KPlayerTong.obj
 0001:0005808b       ?ApplyCreateTong@KPlayerTong@@QAEHHPBD@Z 1005908b f   KPlayerTong.obj
 0001:00058386       ?ApplyAddTong@KPlayerTong@@QAEHK@Z 10059386 f   KPlayerTong.obj
 0001:0005847d       ?Create@KPlayerTong@@QAEXPAUTONG_CREATE_SYNC@@@Z 1005947d f   KPlayerTong.obj
 0001:00058584       ?AcceptMember@KPlayerTong@@QAEXHKH@Z 10059584 f   KPlayerTong.obj
 0001:0005861d       ?GetTongName@KPlayerTong@@QAEXPAD@Z 1005961d f   KPlayerTong.obj
 0001:00058667       ?GetTongTitle@KPlayerTong@@QAEXPAD@Z 10059667 f   KPlayerTong.obj
 0001:000586b1       ?AddTong@KPlayerTong@@QAEHHPAD00@Z 100596b1 f   KPlayerTong.obj
 0001:000587e7       ?ApplyInstate@KPlayerTong@@QAEHHHHHPAD@Z 100597e7 f   KPlayerTong.obj
 0001:00058a1d       ?ApplyKick@KPlayerTong@@QAEHHHPAD@Z 10059a1d f   KPlayerTong.obj
 0001:00058b5b       ?ApplyChangeMaster@KPlayerTong@@QAEHHHPAD@Z 10059b5b f   KPlayerTong.obj
 0001:00058c63       ?ApplyLeave@KPlayerTong@@QAEHXZ 10059c63 f   KPlayerTong.obj
 0001:00058da2       ?ApplyInfo@KPlayerTong@@QAEHHHHHPAD@Z 10059da2 f   KPlayerTong.obj
 0001:0005908b       ?GetTongNameID@KPlayerTong@@QAEKXZ 1005a08b f   KPlayerTong.obj
 0001:000590c4       ?CanGetManagerInfo@KPlayerTong@@QAEHK@Z 1005a0c4 f   KPlayerTong.obj
 0001:0005912e       ?CanGetMemberInfo@KPlayerTong@@QAEHK@Z 1005a12e f   KPlayerTong.obj
 0001:00059198       ?SetSelfInfo@KPlayerTong@@QAEXPAUTONG_SELF_INFO_SYNC@@@Z 1005a198 f   KPlayerTong.obj
 0001:0005932c       ?OpenCreateInterface@KPlayerTong@@QAEXXZ 1005a32c f   KPlayerTong.obj
 0001:00059356       ?ApplyChangeCamp@KPlayerTong@@QAEHH@Z 1005a356 f   KPlayerTong.obj
 0001:00059430       ?ApplyChangeMemberTitle@KPlayerTong@@QAEHPBDH@Z 1005a430 f   KPlayerTong.obj
 0001:00059526       ?ApplyChangeOneTitle@KPlayerTong@@QAEHPBDE0@Z 1005a526 f   KPlayerTong.obj
 0001:0005964f       ?ApplySaveMoney@KPlayerTong@@QAEHH@Z 1005a64f f   KPlayerTong.obj
 0001:00059772       ?ApplyGetMoney@KPlayerTong@@QAEHH@Z 1005a772 f   KPlayerTong.obj
 0001:00059880       ??0KTrade@@QAE@XZ          1005a880 f   KPlayerTrade.obj
 0001:000598a7       ?Release@KTrade@@QAEXXZ    1005a8a7 f   KPlayerTrade.obj
 0001:0005990f       ?StartTrade@KTrade@@QAEHHHH@Z 1005a90f f   KPlayerTrade.obj
 0001:000599e2       ?Lock@KTrade@@QAEXH@Z      1005a9e2 f   KPlayerTrade.obj
 0001:00059a1c       ?SetTradeState@KTrade@@QAEXHHHH@Z 1005aa1c f   KPlayerTrade.obj
 0001:00059c28       ?ReplyInvite@KTrade@@SAXIH@Z 1005ac28 f   KPlayerTrade.obj
 0001:00059d20       ??0KSprControl@@QAE@XZ     1005ad20 f   KSprControl.obj
 0001:00059d47       ?Release@KSprControl@@QAEXXZ 1005ad47 f   KSprControl.obj
 0001:00059dd7       ?SetSprFile@KSprControl@@QAEXPADHHH@Z 1005add7 f   KSprControl.obj
 0001:00059ed6       ?SetCurFrame@KSprControl@@QAEXH@Z 1005aed6 f   KSprControl.obj
 0001:00059f4b       ?SetDirFrame@KSprControl@@QAEXHH@Z 1005af4b f   KSprControl.obj
 0001:00059fd4       ?Set64DirFrame@KSprControl@@QAEXHH@Z 1005afd4 f   KSprControl.obj
 0001:0005a09c       ?SetCurDir@KSprControl@@QAEHH@Z 1005b09c f   KSprControl.obj
 0001:0005a105       ?SetCurDir64@KSprControl@@QAEHH@Z 1005b105 f   KSprControl.obj
 0001:0005a1b2       ?SetCenterPos@KSprControl@@QAEXHH@Z 1005b1b2 f   KSprControl.obj
 0001:0005a1d8       ?GetOneDirFrames@KSprControl@@QAEHXZ 1005b1d8 f   KSprControl.obj
 0001:0005a1f7       ?SetPos@KSprControl@@QAEXHH@Z 1005b1f7 f   KSprControl.obj
 0001:0005a21d       ?CheckEnd@KSprControl@@QAEHXZ 1005b21d f   KSprControl.obj
 0001:0005a25c       ?SetDirStart@KSprControl@@QAEXXZ 1005b25c f   KSprControl.obj
 0001:0005a296       ?SetDirEnd@KSprControl@@QAEXXZ 1005b296 f   KSprControl.obj
 0001:0005a2cc       ?GetCurDirFrameNo@KSprControl@@QAEHXZ 1005b2cc f   KSprControl.obj
 0001:0005a2fc       ?GetNextFrame@KSprControl@@QAEHH@Z 1005b2fc f   KSprControl.obj
 0001:0005a451       ?GetPrevFrame@KSprControl@@QAEHH@Z 1005b451 f   KSprControl.obj
 0001:0005a513       ?SetFileName@KSprControl@@QAEXPAD@Z 1005b513 f   KSprControl.obj
 0001:0005a569       ?SetTotalFrame@KSprControl@@QAEXH@Z 1005b569 f   KSprControl.obj
 0001:0005a58c       ?SetTotalDir@KSprControl@@QAEXH@Z 1005b58c f   KSprControl.obj
 0001:0005a5af       ?SetInterVal@KSprControl@@QAEXK@Z 1005b5af f   KSprControl.obj
 0001:0005a5d0       ?LoadRecord@@YAHPAVKTabFile@@HPBUtagPROPINFO@@H@Z 1005b5d0 f   KBasPropTbl.obj
 0001:0005a770       ??0KLibOfBPT@@QAE@XZ       1005b770 f   KBasPropTbl.obj
 0001:0005a95a       ??1KLibOfBPT@@QAE@XZ       1005b95a f   KBasPropTbl.obj
 0001:0005ab37       ?Init@KLibOfBPT@@QAEHXZ    1005bb37 f   KBasPropTbl.obj
 0001:0005acbc       ?InitMAIT@KLibOfBPT@@IAEHXZ 1005bcbc f   KBasPropTbl.obj
 0001:0005af36       ?InitMALib@KLibOfBPT@@IAEHXZ 1005bf36 f   KBasPropTbl.obj
 0001:0005b13f       ?GetCMAT@KLibOfBPT@@QBEPBVKBPT_ClassifiedMAT@@HH@Z 1005c13f f   KBasPropTbl.obj
 0001:0005b240       ?GetCMIT@KLibOfBPT@@QBEPBVKBPT_ClassMAIT@@HHHH@Z 1005c240 f   KBasPropTbl.obj
 0001:0005b3d8       ?FindMARecord@KLibOfBPT@@QBEPBUKMAGICATTRIB_TABFILE@@HHPAH@Z 1005c3d8 f   KBasPropTbl.obj
 0001:0005b410       ?GetMARecord@KLibOfBPT@@QBEPBUKMAGICATTRIB_TABFILE@@H@Z 1005c410 f   KBasPropTbl.obj
 0001:0005b440       ?GetMARecordNumber@KLibOfBPT@@QBE?BHXZ 1005c440 f   KBasPropTbl.obj
 0001:0005b46a       ?GetMeleeWeaponRecord@KLibOfBPT@@QBEPBUKBASICPROP_EQUIPMENT@@H@Z 1005c46a f   KBasPropTbl.obj
 0001:0005b494       ?GetMeleeWeaponRecordNumber@KLibOfBPT@@QBE?BHXZ 1005c494 f   KBasPropTbl.obj
 0001:0005b4b8       ?GetRangeWeaponRecord@KLibOfBPT@@QBEPBUKBASICPROP_EQUIPMENT@@H@Z 1005c4b8 f   KBasPropTbl.obj
 0001:0005b4e8       ?GetRangeWeaponRecordNumber@KLibOfBPT@@QBE?BHXZ 1005c4e8 f   KBasPropTbl.obj
 0001:0005b512       ?GetArmorRecord@KLibOfBPT@@QBEPBUKBASICPROP_EQUIPMENT@@H@Z 1005c512 f   KBasPropTbl.obj
 0001:0005b542       ?GetArmorRecordNumber@KLibOfBPT@@QBE?BHXZ 1005c542 f   KBasPropTbl.obj
 0001:0005b56c       ?GetHelmRecord@KLibOfBPT@@QBEPBUKBASICPROP_EQUIPMENT@@H@Z 1005c56c f   KBasPropTbl.obj
 0001:0005b59c       ?GetHelmRecordNumber@KLibOfBPT@@QBE?BHXZ 1005c59c f   KBasPropTbl.obj
 0001:0005b5c6       ?GetBootRecord@KLibOfBPT@@QBEPBUKBASICPROP_EQUIPMENT@@H@Z 1005c5c6 f   KBasPropTbl.obj
 0001:0005b5f6       ?GetBootRecordNumber@KLibOfBPT@@QBE?BHXZ 1005c5f6 f   KBasPropTbl.obj
 0001:0005b620       ?GetBeltRecord@KLibOfBPT@@QBEPBUKBASICPROP_EQUIPMENT@@H@Z 1005c620 f   KBasPropTbl.obj
 0001:0005b650       ?GetBeltRecordNumber@KLibOfBPT@@QBE?BHXZ 1005c650 f   KBasPropTbl.obj
 0001:0005b67a       ?GetAmuletRecord@KLibOfBPT@@QBEPBUKBASICPROP_EQUIPMENT@@H@Z 1005c67a f   KBasPropTbl.obj
 0001:0005b6aa       ?GetAmuletRecordNumber@KLibOfBPT@@QBE?BHXZ 1005c6aa f   KBasPropTbl.obj
 0001:0005b6d4       ?GetRingRecord@KLibOfBPT@@QBEPBUKBASICPROP_EQUIPMENT@@H@Z 1005c6d4 f   KBasPropTbl.obj
 0001:0005b704       ?GetRingRecordNumber@KLibOfBPT@@QBE?BHXZ 1005c704 f   KBasPropTbl.obj
 0001:0005b72e       ?GetCuffRecord@KLibOfBPT@@QBEPBUKBASICPROP_EQUIPMENT@@H@Z 1005c72e f   KBasPropTbl.obj
 0001:0005b75e       ?GetCuffRecordNumber@KLibOfBPT@@QBE?BHXZ 1005c75e f   KBasPropTbl.obj
 0001:0005b788       ?GetPendantRecord@KLibOfBPT@@QBEPBUKBASICPROP_EQUIPMENT@@H@Z 1005c788 f   KBasPropTbl.obj
 0001:0005b7b8       ?GetPendantRecordNumber@KLibOfBPT@@QBE?BHXZ 1005c7b8 f   KBasPropTbl.obj
 0001:0005b7e2       ?GetHorseRecord@KLibOfBPT@@QBEPBUKBASICPROP_EQUIPMENT@@H@Z 1005c7e2 f   KBasPropTbl.obj
 0001:0005b812       ?GetHorseRecordNumber@KLibOfBPT@@QBE?BHXZ 1005c812 f   KBasPropTbl.obj
 0001:0005b83c       ?GetMaskRecord@KLibOfBPT@@QBEPBUKBASICPROP_EQUIPMENT@@H@Z 1005c83c f   KBasPropTbl.obj
 0001:0005b86c       ?GetMaskRecordNumber@KLibOfBPT@@QBE?BHXZ 1005c86c f   KBasPropTbl.obj
 0001:0005b896       ?GetMantleRecord@KLibOfBPT@@QBEPBUKBASICPROP_EQUIPMENT@@H@Z 1005c896 f   KBasPropTbl.obj
 0001:0005b8c6       ?GetMantleRecordNumber@KLibOfBPT@@QBE?BHXZ 1005c8c6 f   KBasPropTbl.obj
 0001:0005b8f0       ?GetGoldEquipRecord@KLibOfBPT@@QBEPBUKBASICPROP_GOLD_EQUIPMENT@@H@Z 1005c8f0 f   KBasPropTbl.obj
 0001:0005b920       ?GetGoldEquipRecordNumber@KLibOfBPT@@QBE?BHXZ 1005c920 f   KBasPropTbl.obj
 0001:0005b94a       ?GetBrokenEquipRecord@KLibOfBPT@@QBEPBUKBASICPROP_BROKEN_EQUIPMENT@@H@Z 1005c94a f   KBasPropTbl.obj
 0001:0005b97a       ?GetBrokenEquipRecordNumber@KLibOfBPT@@QBE?BHXZ 1005c97a f   KBasPropTbl.obj
 0001:0005b9a4       ?GetMedicineRecord@KLibOfBPT@@QBEPBUKBASICPROP_MEDICINE@@H@Z 1005c9a4 f   KBasPropTbl.obj
 0001:0005b9d4       ?GetMedicineRecordNumber@KLibOfBPT@@QBE?BHXZ 1005c9d4 f   KBasPropTbl.obj
 0001:0005b9fe       ?FindQuestRecord@KLibOfBPT@@QBEPBUKBASICPROP_QUEST@@HPAH@Z 1005c9fe f   KBasPropTbl.obj
 0001:0005ba32       ?GetQuestRecord@KLibOfBPT@@QBEPBUKBASICPROP_QUEST@@H@Z 1005ca32 f   KBasPropTbl.obj
 0001:0005ba62       ?GetQuestRecordNumber@KLibOfBPT@@QBE?BHXZ 1005ca62 f   KBasPropTbl.obj
 0001:0005ba8c       ?FindScriptRecord@KLibOfBPT@@QBEPBUKBASICPROP_SCRIPT@@HPAH@Z 1005ca8c f   KBasPropTbl.obj
 0001:0005bac0       ?GetScriptRecord@KLibOfBPT@@QBEPBUKBASICPROP_SCRIPT@@H@Z 1005cac0 f   KBasPropTbl.obj
 0001:0005baf0       ?GetScriptRecordNumber@KLibOfBPT@@QBE?BHXZ 1005caf0 f   KBasPropTbl.obj
 0001:0005bb1a       ?FindMineRecord@KLibOfBPT@@QBEPBUKBASICPROP_MINE@@HPAH@Z 1005cb1a f   KBasPropTbl.obj
 0001:0005bb4e       ?GetMineRecord@KLibOfBPT@@QBEPBUKBASICPROP_MINE@@H@Z 1005cb4e f   KBasPropTbl.obj
 0001:0005bb7e       ?GetMineRecordNumber@KLibOfBPT@@QBE?BHXZ 1005cb7e f   KBasPropTbl.obj
 0001:0005bba8       ??0KBasicPropertyTable@@QAE@XZ 1005cba8 f   KBasPropTbl.obj
 0001:0005bbeb       ??1KBasicPropertyTable@@QAE@XZ 1005cbeb f   KBasPropTbl.obj
 0001:0005bc18       ?SetCount@KBasicPropertyTable@@IAEXH@Z 1005cc18 f   KBasPropTbl.obj
 0001:0005bcb0       ?GetMemory@KBasicPropertyTable@@IAEHXZ 1005ccb0 f   KBasPropTbl.obj
 0001:0005bdd1       ?ReleaseMemory@KBasicPropertyTable@@IAEXXZ 1005cdd1 f   KBasPropTbl.obj
 0001:0005be28       ?Load@KBasicPropertyTable@@UAEHXZ 1005ce28 f   KBasPropTbl.obj
 0001:0005c156       ??0KBPT_MagicAttrib_TF@@QAE@XZ 1005d156 f   KBasPropTbl.obj
 0001:0005c1b9       ??1KBPT_MagicAttrib_TF@@QAE@XZ 1005d1b9 f   KBasPropTbl.obj
 0001:0005c1e6       ?LoadRecord@KBPT_MagicAttrib_TF@@MAEHHPAVKTabFile@@@Z 1005d1e6 f   KBasPropTbl.obj
 0001:0005c62f       ?GetRecord@KBPT_MagicAttrib_TF@@QBEPBUKMAGICATTRIB_TABFILE@@H@Z 1005d62f f   KBasPropTbl.obj
 0001:0005c700       ?FindRecord@KBPT_MagicAttrib_TF@@QBEPBUKMAGICATTRIB_TABFILE@@HHPAH@Z 1005d700 f   KBasPropTbl.obj
 0001:0005c79d       ?GetMACount@KBPT_MagicAttrib_TF@@QBEXPAH@Z 1005d79d f   KBasPropTbl.obj
 0001:0005c841       ??0KBPT_ClassMAIT@@QAE@XZ  1005d841 f   KBasPropTbl.obj
 0001:0005c873       ??1KBPT_ClassMAIT@@QAE@XZ  1005d873 f   KBasPropTbl.obj
 0001:0005c8d1       ?Clear@KBPT_ClassMAIT@@QAEHXZ 1005d8d1 f   KBasPropTbl.obj
 0001:0005c8f2       ?Get@KBPT_ClassMAIT@@QBEHH@Z 1005d8f2 f   KBasPropTbl.obj
 0001:0005c9ca       ?Insert@KBPT_ClassMAIT@@QAEHH@Z 1005d9ca f   KBasPropTbl.obj
 0001:0005cb60       ??0KBPT_ClassifiedMAT@@QAE@XZ 1005db60 f   KBasPropTbl.obj
 0001:0005cb92       ??1KBPT_ClassifiedMAT@@QAE@XZ 1005db92 f   KBasPropTbl.obj
 0001:0005cbb6       ?GetMemory@KBPT_ClassifiedMAT@@QAEHH@Z 1005dbb6 f   KBasPropTbl.obj
 0001:0005ccfb       ?ReleaseMemory@KBPT_ClassifiedMAT@@IAEXXZ 1005dcfb f   KBasPropTbl.obj
 0001:0005cd4f       ?Set@KBPT_ClassifiedMAT@@QAEHH@Z 1005dd4f f   KBasPropTbl.obj
 0001:0005ce45       ?Get@KBPT_ClassifiedMAT@@QBEHH@Z 1005de45 f   KBasPropTbl.obj
 0001:0005cf10       ?GetAll@KBPT_ClassifiedMAT@@QBEHPAH0@Z 1005df10 f   KBasPropTbl.obj
 0001:0005d042       ??0KBPT_Equipment@@QAE@XZ  1005e042 f   KBasPropTbl.obj
 0001:0005d07c       ??1KBPT_Equipment@@QAE@XZ  1005e07c f   KBasPropTbl.obj
 0001:0005d0a9       ?Init@KBPT_Equipment@@QAEXH@Z 1005e0a9 f   KBasPropTbl.obj
 0001:0005d0e1       ?LoadRecord@KBPT_Equipment@@MAEHHPAVKTabFile@@@Z 1005e0e1 f   KBasPropTbl.obj
 0001:0005d778       ?GetRecord@KBPT_Equipment@@QBEPBUKBASICPROP_EQUIPMENT@@H@Z 1005e778 f   KBasPropTbl.obj
 0001:0005d849       ?FindRecord@KBPT_Equipment@@QBEPBUKBASICPROP_EQUIPMENT@@HHH@Z 1005e849 f   KBasPropTbl.obj
 0001:0005d94f       ??0KBPT_Gold_Equipment@@QAE@XZ 1005e94f f   KBasPropTbl.obj
 0001:0005d99d       ??1KBPT_Gold_Equipment@@QAE@XZ 1005e99d f   KBasPropTbl.obj
 0001:0005d9ca       ?LoadRecord@KBPT_Gold_Equipment@@MAEHHPAVKTabFile@@@Z 1005e9ca f   KBasPropTbl.obj
 0001:0005e124       ?GetRecord@KBPT_Gold_Equipment@@QBEPBUKBASICPROP_GOLD_EQUIPMENT@@H@Z 1005f124 f   KBasPropTbl.obj
 0001:0005e1f5       ?FindRecord@KBPT_Gold_Equipment@@QBEPBUKBASICPROP_GOLD_EQUIPMENT@@HHH@Z 1005f1f5 f   KBasPropTbl.obj
 0001:0005e292       ??0KBPT_Broken_Equipment@@QAE@XZ 1005f292 f   KBasPropTbl.obj
 0001:0005e2e0       ??1KBPT_Broken_Equipment@@QAE@XZ 1005f2e0 f   KBasPropTbl.obj
 0001:0005e30d       ?LoadRecord@KBPT_Broken_Equipment@@MAEHHPAVKTabFile@@@Z 1005f30d f   KBasPropTbl.obj
 0001:0005e478       ?GetRecord@KBPT_Broken_Equipment@@QBEPBUKBASICPROP_BROKEN_EQUIPMENT@@H@Z 1005f478 f   KBasPropTbl.obj
 0001:0005e549       ??0KBPT_Medicine@@QAE@XZ   1005f549 f   KBasPropTbl.obj
 0001:0005e597       ??1KBPT_Medicine@@QAE@XZ   1005f597 f   KBasPropTbl.obj
 0001:0005e5c4       ?LoadRecord@KBPT_Medicine@@MAEHHPAVKTabFile@@@Z 1005f5c4 f   KBasPropTbl.obj
 0001:0005e8fb       ?GetRecord@KBPT_Medicine@@QBEPBUKBASICPROP_MEDICINE@@H@Z 1005f8fb f   KBasPropTbl.obj
 0001:0005e9cc       ?FindRecord@KBPT_Medicine@@QBEPBUKBASICPROP_MEDICINE@@HH@Z 1005f9cc f   KBasPropTbl.obj
 0001:0005ea8d       ??0KBPT_Quest@@QAE@XZ      1005fa8d f   KBasPropTbl.obj
 0001:0005eadb       ??1KBPT_Quest@@QAE@XZ      1005fadb f   KBasPropTbl.obj
 0001:0005eb08       ?LoadRecord@KBPT_Quest@@MAEHHPAVKTabFile@@@Z 1005fb08 f   KBasPropTbl.obj
 0001:0005ece5       ?GetRecord@KBPT_Quest@@QBEPBUKBASICPROP_QUEST@@H@Z 1005fce5 f   KBasPropTbl.obj
 0001:0005edb6       ?FindRecord@KBPT_Quest@@QBEPBUKBASICPROP_QUEST@@HPAH@Z 1005fdb6 f   KBasPropTbl.obj
 0001:0005ee74       ??0KBPT_Script@@QAE@XZ     1005fe74 f   KBasPropTbl.obj
 0001:0005eec2       ??1KBPT_Script@@QAE@XZ     1005fec2 f   KBasPropTbl.obj
 0001:0005eeef       ?LoadRecord@KBPT_Script@@MAEHHPAVKTabFile@@@Z 1005feef f   KBasPropTbl.obj
 0001:0005f137       ?GetRecord@KBPT_Script@@QBEPBUKBASICPROP_SCRIPT@@H@Z 10060137 f   KBasPropTbl.obj
 0001:0005f208       ?FindRecord@KBPT_Script@@QBEPBUKBASICPROP_SCRIPT@@HPAH@Z 10060208 f   KBasPropTbl.obj
 0001:0005f285       ??0KBPT_Mine@@QAE@XZ       10060285 f   KBasPropTbl.obj
 0001:0005f2d3       ??1KBPT_Mine@@QAE@XZ       100602d3 f   KBasPropTbl.obj
 0001:0005f300       ?LoadRecord@KBPT_Mine@@MAEHHPAVKTabFile@@@Z 10060300 f   KBasPropTbl.obj
 0001:0005f4dd       ?GetRecord@KBPT_Mine@@QBEPBUKBASICPROP_MINE@@H@Z 100604dd f   KBasPropTbl.obj
 0001:0005f5ae       ?FindRecord@KBPT_Mine@@QBEPBUKBASICPROP_MINE@@HPAH@Z 100605ae f   KBasPropTbl.obj
 0001:0005f670       ?NumOfEntries@KBasicPropertyTable@@QBEHXZ 10060670 f i KBasPropTbl.obj
 0001:0005f6eb       ??0KBuySell@@QAE@XZ        100606eb f   KBuySell.obj
 0001:0005f756       ??1KBuySell@@QAE@XZ        10060756 f   KBuySell.obj
 0001:0005f94e       ?Init@KBuySell@@QAEHXZ     1006094e f   KBuySell.obj
 0001:000605cb       ?GetItem@KBuySell@@QAEPAVKItem@@H@Z 100615cb f   KBuySell.obj
 0001:0006060e       ?GetItemIndex@KBuySell@@QAEHHH@Z 1006160e f   KBuySell.obj
 0001:00060675       ?PaintItem@KBuySell@@QAEXHHH@Z 10061675 f   KBuySell.obj
 0001:00060706       ?OpenSale@KBuySell@@QAEXH@Z 10061706 f   KBuySell.obj
 0001:000607b0       ??_GKInventory@@QAEPAXI@Z  100617b0 f i KBuySell.obj
 0001:000607f0       ??_EKItem@@QAEPAXI@Z       100617f0 f i KBuySell.obj
 0001:00060880       ?SetDisCountPrice@KItem@@QAEXE@Z 10061880 f i KBuySell.obj
 0001:000608a0       ?SetDaySell@KItem@@QAEXE@Z 100618a0 f i KBuySell.obj
 0001:000608c0       ?SetHotSell@KItem@@QAEXH@Z 100618c0 f i KBuySell.obj
 0001:000608e0       ??0KInventory@@QAE@XZ      100618e0 f   KInventory.obj
 0001:00060912       ??1KInventory@@QAE@XZ      10061912 f   KInventory.obj
 0001:00060936       ?Init@KInventory@@QAEHHH@Z 10061936 f   KInventory.obj
 0001:000609e5       ?Release@KInventory@@QAEXXZ 100619e5 f   KInventory.obj
 0001:00060a4d       ?Clear@KInventory@@QAEXXZ  10061a4d f   KInventory.obj
 0001:00060a9c       ?PlaceItem@KInventory@@QAEHHHHHH@Z 10061a9c f   KInventory.obj
 0001:00060c39       ?HoldItem@KInventory@@QAEHHHH@Z 10061c39 f   KInventory.obj
 0001:00060cda       ?PickUpItem@KInventory@@QAEHHHHHH@Z 10061cda f   KInventory.obj
 0001:00060e33       ?FindItem@KInventory@@QAEHHH@Z 10061e33 f   KInventory.obj
 0001:00060ef5       ?FindRoom@KInventory@@QAEHHHPAUtagPOINT@@@Z 10061ef5 f   KInventory.obj
 0001:00060fec       ?FindFreeCell@KInventory@@QAEHHH@Z 10061fec f   KInventory.obj
 0001:000610d5       ?CheckRoom@KInventory@@QAEHHHHH@Z 100620d5 f   KInventory.obj
 0001:000611e7       ?AddMoney@KInventory@@QAEHH@Z 100621e7 f   KInventory.obj
 0001:00061220       ?GetNextItem@KInventory@@QAEHHHHPAH0@Z 10062220 f   KInventory.obj
 0001:0006132d       ?CalcSameDetailType@KInventory@@QAEHHH@Z 1006232d f   KInventory.obj
 0001:00061452       ?FindSameDetailType@KInventory@@QAEHHHPAH00@Z 10062452 f   KInventory.obj
 0001:0006155b       ?CheckSameDetailType@KInventory@@QAEHHH@Z 1006255b f   KInventory.obj
 0001:00061620       ?GetEmptyCellNum@KInventory@@QAEHXZ 10062620 f   KInventory.obj
 0001:000616ea       ?GetSameItemNum@KInventory@@QAEHHHHHH@Z 100626ea f   KInventory.obj
 0001:00061b50       ?GetSeries@KItem@@QBEDXZ   10062b50 f i KInventory.obj
 0001:00061b70       ?GetStackCount@KItem@@QBEHXZ 10062b70 f i KInventory.obj
 0001:00061c0e       ??0KItem@@QAE@XZ           10062c0e f   KItem.obj
 0001:00061c93       ??1KItem@@QAE@XZ           10062c93 f   KItem.obj
 0001:00061cb7       ?Remove@KItem@@QAEXXZ      10062cb7 f   KItem.obj
 0001:00061cdb       ?SetGeneratorLevel@KItem@@QAEXPBH@Z 10062cdb f   KItem.obj
 0001:00061d2f       ?GetRequirement@KItem@@QAEPAXH@Z 10062d2f f   KItem.obj
 0001:00061d6f       ?ApplyMagicAttribToNPC@KItem@@QBEXPAVKNpc@@H@Z 10062d6f f   KItem.obj
 0001:00061f13       ?RemoveMagicAttribFromNPC@KItem@@QBEXPAVKNpc@@H@Z 10062f13 f   KItem.obj
 0001:0006217e       ?ApplyHiddenMagicAttribToNPC@KItem@@QBEXPAVKNpc@@H@Z 1006317e f   KItem.obj
 0001:00062219       ?RemoveHiddenMagicAttribFromNPC@KItem@@QBEXPAVKNpc@@H@Z 10063219 f   KItem.obj
 0001:000622ee       ?SetAttrib_CBR@KItem@@AAEHPBUKBASICPROP_EQUIPMENT@@@Z 100632ee f   KItem.obj
 0001:00062395       ?SetAttrib_CBR@KItem@@AAEHPBUKBASICPROP_GOLD_EQUIPMENT@@@Z 10063395 f   KItem.obj
 0001:0006243c       ?SetAttrib_Base@KItem@@AAEHPBUKEQCP_BASIC@@@Z 1006343c f   KItem.obj
 0001:0006252b       ?SetAttrib_Req@KItem@@AAEHPBUKEQCP_REQ@@@Z 1006352b f   KItem.obj
 0001:000625bd       ?SetAttrib_MA@KItem@@AAEHPBUKMagicAttrib@@@Z 100635bd f   KItem.obj
 0001:000626a6       ?SetAttrib_ExtraMA@KItem@@AAEHPBUKMagicAttrib@@@Z 100636a6 f   KItem.obj
 0001:00062781       ?SetAttrib_MA@KItem@@AAEHPBUKMACP@@@Z 10063781 f   KItem.obj
 0001:000628b2       ??4KItem@@AAEXABUKBASICPROP_EQUIPMENT@@@Z 100638b2 f   KItem.obj
 0001:000629f3       ??4KItem@@AAEXABUKBASICPROP_GOLD_EQUIPMENT@@@Z 100639f3 f   KItem.obj
 0001:00062b9d       ??4KItem@@AAEXABUKBASICPROP_BROKEN_EQUIPMENT@@@Z 10063b9d f   KItem.obj
 0001:00062caa       ??4KItem@@AAEXABUKBASICPROP_MEDICINE@@@Z 10063caa f   KItem.obj
 0001:00062e7e       ??4KItem@@AAEXABUKBASICPROP_QUEST@@@Z 10063e7e f   KItem.obj
 0001:00063015       ??4KItem@@AAEXABUKBASICPROP_SCRIPT@@@Z 10064015 f   KItem.obj
 0001:000631f1       ??4KItem@@AAEXABUKBASICPROP_MINE@@@Z 100641f1 f   KItem.obj
 0001:00063388       ?SetBaseAttrib@KItem@@QAEHPBUKMagicAttrib@@@Z 10064388 f   KItem.obj
 0001:0006340d       ?SetRequireAttrib@KItem@@QAEHPBUKMagicAttrib@@@Z 1006440d f   KItem.obj
 0001:00063492       ?SetMagicAttrib@KItem@@QAEHPBUKMagicAttrib@@@Z 10064492 f   KItem.obj
 0001:000634bc       ?Abrade@KItem@@QAEHH@Z     100644bc f   KItem.obj
 0001:0006353b       ?Paint@KItem@@QAEXHHH@Z    1006453b f   KItem.obj
 0001:0006366d       ?GetDesc@KItem@@QAEXPAD_NHH@Z 1006466d f   KItem.obj
 0001:00065071       ?GetMaxDurability@KItem@@QAEHXZ 10066071 f   KItem.obj
 0001:000650ce       ?GetTotalMagicLevel@KItem@@QAEHXZ 100660ce f   KItem.obj
 0001:00065127       ?GetRepairPrice@KItem@@QAEHXZ 10066127 f   KItem.obj
 0001:00065258       ?CanBeRepaired@KItem@@QAEHXZ 10066258 f   KItem.obj
 0001:00065339       ?GetRequireSeries@KItem@@QBEPADD@Z 10066339 f   KItem.obj
 0001:000653a9       ?SetPrice@KItem@@QAEXHE@Z  100663a9 f   KItem.obj
 0001:000653d2       ?GetPrice@KItem@@QBEHHPBDH@Z 100663d2 f   KItem.obj
 0001:00065444       ?GetPriceDesc@KItem@@QBEXDHPBD0PAD@Z 10066444 f   KItem.obj
 0001:00065637       ?SetPlayerShopPrice@KItem@@QAEXH@Z 10066637 f   KItem.obj
 0001:00065657       ?GetMagicAttrib@KItem@@QBEHEE@Z 10066657 f   KItem.obj
 0001:00065759       ?SetBrokenEquip@KItem@@QAEXPBUKBASICPROP_BROKEN_EQUIPMENT@@@Z 10066759 f   KItem.obj
 0001:00065828       ?CanStack@KItem@@QAEHXZ    10066828 f   KItem.obj
 0001:00065869       ?SetBindState@KItem@@QAEXKH@Z 10066869 f   KItem.obj
 0001:000658a9       ?SetTime@KItem@@QAEXKH@Z   100668a9 f   KItem.obj
 0001:000658f7       ?GetTime@KItem@@QBEKH@Z    100668f7 f   KItem.obj
 0001:00065914       ?DecodeTime@KItem@@QAEHPAH0000H@Z 10066914 f   KItem.obj
 0001:00065a27       ?GetTimeDesc@KItem@@QAEXPADH@Z 10066a27 f   KItem.obj
 0001:00065af8       ?GetSuiteNo@KItem@@QBEHXZ  10066af8 f   KItem.obj
 0001:00065b47       ?GetSuiteId@KItem@@QBEHXZ  10066b47 f   KItem.obj
 0001:00065ba0       ?GetSuiteCount@KItem@@QBEHXZ 10066ba0 f   KItem.obj
 0001:00065bf9       ?GetSuiteDesc@KItem@@QAEXPAD@Z 10066bf9 f   KItem.obj
 0001:00065d50       ?Release@KItem@@AAEXXZ     10066d50 f i KItem.obj
 0001:00065e90       ?SetDurability@KItem@@QAEXH@Z 10066e90 f i KItem.obj
 0001:00065eb0       ?GetDurability@KItem@@QBEHXZ 10066eb0 f i KItem.obj
 0001:00065f2b       ?Init@KItemChangeRes@@QAEHXZ 10066f2b f   KItemChangeRes.obj
 0001:0006603d       ?GetWeaponRes@KItemChangeRes@@QAEHHH@Z 1006703d f   KItemChangeRes.obj
 0001:00066107       ?GetArmorRes@KItemChangeRes@@QAEHH@Z 10067107 f   KItemChangeRes.obj
 0001:00066195       ?GetHelmRes@KItemChangeRes@@QAEHH@Z 10067195 f   KItemChangeRes.obj
 0001:00066223       ?GetHorseRes@KItemChangeRes@@QAEHH@Z 10067223 f   KItemChangeRes.obj
 0001:000662b5       ?GetGoldEquipRes@KItemChangeRes@@QAEHH@Z 100672b5 f   KItemChangeRes.obj
 0001:00066340       ??1KItemChangeRes@@QAE@XZ  10067340 f i KItemChangeRes.obj
 0001:00066420       ??0KItemChangeRes@@QAE@XZ  10067420 f i KItemChangeRes.obj
 0001:00066641       ??0KItemGenerator@@QAE@XZ  10067641 f   KItemGenerator.obj
 0001:00066668       ??1KItemGenerator@@QAE@XZ  10067668 f   KItemGenerator.obj
 0001:0006668c       ?Init@KItemGenerator@@QAEHXZ 1006768c f   KItemGenerator.obj
 0001:000668d2       ?Gen_Equipment@KItemGenerator@@QAEHHHHHPBHHHPAVKItem@@@Z 100678d2 f   KItemGenerator.obj
 0001:00066b61       ?Gen_ExistEquipment@KItemGenerator@@QAEHHHHPBHHHPAVKItem@@@Z 10067b61 f   KItemGenerator.obj
 0001:00066de6       ?Gen_PurpleEquipment@KItemGenerator@@QAEHHHHHPBHHHPAVKItem@@@Z 10067de6 f   KItemGenerator.obj
 0001:00067141       ?Gen_ExistPurpleEquipment@KItemGenerator@@QAEHHHHPBHHHPAVKItem@@@Z 10068141 f   KItemGenerator.obj
 0001:000674c1       ?Gen_GoldEquipment@KItemGenerator@@QAEHHHPAVKItem@@@Z 100684c1 f   KItemGenerator.obj
 0001:000677e0       ?Gen_BrokenEquipment@KItemGenerator@@QAEHHHHHHPBHHHHPAVKItem@@@Z 100687e0 f   KItemGenerator.obj
 0001:0006798b       ?Gen_Medicine@KItemGenerator@@QAEHHHPAVKItem@@@Z 1006898b f   KItemGenerator.obj
 0001:00067a52       ?Gen_ExistMedicine@KItemGenerator@@QAEHHPAVKItem@@@Z 10068a52 f   KItemGenerator.obj
 0001:00067b0b       ?Gen_Quest@KItemGenerator@@QAEHHPAVKItem@@@Z 10068b0b f   KItemGenerator.obj
 0001:00067bc9       ?Gen_ExistQuest@KItemGenerator@@QAEHHPAVKItem@@@Z 10068bc9 f   KItemGenerator.obj
 0001:00067c82       ?Gen_Script@KItemGenerator@@QAEHHPAVKItem@@@Z 10068c82 f   KItemGenerator.obj
 0001:00067d57       ?Gen_ExistScript@KItemGenerator@@QAEHHPAVKItem@@@Z 10068d57 f   KItemGenerator.obj
 0001:00067e10       ?Gen_Mine@KItemGenerator@@QAEHHHHPAVKItem@@@Z 10068e10 f   KItemGenerator.obj
 0001:00067f66       ?Gen_ExistMine@KItemGenerator@@QAEHHHHPAVKItem@@@Z 10068f66 f   KItemGenerator.obj
 0001:000680a0       ?getRandomLevel@KItemGenerator@@AAEHQBNH@Z 100690a0 f   KItemGenerator.obj
 0001:00068170       ?IsMagicAttribLuckyLevel@KItemGenerator@@AAEHPBUKMAGICATTRIB_TABFILE@@H@Z 10069170 f   KItemGenerator.obj
 0001:00068ceb       ?Gen_MagicAttrib@KItemGenerator@@AAEHHPBHHHPAUKMagicAttrib@@HH@Z 10069ceb f   KItemGenerator.obj
 0001:000692c4       ?Gen_PurpleMagicAttrib@KItemGenerator@@AAEHHPBH0HHPAUKMagicAttrib@@H@Z 1006a2c4 f   KItemGenerator.obj
 0001:00069490       ?GMA_GetAvaliableMA@KItemGenerator@@AAEHH@Z 1006a490 f   KItemGenerator.obj
 0001:00069579       ?GMA_GetLevelAndDropRate@KItemGenerator@@AAEHH@Z 1006a579 f   KItemGenerator.obj
 0001:000696ae       ?GMA_ChooseMA@KItemGenerator@@AAEXHHHPAUKMagicAttrib@@@Z 1006a6ae f   KItemGenerator.obj
 0001:00069865       ?GetMARecord@KItemGenerator@@ABEPBUKMAGICATTRIB_TABFILE@@H@Z 1006a865 f   KItemGenerator.obj
 0001:0006988f       ?GMA_GetCandidateMA@KItemGenerator@@AAEHHHH@Z 1006a88f f   KItemGenerator.obj
 0001:00069957       ?DecodePurple@KItemGenerator@@AAEHHPAHKK@Z 1006a957 f   KItemGenerator.obj
 0001:00069b00       ?SetGenre@KItem@@QAEXH@Z   1006ab00 f i KItemGenerator.obj
 0001:00069b20       ?SetRecord@KItem@@QAEXH@Z  1006ab20 f i KItemGenerator.obj
 0001:00069b50       ?SetSeries@KItem@@QAEXH@Z  1006ab50 f i KItemGenerator.obj
 0001:00069b70       ?GetName@KItem@@QBEPADXZ   1006ab70 f i KItemGenerator.obj
 0001:00069b90       ?GetGeneratorParam@KItem@@QAEPAUKItemGeneratorParam@@XZ 1006ab90 f i KItemGenerator.obj
 0001:00069bb0       ?SetLevel@KItem@@QAEXH@Z   1006abb0 f i KItemGenerator.obj
 0001:00069bd0       ?GetCount@KBPT_ClassMAIT@@QBEHXZ 1006abd0 f i KItemGenerator.obj
 0001:00069bf0       ??0KItemList@@QAE@XZ       1006abf0 f   KItemList.obj
 0001:00069cae       ??1KItemList@@QAE@XZ       1006acae f   KItemList.obj
 0001:00069dba       ?GetWeaponType@KItemList@@QAEHXZ 1006adba f   KItemList.obj
 0001:00069e04       ?GetWeaponDamage@KItemList@@QAEXPAH0@Z 1006ae04 f   KItemList.obj
 0001:00069fc1       ?Add@KItemList@@QAEHHHHH@Z 1006afc1 f   KItemList.obj
 0001:0006abd6       ?Remove@KItemList@@QAEHH@Z 1006bbd6 f   KItemList.obj
 0001:0006b792       ?FindFree@KItemList@@AAEHXZ 1006c792 f   KItemList.obj
 0001:0006b7ca       ?FindSame@KItemList@@AAEHH@Z 1006c7ca f   KItemList.obj
 0001:0006b845       ?Init@KItemList@@QAEHH@Z   1006c845 f   KItemList.obj
 0001:0006bb34       ?Release@KItemList@@QAEXXZ 1006cb34 f   KItemList.obj
 0001:0006bcc8       ?CanEquip@KItemList@@QAEHHH@Z 1006ccc8 f   KItemList.obj
 0001:0006bdd3       ?CanEquip@KItemList@@QAEHPAVKItem@@H@Z 1006cdd3 f   KItemList.obj
 0001:0006be88       ?EnoughAttrib@KItemList@@QAEHPAX@Z 1006ce88 f   KItemList.obj
 0001:0006c0bb       ?HaveDamageItem@KItemList@@QAEHH@Z 1006d0bb f   KItemList.obj
 0001:0006c169       ?Equip@KItemList@@QAEHHH@Z 1006d169 f   KItemList.obj
 0001:0006c728       ?InfectionNextEquip@KItemList@@AAEXHH@Z 1006d728 f   KItemList.obj
 0001:0006c8a3       ?UnEquip@KItemList@@QAEHHH@Z 1006d8a3 f   KItemList.obj
 0001:0006cbcc       ?GetEquipPlace@KItemList@@AAEHH@Z 1006dbcc f   KItemList.obj
 0001:0006ccae       ?Fit@KItemList@@AAEHHH@Z   1006dcae f   KItemList.obj
 0001:0006ce09       ?Fit@KItemList@@AAEHPAVKItem@@H@Z 1006de09 f   KItemList.obj
 0001:0006cf58       ?GetEquipEnhance@KItemList@@AAEHH@Z 1006df58 f   KItemList.obj
 0001:0006d0a3       ?EatMecidine@KItemList@@QAEHH@Z 1006e0a3 f   KItemList.obj
 0001:0006d1eb       ?UseItem@KItemList@@QAEHHE@Z 1006e1eb f   KItemList.obj
 0001:0006d319       ?SearchPlaceEquip@KItemList@@QAEHHE@Z 1006e319 f   KItemList.obj
 0001:0006d51e       ?SearchPosition@KItemList@@QAEHHHPAUItemPos@@@Z 1006e51e f   KItemList.obj
 0001:0006d5cc       ?SearchID@KItemList@@QAEHH@Z 1006e5cc f   KItemList.obj
 0001:0006d66e       ?ExchangeMoney@KItemList@@QAEXHHH@Z 1006e66e f   KItemList.obj
 0001:0006d769       ?GetMoneyAmount@KItemList@@QAEHXZ 1006e769 f   KItemList.obj
 0001:0006d7a7       ?GetEquipmentMoney@KItemList@@QAEHXZ 1006e7a7 f   KItemList.obj
 0001:0006d7d1       ?GetTradeMoney@KItemList@@QAEHXZ 1006e7d1 f   KItemList.obj
 0001:0006d7fb       ?GetRepositoryMoney@KItemList@@QAEHXZ 1006e7fb f   KItemList.obj
 0001:0006d825       ?AddMoney@KItemList@@QAEHHH@Z 1006e825 f   KItemList.obj
 0001:0006d879       ?CostMoney@KItemList@@QAEHH@Z 1006e879 f   KItemList.obj
 0001:0006d8c9       ?DecMoney@KItemList@@QAEHH@Z 1006e8c9 f   KItemList.obj
 0001:0006d96e       ?SetMoney@KItemList@@QAEXHHH@Z 1006e96e f   KItemList.obj
 0001:0006d9fe       ?SetRoomMoney@KItemList@@QAEXHH@Z 1006e9fe f   KItemList.obj
 0001:0006da41       ?ExchangeItem@KItemList@@QAEXPAUItemPos@@0@Z 1006ea41 f   KItemList.obj
 0001:0007083d       ?AutoMoveItem@KItemList@@QAEHUItemPos@@0@Z 1007183d f   KItemList.obj
 0001:00070b87       ?MenuSetMouseItem@KItemList@@QAEXXZ 10071b87 f   KItemList.obj
 0001:00070c47       ?GetFirstItem@KItemList@@QAEPAUPlayerItem@@XZ 10071c47 f   KItemList.obj
 0001:00070c95       ?GetNextItem@KItemList@@QAEPAUPlayerItem@@XZ 10071c95 f   KItemList.obj
 0001:00070cf5       ?ClearRoom@KItemList@@QAEXH@Z 10071cf5 f   KItemList.obj
 0001:00070d34       ?BackupTrade@KItemList@@QAEXXZ 10071d34 f   KItemList.obj
 0001:00070ddb       ?RecoverTrade@KItemList@@QAEXXZ 10071ddb f   KItemList.obj
 0001:00070eb3       ?StartTrade@KItemList@@QAEXXZ 10071eb3 f   KItemList.obj
 0001:00070eeb       ?RemoveAll@KItemList@@QAEXXZ 10071eeb f   KItemList.obj
 0001:00070f88       ?GetWeaponParticular@KItemList@@QAEHXZ 10071f88 f   KItemList.obj
 0001:00070fd2       ?GetEmptyCellNumInEquipment@KItemList@@QAEHXZ 10071fd2 f   KItemList.obj
 0001:00070ffc       ?GetSameItemNumInEquipment@KItemList@@QAEHHHHHH@Z 10071ffc f   KItemList.obj
 0001:0007103c       ?CountSameItem@KItemList@@QAEHW4INVENTORY_ROOM@@HHHHH@Z 1007203c f   KItemList.obj
 0001:000711c4       ?CheckSameDetailType@KItemList@@AAEHW4INVENTORY_ROOM@@HH@Z 100721c4 f   KItemList.obj
 0001:0007129e       ?FindSameDetailType@KItemList@@AAEHW4INVENTORY_ROOM@@HHPAH11@Z 1007229e f   KItemList.obj
 0001:00071390       ?RemoveAllInOneRoom@KItemList@@QAEXH@Z 10072390 f   KItemList.obj
 0001:0007149f       ?CalcFreeItemCellCount@KItemList@@QAEHHHH@Z 1007249f f   KItemList.obj
 0001:00071521       ?LockOperation@KItemList@@QAEXXZ 10072521 f   KItemList.obj
 0001:00071555       ?UnlockOperation@KItemList@@QAEXXZ 10072555 f   KItemList.obj
 0001:00071589       ?GetActiveAttribNum@KItemList@@QAEHH@Z 10072589 f   KItemList.obj
 0001:000715ec       ?GetSameDetailItemNum@KItemList@@QAEHH@Z 100725ec f   KItemList.obj
 0001:00071685       ?GetIfActive@KItemList@@QAEHXZ 10072685 f   KItemList.obj
 0001:00071828       ?SetMaskLock@KItemList@@QAEXH@Z 10072828 f   KItemList.obj
 0001:00071848       ?IsMyItem@KItemList@@QAEHH@Z 10072848 f   KItemList.obj
 0001:0007189c       ?FindSameInEquipment@KItemList@@QAEHHHPAH00@Z 1007289c f   KItemList.obj
 0001:000718dc       ?GetNextItemEquipmentRoom@KItemList@@QAEHHHHPAH0@Z 100728dc f   KItemList.obj
 0001:0007191c       ?FindSameInImmediacy@KItemList@@QAEHHHPAH00@Z 1007291c f   KItemList.obj
 0001:0007195c       ?GetSuiteDescColor@KItemList@@QAEHHH@Z 1007295c f   KItemList.obj
 0001:00071a1c       ?UpdateGoldInfo@KItemList@@AAEXHHHH@Z 10072a1c f   KItemList.obj
 0001:00071a82       ?FindItemInRoom@KItemList@@QAEHW4INVENTORY_ROOM@@HH@Z 10072a82 f   KItemList.obj
 0001:00071acd       ?CountCommonItem@KItemList@@QAEHHHH@Z 10072acd f   KItemList.obj
 0001:00071b9e       ?SearchEquipment@KItemList@@QAEHHH@Z 10072b9e f   KItemList.obj
 0001:00071c03       ?BuildItem@KItemList@@QAEHHH@Z 10072c03 f   KItemList.obj
 0001:00071cdc       ?UnBuildItem@KItemList@@QAEXHH@Z 10072cdc f   KItemList.obj
 0001:00071d80       ?GetItemNumber@KItemSet@@QAEHXZ 10072d80 f i KItemList.obj
 0001:00071dc0       ?GetRecord@KItem@@QBEGXZ   10072dc0 f i KItemList.obj
 0001:00071de0       ?g_IsAccrue@@YAHHH@Z       10072de0 f i KItemList.obj
 0001:00071e10       ?GetScriptID@KItem@@QBEKXZ 10072e10 f i KItemList.obj
 0001:00071e8b       ??0KItemSet@@QAE@XZ        10072e8b f   KItemSet.obj
 0001:00071f30       ??1KItemSet@@QAE@XZ        10072f30 f   KItemSet.obj
 0001:00071fa5       ?Init@KItemSet@@QAEXXZ     10072fa5 f   KItemSet.obj
 0001:0007260c       ?SearchID@KItemSet@@QAEHK@Z 1007360c f   KItemSet.obj
 0001:00072689       ?Add@KItemSet@@QAEHPAVKItem@@@Z 10073689 f   KItemSet.obj
 0001:0007272e       ?Add@KItemSet@@QAEHHHHGHHHPAHHKEK@Z 1007372e f   KItemSet.obj
 0001:0007294e       ?AddExist@KItemSet@@QAEHHHHGHHPAHHK@Z 1007394e f   KItemSet.obj
 0001:00072b80       ?FindFree@KItemSet@@AAEHXZ 10073b80 f   KItemSet.obj
 0001:00072bb5       ?Remove@KItemSet@@QAEXH@Z  10073bb5 f   KItemSet.obj
 0001:00072c1b       ?GetAbradeRange@KItemSet@@QAEHHH@Z 10073c1b f   KItemSet.obj
 0001:00072c70       ?SetRandomSeed@KItem@@QAEXK@Z 10073c70 f i KItemSet.obj
 0001:00072c90       ?SetGeneratorLuck@KItem@@QAEXH@Z 10073c90 f i KItemSet.obj
 0001:00072cb0       ?SetGeneratorVersion@KItem@@QAEXH@Z 10073cb0 f i KItemSet.obj
 0001:00072d06       ??0KObj@@QAE@XZ            10073d06 f   KObj.obj
 0001:00072d7c       ?Release@KObj@@QAEXXZ      10073d7c f   KObj.obj
 0001:00072fc8       ?SetIndex@KObj@@QAEXH@Z    10073fc8 f   KObj.obj
 0001:00072ff7       ?SetWorldID@KObj@@QAEXH@Z  10073ff7 f   KObj.obj
 0001:00073024       ?SetLifeTime@KObj@@QAEXH@Z 10074024 f   KObj.obj
 0001:00073049       ?SetState@KObj@@QAEXHH@Z   10074049 f   KObj.obj
 0001:00073101       ?BoxOpen@KObj@@AAEXXZ      10074101 f   KObj.obj
 0001:00073144       ?BoxClose@KObj@@AAEXXZ     10074144 f   KObj.obj
 0001:00073185       ?DoorOpen@KObj@@AAEXXZ     10074185 f   KObj.obj
 0001:000731bc       ?DoorClose@KObj@@AAEXXZ    100741bc f   KObj.obj
 0001:000731f3       ?SetDir@KObj@@QAEHH@Z      100741f3 f   KObj.obj
 0001:00073293       ?SetScriptFile@KObj@@QAEXPAD@Z 10074293 f   KObj.obj
 0001:0007337b       ?SetImageDir@KObj@@QAEXH@Z 1007437b f   KObj.obj
 0001:000733ca       ?DrawInfo@KObj@@QAEXXZ     100743ca f   KObj.obj
 0001:000736f9       ?Draw@KObj@@QAEXXZ         100746f9 f   KObj.obj
 0001:000739cc       ?Activate@KObj@@QAEXXZ     100749cc f   KObj.obj
 0001:00073d85       ?PlayLoopSound@KObj@@AAEXXZ 10074d85 f   KObj.obj
 0001:00073e98       ?PlayRandSound@KObj@@AAEXXZ 10074e98 f   KObj.obj
 0001:00073f85       ?GetSoundPan@KObj@@AAEHXZ  10074f85 f   KObj.obj
 0001:00074083       ?GetSoundVolume@KObj@@AAEHXZ 10075083 f   KObj.obj
 0001:000741be       ?PlaySoundA@KObj@@AAEXXZ   100751be f   KObj.obj
 0001:0007428b       ?ExecScript@KObj@@QAEXH@Z  1007528b f   KObj.obj
 0001:000744f1       ?CastSkill@KObj@@QAEXH@Z   100754f1 f   KObj.obj
 0001:00074505       ?CastSkill@KObj@@QAEXHH@Z  10075505 f   KObj.obj
 0001:00074519       ?Remove@KObj@@QAEXH@Z      10075519 f   KObj.obj
 0001:000745af       ?GetKind@KObj@@QAEHXZ      100755af f   KObj.obj
 0001:000745c7       ?PolygonChangeToBar@KObj@@QAEXVKPolygon@@HHHHPAE@Z 100755c7 f   KObj.obj
 0001:000747ee       ?GetMpsPos@KObj@@QAEXPAH0@Z 100757ee f   KObj.obj
 0001:0007484e       ?DrawBorder@KObj@@QAEXXZ   1007584e f   KObj.obj
 0001:0007493a       ?GetDistanceSquare@KObj@@QAEHH@Z 1007593a f   KObj.obj
 0001:00074ab0       ??0SOBJ_LIGHT_DATA@@QAE@XZ 10075ab0 f i KObj.obj
 0001:00074ae0       ?Release@SOBJ_LIGHT_DATA@@QAEXXZ 10075ae0 f i KObj.obj
 0001:00074b30       ??0OBJ_SKILL_DATA@@QAE@XZ  10075b30 f i KObj.obj
 0001:00074b60       ?Release@OBJ_SKILL_DATA@@QAEXXZ 10075b60 f i KObj.obj
 0001:00074c2b       ??0KObjSet@@QAE@XZ         10075c2b f   KObjSet.obj
 0001:00074ce2       ??1KObjSet@@QAE@XZ         10075ce2 f   KObjSet.obj
 0001:00074d96       ?Init@KObjSet@@QAEHXZ      10075d96 f   KObjSet.obj
 0001:0007510f       ?ClientAdd@KObjSet@@QAEHHHHHHHHUKObjItemInfo@@@Z 1007610f f   KObjSet.obj
 0001:000753f4       ?ClientLoadRegionObj@KObjSet@@QAEHPADHHHH@Z 100763f4 f   KObjSet.obj
 0001:0007571f       ?ClientLoadRegionObj@KObjSet@@QAEHPAVKPakFile@@K@Z 1007671f f   KObjSet.obj
 0001:0007590d       ?AddData@KObjSet@@QAEHHHHHHHH@Z 1007690d f   KObjSet.obj
 0001:00076209       ?FindFree@KObjSet@@AAEHXZ  10077209 f   KObjSet.obj
 0001:00076241       ?CheckClientKind@KObjSet@@AAEHH@Z 10077241 f   KObjSet.obj
 0001:0007629e       ?FindID@KObjSet@@QAEHH@Z   1007729e f   KObjSet.obj
 0001:00076345       ?FindName@KObjSet@@QAEHPAD@Z 10077345 f   KObjSet.obj
 0001:000763ff       ?GetID@KObjSet@@QAEHXZ     100773ff f   KObjSet.obj
 0001:00076429       ?Remove@KObjSet@@QAEXH@Z   10077429 f   KObjSet.obj
 0001:00076495       ?RemoveIfClientOnly@KObjSet@@QAEXH@Z 10077495 f   KObjSet.obj
 0001:00076525       ?GetDataIDKind@KObjSet@@AAEHH@Z 10077525 f   KObjSet.obj
 0001:000765e6       ?SearchObjAt@KObjSet@@QAEHHHH@Z 100775e6 f   KObjSet.obj
 0001:00076809       ?GetNameColor@KObjSet@@QAEKH@Z 10077809 f   KObjSet.obj
 0001:0007683b       ?SetShowNameFlag@KObjSet@@QAEXH@Z 1007783b f   KObjSet.obj
 0001:0007685b       ?CheckShowName@KObjSet@@QAEHXZ 1007785b f   KObjSet.obj
 0001:00076876       ?GetDistanceMpx@KObjSet@@QAEHHHHH@Z 10077876 f   KObjSet.obj
 0001:000768d6       ?AutoGetObjNear@KObjSet@@QAEHHHHHHHHH@Z 100778d6 f   KObjSet.obj
 0001:00076bb7       ??0KViewItem@@QAE@XZ       10077bb7 f   KViewItem.obj
 0001:00076bde       ?Init@KViewItem@@QAEXXZ    10077bde f   KViewItem.obj
 0001:00076c2a       ?ApplyViewEquip@KViewItem@@QAEXK@Z 10077c2a f   KViewItem.obj
 0001:00076cb7       ?DeleteAll@KViewItem@@QAEXXZ 10077cb7 f   KViewItem.obj
 0001:00076d49       ?GetData@KViewItem@@QAEXPAE@Z 10077d49 f   KViewItem.obj
 0001:0007775b       ?g_InitCore@@YAXXZ         1007875b f   KCore.obj
 0001:00077ca4       ?InitGameSetting@@YAHXZ    10078ca4 f   KCore.obj
 0001:00077cf0       ?InitTaskSetting@@YAHXZ    10078cf0 f   KCore.obj
 0001:00077f04       ?InitNpcSetting@@YAHXZ     10078f04 f   KCore.obj
 0001:0007810d       ?InitMissleSetting@@YAHXZ  1007910d f   KCore.obj
 0001:000781f1       ?InitSkillSetting@@YAHXZ   100791f1 f   KCore.obj
 0001:00078286       ?g_ReleaseCore@@YAXXZ      10079286 f   KCore.obj
 0001:00078450       ?g_SetClient@@YAXPAX@Z     10079450 f   KCore.obj
 0001:0007845d       ?InitAdjustColorTab@@YAIXZ 1007945d f   KCore.obj
 0001:00078798       ??0KSubWorld@@QAE@XZ       10079798 f   KSubWorld.obj
 0001:000788d1       ??1KSubWorld@@QAE@XZ       100798d1 f   KSubWorld.obj
 0001:00078984       ?FindRegion@KSubWorld@@QAEHH@Z 10079984 f   KSubWorld.obj
 0001:000789e3       ?FindFreeRegion@KSubWorld@@QAEHHH@Z 100799e3 f   KSubWorld.obj
 0001:00078b06       ?Activate@KSubWorld@@QAEXXZ 10079b06 f   KSubWorld.obj
 0001:00078bcd       ?GetDistance@KSubWorld@@QAEHHHHH@Z 10079bcd f   KSubWorld.obj
 0001:00078c2d       ?Map2Mps@KSubWorld@@QAEXHHHHHPAH0@Z 10079c2d f   KSubWorld.obj
 0001:00078d04       ?Map2Mps@KSubWorld@@SAXHHHHHHPAH0@Z 10079d04 f   KSubWorld.obj
 0001:00078d3b       ?Mps2Map@KSubWorld@@QAEXHHPAH0000@Z 10079d3b f   KSubWorld.obj
 0001:00078ee3       ?TestBarrier@KSubWorld@@QAEEHH@Z 10079ee3 f   KSubWorld.obj
 0001:0007909e       ?TestBarrier@KSubWorld@@QAEEHHHHHHH@Z 1007a09e f   KSubWorld.obj
 0001:0007935e       ?TestBarrierMin@KSubWorld@@QAEEHHHHHHH@Z 1007a35e f   KSubWorld.obj
 0001:00079665       ?GetTrap@KSubWorld@@QAEKHH@Z 1007a665 f   KSubWorld.obj
 0001:000796e1       ?GetBarrier@KSubWorld@@QAEEHH@Z 1007a6e1 f   KSubWorld.obj
 0001:00079711       ?LoadMap@KSubWorld@@QAEHHH@Z 1007a711 f   KSubWorld.obj
 0001:0007abb1       ?LoadTrap@KSubWorld@@AAEXXZ 1007bbb1 f   KSubWorld.obj
 0001:0007abc3       ?MessageLoop@KSubWorld@@QAEXXZ 1007bbc3 f   KSubWorld.obj
 0001:0007ac58       ?ProcessMsg@KSubWorld@@AAEXPAVKWorldMsgNode@@@Z 1007bc58 f   KSubWorld.obj
 0001:0007af12       ?NpcChangeRegion@KSubWorld@@QAEXHHH@Z 1007bf12 f   KSubWorld.obj
 0001:0007b113       ?ObjChangeRegion@KSubWorld@@QAEXHHH@Z 1007c113 f   KSubWorld.obj
 0001:0007b1da       ?MissleChangeRegion@KSubWorld@@QAEXHHH@Z 1007c1da f   KSubWorld.obj
 0001:0007b28d       ?GetMps@KSubWorld@@QAEXPAH0HHH@Z 1007c28d f   KSubWorld.obj
 0001:0007b2f1       ?LoadCell@KSubWorld@@AAEXXZ 1007c2f1 f   KSubWorld.obj
 0001:0007b303       ?Paint@KSubWorld@@QAEXXZ   1007c303 f   KSubWorld.obj
 0001:0007b3ce       ?Mps2Screen@KSubWorld@@QAEXPAH0@Z 1007c3ce f   KSubWorld.obj
 0001:0007b3e2       ?Screen2Mps@KSubWorld@@QAEXPAH0@Z 1007c3e2 f   KSubWorld.obj
 0001:0007b3f6       ?Close@KSubWorld@@QAEXXZ   1007c3f6 f   KSubWorld.obj
 0001:0007b486       ?AddPlayer@KSubWorld@@QAEXHH@Z 1007c486 f   KSubWorld.obj
 0001:0007b5d8       ?RemovePlayer@KSubWorld@@QAEXHH@Z 1007c5d8 f   KSubWorld.obj
 0001:0007b7c9       ?GetFreeObjPos@KSubWorld@@QAEXAAUtagPOINT@@@Z 1007c7c9 f   KSubWorld.obj
 0001:0007b982       ?CanPutObj@KSubWorld@@QAEHUtagPOINT@@@Z 1007c982 f   KSubWorld.obj
 0001:0007ba40       ??0KWorldMsg@@QAE@XZ       1007ca40 f i KSubWorld.obj
 0001:0007ba70       ??1KWorldMsg@@QAE@XZ       1007ca70 f i KSubWorld.obj
 0001:0007baa0       ??_EKRegion@@QAEPAXI@Z     1007caa0 f i KSubWorld.obj
 0001:0007bb30       ?IsActive@KRegion@@QAEHXZ  1007cb30 f i KSubWorld.obj
 0001:0007bbab       ??0KSubWorldSet@@QAE@XZ    1007cbab f   KSubWorldSet.obj
 0001:0007bbf8       ?SearchWorld@KSubWorldSet@@QAEHK@Z 1007cbf8 f   KSubWorldSet.obj
 0001:0007bc4b       ?MainLoop@KSubWorldSet@@QAEXXZ 1007cc4b f   KSubWorldSet.obj
 0001:0007bcf0       ?MessageLoop@KSubWorldSet@@QAEXXZ 1007ccf0 f   KSubWorldSet.obj
 0001:0007bd43       ?SendMessageA@KSubWorldSet@@QAEHHKHHH@Z 1007cd43 f   KSubWorldSet.obj
 0001:0007be1d       ?Close@KSubWorldSet@@QAEXXZ 1007ce1d f   KSubWorldSet.obj
 0001:0007becb       ?Paint@KSubWorldSet@@QAEXXZ 1007cecb f   KSubWorldSet.obj
 0001:0007bf00       ?Send@KWorldMsg@@QAEHPAVKWorldMsgNode@@@Z 1007cf00 f i KSubWorldSet.obj
 0001:0007bf40       ??0KRegion@@QAE@XZ         1007cf40 f   KRegion.obj
 0001:0007c064       ??1KRegion@@QAE@XZ         1007d064 f   KRegion.obj
 0001:0007c159       ?Init@KRegion@@QAEHHH@Z    1007d159 f   KRegion.obj
 0001:0007c2a8       ?Load@KRegion@@QAEHHH@Z    1007d2a8 f   KRegion.obj
 0001:0007c431       ?LoadObject@KRegion@@QAEHHHHPAD@Z 1007d431 f   KRegion.obj
 0001:0007c988       ?LoadClientNpc@KRegion@@QAEHPAVKPakFile@@K@Z 1007d988 f   KRegion.obj
 0001:0007cbb5       ?LoadClientObj@KRegion@@QAEHPAVKPakFile@@K@Z 1007dbb5 f   KRegion.obj
 0001:0007cbe5       ?LoadLittleMapData@KRegion@@SAHHHPADPAE@Z 1007dbe5 f   KRegion.obj
 0001:0007d06d       ?Activate@KRegion@@QAEXXZ  1007e06d f   KRegion.obj
 0001:0007d213       ?AddNpc@KRegion@@QAEXH@Z   1007e213 f   KRegion.obj
 0001:0007d2e6       ?RemoveNpc@KRegion@@QAEXH@Z 1007e2e6 f   KRegion.obj
 0001:0007d3ac       ?AddMissle@KRegion@@QAEXH@Z 1007e3ac f   KRegion.obj
 0001:0007d467       ?RemoveMissle@KRegion@@QAEXH@Z 1007e467 f   KRegion.obj
 0001:0007d4ce       ?AddObj@KRegion@@QAEXH@Z   1007e4ce f   KRegion.obj
 0001:0007d5c8       ?RemoveObj@KRegion@@QAEXH@Z 1007e5c8 f   KRegion.obj
 0001:0007d6b5       ?GetTrap@KRegion@@QAEKHH@Z 1007e6b5 f   KRegion.obj
 0001:0007d6cb       ?GetBarrier@KRegion@@QAEEHHHH@Z 1007e6cb f   KRegion.obj
 0001:0007d713       ?GetBarrierMin@KRegion@@QAEEHHHHH@Z 1007e713 f   KRegion.obj
 0001:0007d761       ?GetRef@KRegion@@QAEHHHW4MOVE_OBJ_KIND@@@Z 1007e761 f   KRegion.obj
 0001:0007d833       ?AddRef@KRegion@@QAEHHHW4MOVE_OBJ_KIND@@@Z 1007e833 f   KRegion.obj
 0001:0007d993       ?DecRef@KRegion@@QAEHHHW4MOVE_OBJ_KIND@@@Z 1007e993 f   KRegion.obj
 0001:0007daf0       ?AddPlayer@KRegion@@QAEHH@Z 1007eaf0 f   KRegion.obj
 0001:0007dbaa       ?RemovePlayer@KRegion@@QAEHH@Z 1007ebaa f   KRegion.obj
 0001:0007dc17       ?SearchNpc@KRegion@@QAEHK@Z 1007ec17 f   KRegion.obj
 0001:0007dc87       ?FindObject@KRegion@@QAEHHH_N@Z 1007ec87 f   KRegion.obj
 0001:0007dd55       ?FindNpc@KRegion@@QAEHHHHH@Z 1007ed55 f   KRegion.obj
 0001:0007de1e       ?FindObject@KRegion@@QAEHH@Z 1007ee1e f   KRegion.obj
 0001:0007de8e       ?FindEquip@KRegion@@QAEHHH@Z 1007ee8e f   KRegion.obj
 0001:0007df3f       ?SearchNpcName@KRegion@@QAEHPBD@Z 1007ef3f f   KRegion.obj
 0001:0007dfbb       ?Paint@KRegion@@QAEXXZ     1007efbb f   KRegion.obj
 0001:0007e078       ?GetObjNode@KRegion@@QAEPAXH@Z 1007f078 f   KRegion.obj
 0001:0007e0d7       ?Close@KRegion@@QAEXXZ     1007f0d7 f   KRegion.obj
 0001:0007e3a0       ?AddRef@KIndexNode@@QAEXXZ 1007f3a0 f i KRegion.obj
 0001:0007e3d0       ?Release@KIndexNode@@QAEXXZ 1007f3d0 f i KRegion.obj
 0001:0007e440       ?g_InitMath@@YAHXZ         1007f440 f   KMath.obj
 0001:0007e44a       ?g_UnInitMath@@YAHXZ       1007f44a f   KMath.obj
 0001:0007e454       ?g_InitSeries@@YAXXZ       1007f454 f   KMath.obj
 0001:0007e4c0       ?g_InitProtocol@@YAXXZ     1007f4c0 f   KProtocol.obj
 0001:0007e4ed       ?SendClientCmdRun@@YAXHH@Z 1007f4ed f   KProtocol.obj
 0001:0007e57b       ?SendClientCmdWalk@@YAXHH@Z 1007f57b f   KProtocol.obj
 0001:0007e609       ?SendClientCmdSkill@@YAXHHH@Z 1007f609 f   KProtocol.obj
 0001:0007e682       ?SendClientCmdRequestNpc@@YAXH@Z 1007f682 f   KProtocol.obj
 0001:0007e707       ?SendClientCmdSell@@YAXH@Z 1007f707 f   KProtocol.obj
 0001:0007e7a6       ?SendClientCmdBuy@@YAXHHHH@Z 1007f7a6 f   KProtocol.obj
 0001:0007e857       ?SendClientCmdSit@@YAXH@Z  1007f857 f   KProtocol.obj
 0001:0007e8df       ?SendClientCmdJump@@YAXHH@Z 1007f8df f   KProtocol.obj
 0001:0007e96d       ?SendObjMouseClick@@YAXHK@Z 1007f96d f   KProtocol.obj
 0001:0007e9fb       ?SendClientCmdStoreMoney@@YAXHH@Z 1007f9fb f   KProtocol.obj
 0001:0007ea86       ?SendClientCmdRevive@@YAXXZ 1007fa86 f   KProtocol.obj
 0001:0007eb03       ?SendClientCmdMoveItem@@YAXPAX0@Z 1007fb03 f   KProtocol.obj
 0001:0007ebf6       ?SendClientCmdQueryLadder@@YAXK@Z 1007fbf6 f   KProtocol.obj
 0001:0007ec89       ?SendClientCmdRepair@@YAXK@Z 1007fc89 f   KProtocol.obj
 0001:0007ed0e       ?SendClientCmdRide@@YAXH@Z 1007fd0e f   KProtocol.obj
 0001:0007ed93       ?SendClientCmdExeScript@@YAXHPBD@Z 1007fd93 f   KProtocol.obj
 0001:0007ee3a       ?SendClientCmdBreakItem@@YAXKH@Z 1007fe3a f   KProtocol.obj
 0001:0007eee2       ?SendClientCmdMarkPriceItem@@YAXKH@Z 1007fee2 f   KProtocol.obj
 0001:0007ef8a       ?SendClientCmdMakeAdvText@@YAXPBD@Z 1007ff8a f   KProtocol.obj
 0001:0007f024       ?SendClientCmdBuyPlayerShop@@YAXK@Z 10080024 f   KProtocol.obj
 0001:0007f0d3       ?SendClientCmdAutoPlay@@YAXHH@Z 100800d3 f   KProtocol.obj
 0001:0007f15b       ?SendClientCreatPWCmd@@YAXH@Z 1008015b f   KProtocol.obj
 0001:0007f1e0       ?SendClientLoginPWCmd@@YAXH@Z 100801e0 f   KProtocol.obj
 0001:0007f265       ?SendClientChaPWCmd@@YAXHH@Z 10080265 f   KProtocol.obj
 0001:0007f2f3       ?SendClientLockPWCmd@@YAXH@Z 100802f3 f   KProtocol.obj
 0001:0007f375       ?SendClientGiveBoxScript@@YAXPAD@Z 10080375 f   KProtocol.obj
 0001:0007f401       ?SendClientGiveBoxCmd@@YAXKHH@Z 10080401 f   KProtocol.obj
 0001:0007f499       ?SendClientReWardScript@@YAXPAD@Z 10080499 f   KProtocol.obj
 0001:0007f525       ?SendClientCmdTimeBox@@YAXPADH@Z 10080525 f   KProtocol.obj
 0001:0007f5b8       ?SendClientCmdOpenTopTKNew@@YAXXZ 100805b8 f   KProtocol.obj
 0001:0007f635       ?SendClientCPSetImageCmd@@YAXH@Z 10080635 f   KProtocol.obj
 0001:0007f6ba       ?SendClientRecoveryBox@@YAXKHH@Z 100806ba f   KProtocol.obj
 0001:0007f760       ?GetDestNpc@KShop@@QBEKXZ  10080760 f i KProtocol.obj
 0001:0007f7db       ??0KProtocolProcess@@QAE@XZ 100807db f   KProtocolProcess.obj
 0001:0007fe9a       ??1KProtocolProcess@@QAE@XZ 10080e9a f   KProtocolProcess.obj
 0001:0007feac       ?ProcessNetMsg@KProtocolProcess@@QAEXPAE@Z 10080eac f   KProtocolProcess.obj
 0001:0007ff2b       ?NpcSleepSync@KProtocolProcess@@AAEXPAE@Z 10080f2b f   KProtocolProcess.obj
 0001:0007ffad       ?s2cPing@KProtocolProcess@@AAEXPAE@Z 10080fad f   KProtocolProcess.obj
 0001:00080036       ?ServerReplyClientPing@KProtocolProcess@@AAEXPAE@Z 10081036 f   KProtocolProcess.obj
 0001:000800a0       ?s2cPlayerExp@KProtocolProcess@@AAEXPAE@Z 100810a0 f   KProtocolProcess.obj
 0001:000800de       ?s2cChatScreenSingleError@KProtocolProcess@@AAEXPAE@Z 100810de f   KProtocolProcess.obj
 0001:00080193       ?NetCommandChgCamp@KProtocolProcess@@AAEXPAE@Z 10081193 f   KProtocolProcess.obj
 0001:0008020b       ?NetCommandChgCurCamp@KProtocolProcess@@AAEXPAE@Z 1008120b f   KProtocolProcess.obj
 0001:00080283       ?NetCommandDeath@KProtocolProcess@@AAEXPAE@Z 10081283 f   KProtocolProcess.obj
 0001:0008032e       ?NetCommandJump@KProtocolProcess@@AAEXPAE@Z 1008132e f   KProtocolProcess.obj
 0001:000803cd       ?NetCommandGlide@KProtocolProcess@@AAEXPAE@Z 100813cd f   KProtocolProcess.obj
 0001:00080471       ?NetCommandHurt@KProtocolProcess@@AAEXPAE@Z 10081471 f   KProtocolProcess.obj
 0001:000804ff       ?NetCommandRemoveNpc@KProtocolProcess@@AAEXPAE@Z 100814ff f   KProtocolProcess.obj
 0001:000805e7       ?NetCommandRun@KProtocolProcess@@AAEXPAE@Z 100815e7 f   KProtocolProcess.obj
 0001:00080687       ?NetCommandSit@KProtocolProcess@@AAEXPAE@Z 10081687 f   KProtocolProcess.obj
 0001:00080712       ?OpenSaleBox@KProtocolProcess@@AAEXPAE@Z 10081712 f   KProtocolProcess.obj
 0001:00080750       ?OpenStoreBox@KProtocolProcess@@AAEXPAE@Z 10081750 f   KProtocolProcess.obj
 0001:0008077c       ?PlayerRevive@KProtocolProcess@@AAEXPAE@Z 1008177c f   KProtocolProcess.obj
 0001:00080823       ?RequestNpcFail@KProtocolProcess@@AAEXPAE@Z 10081823 f   KProtocolProcess.obj
 0001:00080876       ?NetCommandSkill@KProtocolProcess@@AAEXPAE@Z 10081876 f   KProtocolProcess.obj
 0001:000809de       ?NetCommandWalk@KProtocolProcess@@AAEXPAE@Z 100819de f   KProtocolProcess.obj
 0001:00080aaf       ?s2cApplyCreateTeamFalse@KProtocolProcess@@AAEXPAE@Z 10081aaf f   KProtocolProcess.obj
 0001:00080ba2       ?s2cApplyTeamInfoFalse@KProtocolProcess@@AAEXPAE@Z 10081ba2 f   KProtocolProcess.obj
 0001:00080bb6       ?s2cChatAddFriend@KProtocolProcess@@AAEXPAE@Z 10081bb6 f   KProtocolProcess.obj
 0001:00080cb1       ?s2cChatAddFriendFail@KProtocolProcess@@AAEXPAE@Z 10081cb1 f   KProtocolProcess.obj
 0001:00080d8a       ?s2cChatAddOneFriend@KProtocolProcess@@AAEXPAE@Z 10081d8a f   KProtocolProcess.obj
 0001:00080e30       ?s2cChatBeRefusedAddFriend@KProtocolProcess@@AAEXPAE@Z 10081e30 f   KProtocolProcess.obj
 0001:00080ee5       ?s2cChatFriendOnline@KProtocolProcess@@AAEXPAE@Z 10081ee5 f   KProtocolProcess.obj
 0001:00080f2a       ?s2cChatGetApplyAddFriend@KProtocolProcess@@AAEXPAE@Z 10081f2a f   KProtocolProcess.obj
 0001:000810e0       ?s2cChatLoginFriendName@KProtocolProcess@@AAEXPAE@Z 100820e0 f   KProtocolProcess.obj
 0001:00081193       ?s2cChatLoginFriendNoName@KProtocolProcess@@AAEXPAE@Z 10082193 f   KProtocolProcess.obj
 0001:00081309       ?s2cCreateTeam@KProtocolProcess@@AAEXPAE@Z 10082309 f   KProtocolProcess.obj
 0001:0008146d       ?s2cFactionSkillOpen@KProtocolProcess@@AAEXPAE@Z 1008246d f   KProtocolProcess.obj
 0001:000814bd       ?s2cGetChat@KProtocolProcess@@AAEXPAE@Z 100824bd f   KProtocolProcess.obj
 0001:000814f8       ?s2cGetCurAttribute@KProtocolProcess@@AAEXPAE@Z 100824f8 f   KProtocolProcess.obj
 0001:00081524       ?s2cGetLeadExp@KProtocolProcess@@AAEXPAE@Z 10082524 f   KProtocolProcess.obj
 0001:000815fc       ?s2cGetSkillLevel@KProtocolProcess@@AAEXPAE@Z 100825fc f   KProtocolProcess.obj
 0001:0008177d       ?s2cGetSkillRemove@KProtocolProcess@@AAEXPAE@Z 1008277d f   KProtocolProcess.obj
 0001:000817ff       ?s2cGetTeammateLevel@KProtocolProcess@@AAEXPAE@Z 100827ff f   KProtocolProcess.obj
 0001:000818a6       ?s2cLeaveFaction@KProtocolProcess@@AAEXPAE@Z 100828a6 f   KProtocolProcess.obj
 0001:000818f5       ?s2cLeaveTeam@KProtocolProcess@@AAEXPAE@Z 100828f5 f   KProtocolProcess.obj
 0001:000819c8       ?s2cLevelUp@KProtocolProcess@@AAEXPAE@Z 100829c8 f   KProtocolProcess.obj
 0001:000819f4       ?s2cMoveItem@KProtocolProcess@@AAEXPAE@Z 100829f4 f   KProtocolProcess.obj
 0001:00081a84       ?s2cRemoveItem@KProtocolProcess@@AAEXPAE@Z 10082a84 f   KProtocolProcess.obj
 0001:00081aea       ?s2cSetFactionData@KProtocolProcess@@AAEXPAE@Z 10082aea f   KProtocolProcess.obj
 0001:00081b6a       ?s2cSetTeamState@KProtocolProcess@@AAEXPAE@Z 10082b6a f   KProtocolProcess.obj
 0001:00081c85       ?s2cApplyAddTeam@KProtocolProcess@@AAEXPAE@Z 10082c85 f   KProtocolProcess.obj
 0001:00081cb1       ?s2cShowTeamInfo@KProtocolProcess@@AAEXPAE@Z 10082cb1 f   KProtocolProcess.obj
 0001:00081cc5       ?s2cSyncItem@KProtocolProcess@@AAEXPAE@Z 10082cc5 f   KProtocolProcess.obj
 0001:00081e7d       ?s2cSyncMoney@KProtocolProcess@@AAEXPAE@Z 10082e7d f   KProtocolProcess.obj
 0001:00081ea9       ?s2cSyncRoleList@KProtocolProcess@@AAEXPAE@Z 10082ea9 f   KProtocolProcess.obj
 0001:00081ecc       ?s2cTeamAddMember@KProtocolProcess@@AAEXPAE@Z 10082ecc f   KProtocolProcess.obj
 0001:00081ffc       ?s2cTeamChangeCaptain@KProtocolProcess@@AAEXPAE@Z 10082ffc f   KProtocolProcess.obj
 0001:0008223b       ?s2cUpdataSelfTeamInfo@KProtocolProcess@@AAEXPAE@Z 1008323b f   KProtocolProcess.obj
 0001:00082465       ?SyncCurNormalData@KProtocolProcess@@AAEXPAE@Z 10083465 f   KProtocolProcess.obj
 0001:0008260f       ?SyncCurPlayer@KProtocolProcess@@AAEXPAE@Z 1008360f f   KProtocolProcess.obj
 0001:0008263b       ?SyncNpc@KProtocolProcess@@AAEXPAE@Z 1008363b f   KProtocolProcess.obj
 0001:00082aec       ?SyncNpcMin@KProtocolProcess@@AAEXPAE@Z 10083aec f   KProtocolProcess.obj
 0001:00083043       ?SyncNpcMinPlayer@KProtocolProcess@@AAEXPAE@Z 10084043 f   KProtocolProcess.obj
 0001:000833f9       ?SyncObjectAdd@KProtocolProcess@@AAEXPAE@Z 100843f9 f   KProtocolProcess.obj
 0001:0008359f       ?SyncObjectDir@KProtocolProcess@@AAEXPAE@Z 1008459f f   KProtocolProcess.obj
 0001:00083674       ?SyncObjectRemove@KProtocolProcess@@AAEXPAE@Z 10084674 f   KProtocolProcess.obj
 0001:000836df       ?SyncObjectState@KProtocolProcess@@AAEXPAE@Z 100846df f   KProtocolProcess.obj
 0001:0008381d       ?SyncObjectTrap@KProtocolProcess@@AAEXPAE@Z 1008481d f   KProtocolProcess.obj
 0001:00083926       ?SyncPlayer@KProtocolProcess@@AAEXPAE@Z 10084926 f   KProtocolProcess.obj
 0001:00083cc9       ?SyncPlayerMin@KProtocolProcess@@AAEXPAE@Z 10084cc9 f   KProtocolProcess.obj
 0001:000840a3       ?SyncScriptAction@KProtocolProcess@@AAEXPAE@Z 100850a3 f   KProtocolProcess.obj
 0001:000840cf       ?SyncWorld@KProtocolProcess@@AAEXPAE@Z 100850cf f   KProtocolProcess.obj
 0001:00084195       ?s2cChatDeleteFriend@KProtocolProcess@@AAEXPAE@Z 10085195 f   KProtocolProcess.obj
 0001:00084305       ?s2cChatFriendOffLine@KProtocolProcess@@AAEXPAE@Z 10085305 f   KProtocolProcess.obj
 0001:00084343       ?s2cSyncAllSkill@KProtocolProcess@@AAEXPAE@Z 10085343 f   KProtocolProcess.obj
 0001:0008441e       ?SyncEnd@KProtocolProcess@@AAEXPAE@Z 1008541e f   KProtocolProcess.obj
 0001:00084502       ?s2cTradeChangeState@KProtocolProcess@@AAEXPAE@Z 10085502 f   KProtocolProcess.obj
 0001:0008452e       ?s2cNpcSetMenuState@KProtocolProcess@@AAEXPAE@Z 1008552e f   KProtocolProcess.obj
 0001:000846d7       ?s2cTradeMoneySync@KProtocolProcess@@AAEXPAE@Z 100856d7 f   KProtocolProcess.obj
 0001:00084703       ?s2cTradeDecision@KProtocolProcess@@AAEXPAE@Z 10085703 f   KProtocolProcess.obj
 0001:00084739       ?s2cUpdateNpcState@KProtocolProcess@@AAEXPAE@Z 10085739 f   KProtocolProcess.obj
 0001:000847cc       ?s2cTeamInviteAdd@KProtocolProcess@@AAEXPAE@Z 100857cc f   KProtocolProcess.obj
 0001:000847f8       ?s2cTradePressOkSync@KProtocolProcess@@AAEXPAE@Z 100857f8 f   KProtocolProcess.obj
 0001:00084853       ?s2cDirectlyCastSkill@KProtocolProcess@@AAEXPAE@Z 10085853 f   KProtocolProcess.obj
 0001:000849cc       ?s2cShowMsg@KProtocolProcess@@AAEXPAE@Z 100859cc f   KProtocolProcess.obj
 0001:00085af7       ?SyncStateEffect@KProtocolProcess@@AAEXPAE@Z 10086af7 f   KProtocolProcess.obj
 0001:00085bb6       ?s2cTradeApplyStart@KProtocolProcess@@AAEXPAE@Z 10086bb6 f   KProtocolProcess.obj
 0001:00085be2       ?s2cItemAutoMove@KProtocolProcess@@AAEXPAE@Z 10086be2 f   KProtocolProcess.obj
 0001:00085c96       ?FinishedItemExchange@KProtocolProcess@@AAEXPAE@Z 10086c96 f   KProtocolProcess.obj
 0001:00085cbe       ?s2cExtend@KProtocolProcess@@AAEXPAE@Z 10086cbe f   KProtocolProcess.obj
 0001:00085d45       ?s2cExtendChat@KProtocolProcess@@AAEXPAE@Z 10086d45 f   KProtocolProcess.obj
 0001:00085f2e       ?s2cExtendFriend@KProtocolProcess@@AAEXPAE@Z 10086f2e f   KProtocolProcess.obj
 0001:000865e4       ?s2cExtendTong@KProtocolProcess@@AAEXPAE@Z 100875e4 f   KProtocolProcess.obj
 0001:00087392       ?s2cChangeWeather@KProtocolProcess@@AAEXPAE@Z 10088392 f   KProtocolProcess.obj
 0001:000873c3       ?s2cPKSyncNormalFlag@KProtocolProcess@@AAEXPAE@Z 100883c3 f   KProtocolProcess.obj
 0001:00087403       ?s2cPKSyncEnmityState@KProtocolProcess@@AAEXPAE@Z 10088403 f   KProtocolProcess.obj
 0001:00087483       ?s2cPKSyncExerciseState@KProtocolProcess@@AAEXPAE@Z 10088483 f   KProtocolProcess.obj
 0001:00087503       ?s2cPKValueSync@KProtocolProcess@@AAEXPAE@Z 10088503 f   KProtocolProcess.obj
 0001:00087541       ?s2cViewEquip@KProtocolProcess@@AAEXPAE@Z 10088541 f   KProtocolProcess.obj
 0001:0008756d       ?s2cTongCreate@KProtocolProcess@@AAEXPAE@Z 1008856d f   KProtocolProcess.obj
 0001:00087599       ?s2cNpcGoldChange@KProtocolProcess@@AAEXPAE@Z 10088599 f   KProtocolProcess.obj
 0001:0008761a       ?TaskValueSync@KProtocolProcess@@AAEXPAE@Z 1008861a f   KProtocolProcess.obj
 0001:0008769d       ?s2cFindPathSync@KProtocolProcess@@AAEXPAE@Z 1008869d f   KProtocolProcess.obj
 0001:0008773e       ?PlayerStopMove@KProtocolProcess@@AAEXPAE@Z 1008873e f   KProtocolProcess.obj
 0001:00087792       ?s2cPlayerPos@KProtocolProcess@@AAEXPAE@Z 10088792 f   KProtocolProcess.obj
 0001:00087853       ?SyncPlayerRide@KProtocolProcess@@AAEXPAE@Z 10088853 f   KProtocolProcess.obj
 0001:000878ce       ?NetCommandBloodNo@KProtocolProcess@@AAEXPAE@Z 100888ce f   KProtocolProcess.obj
 0001:00087954       ?s2cPlayerRefesh@KProtocolProcess@@AAEXPAE@Z 10088954 f   KProtocolProcess.obj
 0001:0008799a       ?ItemChangeInfo@KProtocolProcess@@AAEXPAE@Z 1008899a f   KProtocolProcess.obj
 0001:00087b8a       ?s2cMaskLock@KProtocolProcess@@AAEXPAE@Z 10088b8a f   KProtocolProcess.obj
 0001:00087bca       ?s2cViewShop@KProtocolProcess@@AAEXPAE@Z 10088bca f   KProtocolProcess.obj
 0001:00087bf6       ?s2cPlayerAutoDoSkill@KProtocolProcess@@AAEXPAE@Z 10088bf6 f   KProtocolProcess.obj
 0001:00087cc6       ?NetCommandRandMove@KProtocolProcess@@AAEXPAE@Z 10088cc6 f   KProtocolProcess.obj
 0001:00087d29       ?s2cAutoPlaySync@KProtocolProcess@@AAEXPAE@Z 10088d29 f   KProtocolProcess.obj
 0001:00087e41       ?s2cLockPlayerSync@KProtocolProcess@@AAEXPAE@Z 10088e41 f   KProtocolProcess.obj
 0001:00087e96       ?s2cReposiPlayer@KProtocolProcess@@AAEXPAE@Z 10088e96 f   KProtocolProcess.obj
 0001:00087ed4       ?s2cExpandboxPlayer@KProtocolProcess@@AAEXPAE@Z 10088ed4 f   KProtocolProcess.obj
 0001:00087f12       ?s2cGiveBox@KProtocolProcess@@AAEXPAE@Z 10088f12 f   KProtocolProcess.obj
 0001:00087fd5       ?s2cReWardBox@KProtocolProcess@@AAEXPAE@Z 10088fd5 f   KProtocolProcess.obj
 0001:00088078       ?s2cTimeBox@KProtocolProcess@@AAEXPAE@Z 10089078 f   KProtocolProcess.obj
 0001:000880f2       ?s2cPlayerPointSync@KProtocolProcess@@AAEXPAE@Z 100890f2 f   KProtocolProcess.obj
 0001:00088157       ?PlayerSendTopTKNew@KProtocolProcess@@AAEXPAE@Z 10089157 f   KProtocolProcess.obj
 0001:0008890f       ?s2cNotification@KProtocolProcess@@AAEXPAE@Z 1008990f f   KProtocolProcess.obj
 0001:0008898c       ?LadderList@KProtocolProcess@@AAEXPAE@Z 1008998c f   KProtocolProcess.obj
 0001:00088a76       ?LadderResult@KProtocolProcess@@AAEXPAE@Z 10089a76 f   KProtocolProcess.obj
 0001:00088bf0       ?SetSleepMode@KNpc@@QAEXH@Z 10089bf0 f i KProtocolProcess.obj
 0001:00088c30       ??0CChatApplyListNode@@QAE@XZ 10089c30 f i KProtocolProcess.obj
 0001:00088c90       ??_ECChatApplyListNode@@UAEPAXI@Z 10089c90 f i KProtocolProcess.obj
 0001:00088c90       ??_GCChatApplyListNode@@UAEPAXI@Z 10089c90 f i KProtocolProcess.obj
 0001:00088cd0       ??1CChatApplyListNode@@UAE@XZ 10089cd0 f i KProtocolProcess.obj
 0001:00088d00       ?GetFigure@KPlayerTong@@QAEHXZ 10089d00 f i KProtocolProcess.obj
 0001:00088d93       ?LuaGetBit@@YAHPAUlua_State@@@Z 10089d93 f   ScriptFuns.obj
 0001:00088e56       ?LuaSetBit@@YAHPAUlua_State@@@Z 10089e56 f   ScriptFuns.obj
 0001:00088f38       ?LuaGetByte@@YAHPAUlua_State@@@Z 10089f38 f   ScriptFuns.obj
 0001:00089005       ?LuaSetByte@@YAHPAUlua_State@@@Z 1008a005 f   ScriptFuns.obj
 0001:000890e6       ?GetSubWorldIndex@@YAHPAUlua_State@@@Z 1008a0e6 f   ScriptFuns.obj
 0001:0008923a       ?LuaSubWorldIDToIndex@@YAHPAUlua_State@@@Z 1008a23a f   ScriptFuns.obj
 0001:000892e2       ?LuaSubWorldIndexToID@@YAHPAUlua_State@@@Z 1008a2e2 f   ScriptFuns.obj
 0001:0008938b       ?LuaSelectUI@@YAHPAUlua_State@@@Z 1008a38b f   ScriptFuns.obj
 0001:00089993       ?LuaSelectUI2@@YAHPAUlua_State@@@Z 1008a993 f   ScriptFuns.obj
 0001:0008a00f       ?LuaSendMessageInfo@@YAHPAUlua_State@@@Z 1008b00f f   ScriptFuns.obj
 0001:0008a16e       ?LuaAddGlobalNews@@YAHPAUlua_State@@@Z 1008b16e f   ScriptFuns.obj
 0001:0008a2cd       ?LuaAddGlobalNewsEx@@YAHPAUlua_State@@@Z 1008b2cd f   ScriptFuns.obj
 0001:0008a42c       ?LuaAddLocalNews@@YAHPAUlua_State@@@Z 1008b42c f   ScriptFuns.obj
 0001:0008a58b       ?LuaAddGlobalCountNews@@YAHPAUlua_State@@@Z 1008b58b f   ScriptFuns.obj
 0001:0008a73f       ?LuaAddLocalCountNews@@YAHPAUlua_State@@@Z 1008b73f f   ScriptFuns.obj
 0001:0008a8f3       ?LuaAddGlobalTimeNews@@YAHPAUlua_State@@@Z 1008b8f3 f   ScriptFuns.obj
 0001:0008ab75       ?LuaAddLocalTimeNews@@YAHPAUlua_State@@@Z 1008bb75 f   ScriptFuns.obj
 0001:0008adf7       ?LuaAddNote@@YAHPAUlua_State@@@Z 1008bdf7 f   ScriptFuns.obj
 0001:0008b044       ?LuaTalkUI@@YAHPAUlua_State@@@Z 1008c044 f   ScriptFuns.obj
 0001:0008b487       ?LuaIncludeFile@@YAHPAUlua_State@@@Z 1008c487 f   ScriptFuns.obj
 0001:0008b6d4       ?LuaGetTaskValue@@YAHPAUlua_State@@@Z 1008c6d4 f   ScriptFuns.obj
 0001:0008b7c4       ?LuaGetTempTaskValue@@YAHPAUlua_State@@@Z 1008c7c4 f   ScriptFuns.obj
 0001:0008b866       ?LuaSetTempTaskValue@@YAHPAUlua_State@@@Z 1008c866 f   ScriptFuns.obj
 0001:0008b906       ?GetPlayerIndex@@YAHPAUlua_State@@@Z 1008c906 f   ScriptFuns.obj
 0001:0008ba5d       ?GetObjIndex@@YAHPAUlua_State@@@Z 1008ca5d f   ScriptFuns.obj
 0001:0008bba4       ?LuaMessage@@YAHPAUlua_State@@@Z 1008cba4 f   ScriptFuns.obj
 0001:0008bbf2       ?LuaPlayMusic@@YAHPAUlua_State@@@Z 1008cbf2 f   ScriptFuns.obj
 0001:0008bcfc       ?LuaFadeInMusic@@YAHPAUlua_State@@@Z 1008ccfc f   ScriptFuns.obj
 0001:0008bd03       ?LuaFadeOutMusic@@YAHPAUlua_State@@@Z 1008cd03 f   ScriptFuns.obj
 0001:0008bd0a       ?LuaPlaySound@@YAHPAUlua_State@@@Z 1008cd0a f   ScriptFuns.obj
 0001:0008bd11       ?LuaPlaySprMovie@@YAHPAUlua_State@@@Z 1008cd11 f   ScriptFuns.obj
 0001:0008bd18       ?LuaExitGame@@YAHPAUlua_State@@@Z 1008cd18 f   ScriptFuns.obj
 0001:0008bd34       ?g_GetGameScriptFunNum@@YAHXZ 1008cd34 f   ScriptFuns.obj
 0001:0008bd3e       ?g_GetWorldScriptFunNum@@YAHXZ 1008cd3e f   ScriptFuns.obj
 0001:0008bdab       ??0KScriptValueSet@@QAE@XZ 1008cdab f   KScriptValueSet.obj
 0001:0008be20       ??1KScriptValueSet@@UAE@XZ 1008ce20 f   KScriptValueSet.obj
 0001:0008be88       ?Load@KScriptValueSet@@QAEHPAD@Z 1008ce88 f   KScriptValueSet.obj
 0001:0008c139       ?Save@KScriptValueSet@@QAEHPAD@Z 1008d139 f   KScriptValueSet.obj
 0001:0008c27a       ?SetValue@KScriptValueSet@@QAEHPAD0@Z 1008d27a f   KScriptValueSet.obj
 0001:0008c2e4       ?SetValue@KScriptValueSet@@QAEHPADH@Z 1008d2e4 f   KScriptValueSet.obj
 0001:0008c344       ?GetValue@KScriptValueSet@@QAEHPAD0@Z 1008d344 f   KScriptValueSet.obj
 0001:0008c3af       ?GetValue@KScriptValueSet@@QAEHPADPAH@Z 1008d3af f   KScriptValueSet.obj
 0001:0008c40a       ?AddValue@KScriptValueSet@@AAEXPAD0@Z 1008d40a f   KScriptValueSet.obj
 0001:0008c4b1       ?AddValue@KScriptValueSet@@AAEXPADH@Z 1008d4b1 f   KScriptValueSet.obj
 0001:0008c555       ?SearchValue@KScriptValueSet@@AAEPAVKNode@@PADH@Z 1008d555 f   KScriptValueSet.obj
 0001:0008c620       ??_GKScriptValueSet@@UAEPAXI@Z 1008d620 f i KScriptValueSet.obj
 0001:0008c620       ??_EKScriptValueSet@@UAEPAXI@Z 1008d620 f i KScriptValueSet.obj
 0001:0008c660       ??0TStringValueNode@@QAE@PAD0@Z 1008d660 f i KScriptValueSet.obj
 0001:0008c6c0       ??_ETStringValueNode@@UAEPAXI@Z 1008d6c0 f i KScriptValueSet.obj
 0001:0008c6c0       ??_GTStringValueNode@@UAEPAXI@Z 1008d6c0 f i KScriptValueSet.obj
 0001:0008c700       ??1TStringValueNode@@UAE@XZ 1008d700 f i KScriptValueSet.obj
 0001:0008c730       ??0TIntegerValueNode@@QAE@PADH@Z 1008d730 f i KScriptValueSet.obj
 0001:0008c780       ??_ETIntegerValueNode@@UAEPAXI@Z 1008d780 f i KScriptValueSet.obj
 0001:0008c780       ??_GTIntegerValueNode@@UAEPAXI@Z 1008d780 f i KScriptValueSet.obj
 0001:0008c7c0       ??1TIntegerValueNode@@UAE@XZ 1008d7c0 f i KScriptValueSet.obj
 0001:0008c8c1       ??M@YAHVKSortScriptNode@@0@Z 1008d8c1 f   KSortScript.obj
 0001:0008c8e7       ??8@YAHVKSortScriptNode@@0@Z 1008d8e7 f   KSortScript.obj
 0001:0008c910       ?g_IniScriptEngine@@YAKXZ  1008d910 f   KSortScript.obj
 0001:0008c9f2       ?g_GetScript@@YAPBVKScript@@K@Z 1008d9f2 f   KSortScript.obj
 0001:0008ca46       ?g_GetScript@@YAPBVKScript@@PBD@Z 1008da46 f   KSortScript.obj
 0001:0008ca86       ?LoadScriptInDirectory@@YAXPAD0@Z 1008da86 f   KSortScript.obj
 0001:0008d07f       ?UnLoadScript@@YAXK@Z      1008e07f f   KSortScript.obj
 0001:0008d0be       ?ReLoadScript@@YAHPBD@Z    1008e0be f   KSortScript.obj
 0001:0008d15f       ?ReLoadAllScript@@YAKXZ    1008e15f f   KSortScript.obj
 0001:0008d180       ?GetScriptID@KSortScriptNode@@QAEKXZ 1008e180 f i KSortScript.obj
 0001:0008d1a0       ?SetScriptID@KSortScriptNode@@QAEXK@Z 1008e1a0 f i KSortScript.obj
 0001:0008d1c0       ?GetScript@KSortScriptNode@@QAEPBVKScript@@XZ 1008e1c0 f i KSortScript.obj
 0001:0008d200       ?SetScriptIndex@KSortScriptNode@@QAEXK@Z 1008e200 f i KSortScript.obj
 0001:0008d220       ??0?$BinSTree@VKSortScriptNode@@@@QAE@XZ 1008e220 f i KSortScript.obj
 0001:0008d260       ??1?$BinSTree@VKSortScriptNode@@@@QAE@XZ 1008e260 f i KSortScript.obj
 0001:0008d290       ?Find@?$BinSTree@VKSortScriptNode@@@@QAE_NAAVKSortScriptNode@@@Z 1008e290 f i KSortScript.obj
 0001:0008d300       ?Insert@?$BinSTree@VKSortScriptNode@@@@QAEXABVKSortScriptNode@@@Z 1008e300 f i KSortScript.obj
 0001:0008d450       ?Delete@?$BinSTree@VKSortScriptNode@@@@QAEXABVKSortScriptNode@@@Z 1008e450 f i KSortScript.obj
 0001:0008d5a0       ?ClearList@?$BinSTree@VKSortScriptNode@@@@QAEXXZ 1008e5a0 f i KSortScript.obj
 0001:0008d5f0       ?DeleteTree@?$BinSTree@VKSortScriptNode@@@@AAEXPAV?$TreeNode@VKSortScriptNode@@@@@Z 1008e5f0 f i KSortScript.obj
 0001:0008d650       ?FindNode@?$BinSTree@VKSortScriptNode@@@@ABEPAV?$TreeNode@VKSortScriptNode@@@@ABVKSortScriptNode@@AAPAV2@@Z 1008e650 f i KSortScript.obj
 0001:0008d720       ??0?$TreeNode@VKSortScriptNode@@@@QAE@ABVKSortScriptNode@@PAV0@1@Z 1008e720 f i KSortScript.obj
 0001:0008d787       _CoreGetShell              1008e787 f   CoreShell.obj
 0001:0008d79d       ?CoreDataChanged@@YAXIIH@Z 1008e79d f   CoreShell.obj
 0001:0008d7d8       ?Release@KCoreShell@@UAEXXZ 1008e7d8 f   CoreShell.obj
 0001:0008d7f9       ?NetMsgCallbackFunc@KCoreShell@@UAEXPAX@Z 1008e7f9 f   CoreShell.obj
 0001:0008d825       ?SetCallDataChangedNofify@KCoreShell@@UAEHPAUIClientCallback@@@Z 1008e825 f   CoreShell.obj
 0001:0008d846       ?GetGameData@KCoreShell@@UAEHIIH@Z 1008e846 f   CoreShell.obj
 0001:00092a63       ?OperationRequest@KCoreShell@@UAEHIIH@Z 10093a63 f   CoreShell.obj
 0001:0009575c       ?ProcessInput@KCoreShell@@UAEXIIH@Z 1009675c f   CoreShell.obj
 0001:00095790       ?FindSelectNPC@KCoreShell@@UAEHHHH_NPAXAAH@Z 10096790 f   CoreShell.obj
 0001:000958b4       ?FindSelectObject@KCoreShell@@UAEHHH_NAAH1@Z 100968b4 f   CoreShell.obj
 0001:0009593e       ?FindSpecialNPC@KCoreShell@@UAEHPADPAXAAH@Z 1009693e f   CoreShell.obj
 0001:00095a63       ?ChatSpecialPlayer@KCoreShell@@UAEHPAXPBDG@Z 10096a63 f   CoreShell.obj
 0001:00095b12       ?ApplyAddTeam@KCoreShell@@UAEXPAX@Z 10096b12 f   CoreShell.obj
 0001:00095b79       ?TradeApplyStart@KCoreShell@@UAEXPAX@Z 10096b79 f   CoreShell.obj
 0001:00095bd2       ?UseSkill@KCoreShell@@UAEHHHHH@Z 10096bd2 f   CoreShell.obj
 0001:000960e4       ?LockSomeoneUseSkill@KCoreShell@@UAEHHH@Z 100970e4 f   CoreShell.obj
 0001:000961f4       ?LockSomeoneAction@KCoreShell@@UAEHH@Z 100971f4 f   CoreShell.obj
 0001:000962bd       ?LockObjectAction@KCoreShell@@UAEHH@Z 100972bd f   CoreShell.obj
 0001:00096346       ?GotoWhere@KCoreShell@@UAEXHHH@Z 10097346 f   CoreShell.obj
 0001:00096465       ?GotoWhereDirect@KCoreShell@@UAEXHHH@Z 10097465 f   CoreShell.obj
 0001:000965bc       ?CloseToTarget@@YA_NABUFindPathNode@@0H@Z 100975bc f   CoreShell.obj
 0001:00096659       ?AutoMove@KCoreShell@@UAEHXZ 10097659 f   CoreShell.obj
 0001:00096a13       ?Goto@KCoreShell@@UAEXHH@Z 10097a13 f   CoreShell.obj
 0001:00096ad9       ?Turn@KCoreShell@@UAEXH@Z  10097ad9 f   CoreShell.obj
 0001:00096b33       ?ThrowAwayItem@KCoreShell@@UAEHXZ 10097b33 f   CoreShell.obj
 0001:00096b59       ?CheckMouse@KCoreShell@@UAEHXZ 10097b59 f   CoreShell.obj
 0001:00096b8c       ?GetNPCRelation@KCoreShell@@UAEHH@Z 10097b8c f   CoreShell.obj
 0001:00096bbf       ?GetNPCShopState@KCoreShell@@UAEHH@Z 10097bbf f   CoreShell.obj
 0001:00096be2       ?DrawGameObj@KCoreShell@@UAEXIIHHHHH@Z 10097be2 f   CoreShell.obj
 0001:00096c2d       ?DrawGameSpace@KCoreShell@@UAEXXZ 10097c2d f   CoreShell.obj
 0001:00096c66       ?SetRepresentShell@KCoreShell@@UAEXPAUiRepresentShell@@@Z 10097c66 f   CoreShell.obj
 0001:00096cdd       ?SetMusicInterface@KCoreShell@@UAEXPAX@Z 10097cdd f   CoreShell.obj
 0001:00096d18       ?Breathe@KCoreShell@@UAEHXZ 10097d18 f   CoreShell.obj
 0001:00096d57       ?GetProtocolSize@KCoreShell@@UAEHE@Z 10097d57 f   CoreShell.obj
 0001:00096d9e       ?Debug@KCoreShell@@UAEHIIH@Z 10097d9e f   CoreShell.obj
 0001:00096e09       ?GetPing@KCoreShell@@UAEKXZ 10097e09 f   CoreShell.obj
 0001:00096e2f       ?SetRepresentAreaSize@KCoreShell@@UAEXHH@Z 10097e2f f   CoreShell.obj
 0001:00096e5f       ?SetClient@KCoreShell@@UAEXPAX@Z 10097e5f f   CoreShell.obj
 0001:00096e89       ?SendNewDataToServer@KCoreShell@@UAEXPAXH@Z 10097e89 f   CoreShell.obj
 0001:00096ee3       ?SystemMessages@KCoreShell@@UAEHIIH@Z 10097ee3 f   CoreShell.obj
 0001:00097349       ?SceneMapOperation@KCoreShell@@UAEHIIH@Z 10098349 f   CoreShell.obj
 0001:0009748f       ?TongOperation@KCoreShell@@UAEHIIH@Z 1009848f f   CoreShell.obj
 0001:00097924       ?TeamOperation@KCoreShell@@UAEHIIH@Z 10098924 f   CoreShell.obj
 0001:00097b62       ?CanGetSkill@KCoreShell@@UAEHH@Z 10098b62 f   CoreShell.obj
 0001:00097c0f       ?PAIOperation@KCoreShell@@UAEHIIHH@Z 10098c0f f   CoreShell.obj
 0001:000983ba       ?GetAutoFlag@KCoreShell@@UAEHXZ 100993ba f   CoreShell.obj
 0001:000983e0       ?GetSpaceFlag@KCoreShell@@UAEHXZ 100993e0 f   CoreShell.obj
 0001:00098406       ?FindSkillInfo@KCoreShell@@UAEHHH@Z 10099406 f   CoreShell.obj
 0001:000984b2       ?GetSkillName@KCoreShell@@UAEXHPAD@Z 100994b2 f   CoreShell.obj
 0001:00098515       ?SetMoveMap@KCoreShell@@UAEXHHH@Z 10099515 f   CoreShell.obj
 0001:000985c4       ?SetSortItem@KCoreShell@@UAEXHHH@Z 100995c4 f   CoreShell.obj
 0001:00098643       ?GetGenreItem@KCoreShell@@UAEHII@Z 10099643 f   CoreShell.obj
 0001:000986fe       ?GetStatusLockPlayer@KCoreShell@@UAE?AUtagPOINT@@XZ 100996fe f   CoreShell.obj
 0001:00098744       ?GetLixian@KCoreShell@@UAEHXZ 10099744 f   CoreShell.obj
 0001:0009883e       ?GetPaintFindPos@KCoreShell@@UAEHXZ 1009983e f   CoreShell.obj
 0001:00098855       ?SetPaintFindPos@KCoreShell@@UAEXH@Z 10099855 f   CoreShell.obj
 0001:00098893       ?SceneMapFindPosOperation@KCoreShell@@UAEHIIH_N0@Z 10099893 f   CoreShell.obj
 0001:000988f3       ?GetGenreItem@KCoreShell@@QAEHI@Z 100998f3 f   CoreShell.obj
 0001:00098928       ?GetDetailItem@KCoreShell@@UAEHI@Z 10099928 f   CoreShell.obj
 0001:0009895d       ?GetParticularItem@KCoreShell@@UAEHI@Z 1009995d f   CoreShell.obj
 0001:00098992       ?GetLevelItem@KCoreShell@@UAEHI@Z 10099992 f   CoreShell.obj
 0001:000989c9       ?GetSeriesItem@KCoreShell@@UAEHI@Z 100999c9 f   CoreShell.obj
 0001:000989fe       ?GetNumStack@KCoreShell@@UAEHI@Z 100999fe f   CoreShell.obj
 0001:00098a30       ??0KCoreShell@@QAE@XZ      10099a30 f i CoreShell.obj
 0001:00098a60       ??0iCoreShell@@QAE@XZ      10099a60 f i CoreShell.obj
 0001:00098a80       ?GetDisCountPrice@KItem@@QBEEXZ 10099a80 f i CoreShell.obj
 0001:00098aa0       ?GetPriceType@KItem@@QBEEXZ 10099aa0 f i CoreShell.obj
 0001:00098ac0       ?GetPlayerShopPrice@KItem@@QBEHXZ 10099ac0 f i CoreShell.obj
 0001:00098ae0       ?GetImageName@KItem@@QBEPADXZ 10099ae0 f i CoreShell.obj
 0001:00098b00       ?GetHotSell@KItem@@QBEHXZ  10099b00 f i CoreShell.obj
 0001:00098b20       ?GetItemCountMax@KShop@@QBEEXZ 10099b20 f i CoreShell.obj
 0001:00098b40       ?GetItemIndex@KShop@@QBEHH@Z 10099b40 f i CoreShell.obj
 0001:00098b70       ?GetItemPosX@KShop@@QBEHH@Z 10099b70 f i CoreShell.obj
 0001:00098ba0       ?GetItemPosY@KShop@@QBEHH@Z 10099ba0 f i CoreShell.obj
 0001:00098bd0       ?GetItemCount@KShop@@QBEEXZ 10099bd0 f i CoreShell.obj
 0001:00098bf0       ?GetWidth@KBuySell@@QAEHXZ 10099bf0 f i CoreShell.obj
 0001:00098c10       ?GetHeight@KBuySell@@QAEHXZ 10099c10 f i CoreShell.obj
 0001:00098c30       ?GetMarketHeight@KBuySell@@QBEEXZ 10099c30 f i CoreShell.obj
 0001:00098c50       ?GetMarketID@KBuySell@@QBEHH@Z 10099c50 f i CoreShell.obj
 0001:00098c70       ?GetMarketName@KBuySell@@QBEPADH@Z 10099c70 f i CoreShell.obj
 0001:00098c90       ?GetTargetNpc@KPlayer@@QAEHXZ 10099c90 f i CoreShell.obj
 0001:00098cb0       ?SetTargetNpc@KPlayer@@QAEXH@Z 10099cb0 f i CoreShell.obj
 0001:00098cd0       ?GetTargetObj@KPlayer@@QAEHXZ 10099cd0 f i CoreShell.obj
 0001:00098cf0       ?SetTargetObj@KPlayer@@QAEXH@Z 10099cf0 f i CoreShell.obj
 0001:00098d10       ?setStand@KJXPathFinder@@QAEXHH@Z 10099d10 f i CoreShell.obj
 0001:00098d40       ?getStand@KJXPathFinder@@QAE?AUFindPathNode@@XZ 10099d40 f i CoreShell.obj
 0001:00098d70       ?GetMusicVolume@KOption@@QAEHXZ 10099d70 f i CoreShell.obj
 0001:00098d90       ?CheckIn@KPlayerTong@@QAEHXZ 10099d90 f i CoreShell.obj
 0001:00098db0       ?GetAutoFlag@KPlayer@@QAEHXZ 10099db0 f i CoreShell.obj
 0001:00098dd0       ?GetSpaceFlag@KPlayerAI@@QAEHXZ 10099dd0 f i CoreShell.obj
 0001:00098df0       ?begin@?$vector@UFindPathNode@@V?$allocator@UFindPathNode@@@std@@@std@@QAEPAUFindPathNode@@XZ 10099df0 f i CoreShell.obj
 0001:00098e10       ?empty@?$vector@UFindPathNode@@V?$allocator@UFindPathNode@@@std@@@std@@QBE_NXZ 10099e10 f i CoreShell.obj
 0001:00098e40       ?front@?$vector@UFindPathNode@@V?$allocator@UFindPathNode@@@std@@@std@@QAEAAUFindPathNode@@XZ 10099e40 f i CoreShell.obj
 0001:00098e70       ?back@?$vector@UFindPathNode@@V?$allocator@UFindPathNode@@@std@@@std@@QAEAAUFindPathNode@@XZ 10099e70 f i CoreShell.obj
 0001:00098ea0       ?erase@?$vector@UFindPathNode@@V?$allocator@UFindPathNode@@@std@@@std@@QAEPAUFindPathNode@@PAU3@@Z 10099ea0 f i CoreShell.obj
 0001:00098f10       ?end@?$vector@UFindPathNode@@V?$allocator@UFindPathNode@@@std@@@std@@QAEPAUFindPathNode@@XZ 10099f10 f i CoreShell.obj
 0001:00098f30       ?size@?$vector@UFindPathNode@@V?$allocator@UFindPathNode@@@std@@@std@@QBEIXZ 10099f30 f i CoreShell.obj
 0001:00098f80       ?copy@std@@YAPAUFindPathNode@@PAU2@00@Z 10099f80 f i CoreShell.obj
 0001:00098fc0       ??0KIpotBranch@@QAE@XZ     10099fc0 f   KIpotBranch.obj
 0001:0009904c       ??1KIpotBranch@@QAE@XZ     1009a04c f   KIpotBranch.obj
 0001:00099070       ?EnumerateObjects@KIpotBranch@@QAEXPAXP6AX0PAUKIpotLeaf@@@Z@Z 1009a070 f   KIpotBranch.obj
 0001:0009917d       ?PaintObjectLayer@KIpotBranch@@QAEXPAUtagRECT@@@Z 1009a17d f   KIpotBranch.obj
 0001:00099272       ?PaintABranchObject@KIpotBranch@@ABEXPAUKIpotBuildinObj@@PAUtagRECT@@@Z 1009a272 f   KIpotBranch.obj
 0001:0009974b       ?PaintNoneObjectLayer@KIpotBranch@@QAEXPAUtagRECT@@H@Z 1009a74b f   KIpotBranch.obj
 0001:000997e0       ?RemoveAllRtoLeafs@KIpotBranch@@QAEXPAUKIpotLeaf@@@Z 1009a7e0 f   KIpotBranch.obj
 0001:0009986d       ?AddAObject@KIpotBranch@@QAEXPAUKIpotBuildinObj@@@Z 1009a86d f   KIpotBranch.obj
 0001:000999ac       ?AddBranch@KIpotBranch@@QAEXPAUKIpotBuildinObj@@@Z 1009a9ac f   KIpotBranch.obj
 0001:00099bc8       ?AddSubBranch@KIpotBranch@@AAEXHPAUKIpotBuildinObj@@@Z 1009abc8 f   KIpotBranch.obj
 0001:00099ce4       ?Clear@KIpotBranch@@QAEXXZ 1009ace4 f   KIpotBranch.obj
 0001:00099ea2       ?SetLine@KIpotBranch@@QAEXPAUtagPOINT@@0@Z 1009aea2 f   KIpotBranch.obj
 0001:00099ee4       ?AddLeafLine@KIpotBranch@@QAEXPAUKIpotBuildinObj@@@Z 1009aee4 f   KIpotBranch.obj
 0001:0009a019       ?AddLeafPoint@KIpotBranch@@QAEXPAUKIpotLeaf@@@Z 1009b019 f   KIpotBranch.obj
 0001:0009a0ee       ?AddPointLeafToList@KIpotBranch@@AAEXAAPAUKIpotLeaf@@PAU2@1@Z 1009b0ee f   KIpotBranch.obj
 0001:0009a3da       ?AddLineLeafToList@KIpotBranch@@AAEXAAPAUKIpotLeaf@@PAUKIpotBuildinObj@@@Z 1009b3da f   KIpotBranch.obj
 0001:0009a660       ??_GKIpotBranch@@QAEPAXI@Z 1009b660 f i KIpotBranch.obj
 0001:0009a6a0       ?Pluck@KIpotRuntimeObj@@QAEXXZ 1009b6a0 f   KIpotLeaf.obj
 0001:0009a79f       ?KIpotLeaf_EnumerateObjects@@YAXPAUKIpotLeaf@@PAXP6AX10@Z@Z 1009b79f f   KIpotLeaf.obj
 0001:0009a815       ?KIpotLeaf_PaintObjectLayer@@YAXPAUKIpotLeaf@@PAUtagRECT@@@Z 1009b815 f   KIpotLeaf.obj
 0001:0009a995       ?KIpotLeaf_PaintNoneObjectLayer@@YAXPAUKIpotLeaf@@PAUtagRECT@@H@Z 1009b995 f   KIpotLeaf.obj
 0001:0009aa86       ?PaintABuildinObject@KIpotBuildinObj@@QAEXPAUtagRECT@@@Z 1009ba86 f   KIpotLeaf.obj
 0001:0009adde       ?KIpotLeaf_RemoveAllRtoLeafs@@YAXPAUKIpotLeaf@@0@Z 1009bdde f   KIpotLeaf.obj
 0001:0009ae90       ?KIpotLeaf_Clear@@YAXPAUKIpotLeaf@@@Z 1009be90 f   KIpotLeaf.obj
 0001:0009af3b       ?Clone@KIpotBuildinObj@@QAEPAU1@PAUtagPOINT@@@Z 1009bf3b f   KIpotLeaf.obj
 0001:0009b06f       ?BuildinObjNextFrame@@YAXPAUKBuildinObj@@@Z 1009c06f f   KIpotLeaf.obj
 0001:0009b1e0       ??0KSelfBreathLight@@QAE@XZ 1009c1e0 f   KIpoTree.obj
 0001:0009b231       ?Breath@KSelfBreathLight@@UAEXXZ 1009c231 f   KIpoTree.obj
 0001:0009b32b       ??0KIpoTree@@QAE@XZ        1009c32b f   KIpoTree.obj
 0001:0009b4fc       ??1KIpoTree@@QAE@XZ        1009c4fc f   KIpoTree.obj
 0001:0009b5f6       ?Paint@KIpoTree@@QAEXPAUtagRECT@@W4IPOT_RENDER_LAYER@@@Z 1009c5f6 f   KIpoTree.obj
 0001:0009b6c0       ?Breathe@KIpoTree@@QAEXXZ  1009c6c0 f   KIpoTree.obj
 0001:0009b76c       ?Clear@KIpoTree@@QAEXXZ    1009c76c f   KIpoTree.obj
 0001:0009b864       ?RemoveRtoGroupWithPermanentLeaf@KIpoTree@@AAEXXZ 1009c864 f   KIpoTree.obj
 0001:0009b8b0       ?AddBranch@KIpoTree@@QAEXPAUKIpotBuildinObj@@@Z 1009c8b0 f   KIpoTree.obj
 0001:0009b968       ?Fell@KIpoTree@@QAEXXZ     1009c968 f   KIpoTree.obj
 0001:0009ba9b       ?AddLeafLine@KIpoTree@@QAEXPAUKIpotBuildinObj@@@Z 1009ca9b f   KIpoTree.obj
 0001:0009bae0       ?AddLeafPoint@KIpoTree@@QAEXPAUKIpotLeaf@@@Z 1009cae0 f   KIpoTree.obj
 0001:0009bd73       ?PluckRto@KIpoTree@@QAEXPAUKIpotRuntimeObj@@@Z 1009cd73 f   KIpoTree.obj
 0001:0009be3d       ?SetPermanentBranchPos@KIpoTree@@QAEXHHH@Z 1009ce3d f   KIpoTree.obj
 0001:0009bec7       ?StrewRtoLeafs@KIpoTree@@QAEXAAUtagRECT@@@Z 1009cec7 f   KIpoTree.obj
 0001:0009bffc       ?ObjectsCallback@KIpoTree@@CAXPAXPAUKIpotLeaf@@@Z 1009cffc f   KIpoTree.obj
 0001:0009c1e2       ?FillLineObstacle@KIpoTree@@AAEXHHHHH@Z 1009d1e2 f   KIpoTree.obj
 0001:0009c7bc       ?RenderLightMap@KIpoTree@@QAEXXZ 1009d7bc f   KIpoTree.obj
 0001:0009d482       ?CanLighting@KIpoTree@@AAE_NHHHH@Z 1009e482 f   KIpoTree.obj
 0001:0009d7f2       ?AddBuildinLight@KIpoTree@@QAEXPAUKBuildInLightInfo@@H@Z 1009e7f2 f   KIpoTree.obj
 0001:0009da45       ?EnableBioLights@KIpoTree@@QAEX_N@Z 1009ea45 f   KIpoTree.obj
 0001:0009db22       ?EnableDynamicLights@KIpoTree@@QAEX_N@Z 1009eb22 f   KIpoTree.obj
 0001:0009db40       ??0KLightBase@@QAE@XZ      1009eb40 f i KIpoTree.obj
 0001:0009db60       ?Breath@KLightBase@@UAEXXZ 1009eb60 f i KIpoTree.obj
 0001:0009db80       ?SetColor@KLColor@@QAEXK@Z 1009eb80 f i KIpoTree.obj
 0001:0009dbd0       ?Scale@KLColor@@QAEXM@Z    1009ebd0 f i KIpoTree.obj
 0001:0009dc50       ?GetColor@KLColor@@QAEKXZ  1009ec50 f i KIpoTree.obj
 0001:0009dc90       ??0?$list@PAVKLightBase@@V?$allocator@PAVKLightBase@@@std@@@std@@QAE@ABV?$allocator@PAVKLightBase@@@1@@Z 1009ec90 f i KIpoTree.obj
 0001:0009dce0       ??1?$list@PAVKLightBase@@V?$allocator@PAVKLightBase@@@std@@@std@@QAE@XZ 1009ece0 f i KIpoTree.obj
 0001:0009dd60       ?begin@?$list@PAVKLightBase@@V?$allocator@PAVKLightBase@@@std@@@std@@QAE?AViterator@12@XZ 1009ed60 f i KIpoTree.obj
 0001:0009ddb0       ?end@?$list@PAVKLightBase@@V?$allocator@PAVKLightBase@@@std@@@std@@QAE?AViterator@12@XZ 1009edb0 f i KIpoTree.obj
 0001:0009ddf0       ?size@?$list@PAVKLightBase@@V?$allocator@PAVKLightBase@@@std@@@std@@QBEIXZ 1009edf0 f i KIpoTree.obj
 0001:0009de10       ?push_back@?$list@PAVKLightBase@@V?$allocator@PAVKLightBase@@@std@@@std@@QAEXABQAVKLightBase@@@Z 1009ee10 f i KIpoTree.obj
 0001:0009de60       ?erase@?$list@PAVKLightBase@@V?$allocator@PAVKLightBase@@@std@@@std@@QAE?AViterator@12@V312@@Z 1009ee60 f i KIpoTree.obj
 0001:0009df40       ?clear@?$list@PAVKLightBase@@V?$allocator@PAVKLightBase@@@std@@@std@@QAEXXZ 1009ef40 f i KIpoTree.obj
 0001:0009dfa0       ??0iterator@?$list@PAVKLightBase@@V?$allocator@PAVKLightBase@@@std@@@std@@QAE@XZ 1009efa0 f i KIpoTree.obj
 0001:0009dfd0       ??Diterator@?$list@PAVKLightBase@@V?$allocator@PAVKLightBase@@@std@@@std@@QBEAAPAVKLightBase@@XZ 1009efd0 f i KIpoTree.obj
 0001:0009e000       ??Eiterator@?$list@PAVKLightBase@@V?$allocator@PAVKLightBase@@@std@@@std@@QAEAAV012@XZ 1009f000 f i KIpoTree.obj
 0001:0009e040       ??9iterator@?$list@PAVKLightBase@@V?$allocator@PAVKLightBase@@@std@@@std@@QBE_NABV012@@Z 1009f040 f i KIpoTree.obj
 0001:0009e080       ?insert@?$list@PAVKLightBase@@V?$allocator@PAVKLightBase@@@std@@@std@@QAE?AViterator@12@V312@ABQAVKLightBase@@@Z 1009f080 f i KIpoTree.obj
 0001:0009e160       ?erase@?$list@PAVKLightBase@@V?$allocator@PAVKLightBase@@@std@@@std@@QAE?AViterator@12@V312@0@Z 1009f160 f i KIpoTree.obj
 0001:0009e1d0       ?_Buynode@?$list@PAVKLightBase@@V?$allocator@PAVKLightBase@@@std@@@std@@IAEPAU_Node@12@PAU312@0@Z 1009f1d0 f i KIpoTree.obj
 0001:0009e260       ?_Freenode@?$list@PAVKLightBase@@V?$allocator@PAVKLightBase@@@std@@@std@@IAEXPAU_Node@12@@Z 1009f260 f i KIpoTree.obj
 0001:0009e290       ?_Next@_Acc@?$list@PAVKLightBase@@V?$allocator@PAVKLightBase@@@std@@@std@@SAAAPAU_Node@23@PAU423@@Z 1009f290 f i KIpoTree.obj
 0001:0009e2a0       ?_Prev@_Acc@?$list@PAVKLightBase@@V?$allocator@PAVKLightBase@@@std@@@std@@SAAAPAU_Node@23@PAU423@@Z 1009f2a0 f i KIpoTree.obj
 0001:0009e2b0       ?_Value@_Acc@?$list@PAVKLightBase@@V?$allocator@PAVKLightBase@@@std@@@std@@SAAAPAVKLightBase@@PAU_Node@23@@Z 1009f2b0 f i KIpoTree.obj
 0001:0009e2c0       ?destroy@?$allocator@PAVKLightBase@@@std@@QAEXPAPAVKLightBase@@@Z 1009f2c0 f i KIpoTree.obj
 0001:0009e2f0       ??0const_iterator@?$list@PAVKLightBase@@V?$allocator@PAVKLightBase@@@std@@@std@@QAE@XZ 1009f2f0 f i KIpoTree.obj
 0001:0009e310       ?_Mynode@const_iterator@?$list@PAVKLightBase@@V?$allocator@PAVKLightBase@@@std@@@std@@QBEPAU_Node@23@XZ 1009f310 f i KIpoTree.obj
 0001:0009e330       ??0iterator@?$list@PAVKLightBase@@V?$allocator@PAVKLightBase@@@std@@@std@@QAE@PAU_Node@12@@Z 1009f330 f i KIpoTree.obj
 0001:0009e360       ??Eiterator@?$list@PAVKLightBase@@V?$allocator@PAVKLightBase@@@std@@@std@@QAE?AV012@H@Z 1009f360 f i KIpoTree.obj
 0001:0009e3b0       ??8iterator@?$list@PAVKLightBase@@V?$allocator@PAVKLightBase@@@std@@@std@@QBE_NABV012@@Z 1009f3b0 f i KIpoTree.obj
 0001:0009e3e0       ?_Charalloc@?$allocator@PAVKLightBase@@@std@@QAEPADI@Z 1009f3e0 f i KIpoTree.obj
 0001:0009e410       ?deallocate@?$allocator@PAVKLightBase@@@std@@QAEXPAXI@Z 1009f410 f i KIpoTree.obj
 0001:0009e440       ?construct@?$allocator@PAVKLightBase@@@std@@QAEXPAPAVKLightBase@@ABQAV3@@Z 1009f440 f i KIpoTree.obj
 0001:0009e470       ??0const_iterator@?$list@PAVKLightBase@@V?$allocator@PAVKLightBase@@@std@@@std@@QAE@PAU_Node@12@@Z 1009f470 f i KIpoTree.obj
 0001:0009e490       ?_Destroy@std@@YAXPAPAVKLightBase@@@Z 1009f490 f i KIpoTree.obj
 0001:0009e4a0       ?_Allocate@std@@YAPADHPAD@Z 1009f4a0 f i KIpoTree.obj
 0001:0009e4d0       ?_Construct@std@@YAXPAPAVKLightBase@@ABQAV2@@Z 1009f4d0 f i KIpoTree.obj
 0001:0009e530       ??2@YAPAXIPAX@Z            1009f530 f i KIpoTree.obj
 0001:0009e59b       ?ChaZhiColor@@YAKAAUKLColor@@0M@Z 1009f59b f   KScenePlaceC.obj
 0001:0009e68a       ??0EnvironmentLight@@QAE@XZ 1009f68a f   KScenePlaceC.obj
 0001:0009e7a4       ?SetLight@EnvironmentLight@@QAEXABUKLColor@@H@Z 1009f7a4 f   KScenePlaceC.obj
 0001:0009e7cf       ?SetLight@EnvironmentLight@@QAEXEEEH@Z 1009f7cf f   KScenePlaceC.obj
 0001:0009e812       ?SetLight@EnvironmentLight@@QAEXPAUKLColor@@@Z 1009f812 f   KScenePlaceC.obj
 0001:0009e865       ?GetEnvironmentLight@EnvironmentLight@@QAEKH@Z 1009f865 f   KScenePlaceC.obj
 0001:0009eb65       ??0KScenePlaceC@@QAE@XZ    1009fb65 f   KScenePlaceC.obj
 0001:0009ee9d       ??1KScenePlaceC@@QAE@XZ    1009fe9d f   KScenePlaceC.obj
 0001:0009ef2c       ?ClosePlace@KScenePlaceC@@QAEXXZ 1009ff2c f   KScenePlaceC.obj
 0001:0009f189       ?Initialize@KScenePlaceC@@QAE_NXZ 100a0189 f   KScenePlaceC.obj
 0001:0009f32d       ?CalcFlagPos@KScenePlaceC@@QAEXHH_N0@Z 100a032d f   KScenePlaceC.obj
 0001:0009f369       ?OpenPlace@KScenePlaceC@@QAE_NH@Z 100a0369 f   KScenePlaceC.obj
 0001:0009ffb9       ?SetFocusPosition@KScenePlaceC@@QAEXHHH@Z 100a0fb9 f   KScenePlaceC.obj
 0001:000a06a5       ?SetRepresentAreaSize@KScenePlaceC@@QAEXHH@Z 100a16a5 f   KScenePlaceC.obj
 0001:000a0719       ?GetFocusPosition@KScenePlaceC@@QAEXAAH00@Z 100a1719 f   KScenePlaceC.obj
 0001:000a074c       ?Terminate@KScenePlaceC@@QAEXXZ 100a174c f   KScenePlaceC.obj
 0001:000a0955       ?PreLoadProcess@KScenePlaceC@@AAEXXZ 100a1955 f   KScenePlaceC.obj
 0001:000a0bf1       ?LoadProcess@KScenePlaceC@@AAEXXZ 100a1bf1 f   KScenePlaceC.obj
 0001:000a0d56       ?LoadThreadEntrance@KScenePlaceC@@CGKPAX@Z 100a1d56 f   KScenePlaceC.obj
 0001:000a0d74       ?SetRegionsToLoad@KScenePlaceC@@AAEXXZ 100a1d74 f   KScenePlaceC.obj
 0001:000a137e       ?AddObject@KScenePlaceC@@QAEIIHHHHH@Z 100a237e f   KScenePlaceC.obj
 0001:000a14fb       ?MoveObject@KScenePlaceC@@QAEIIHHHHAAIH@Z 100a24fb f   KScenePlaceC.obj
 0001:000a16e7       ?RemoveObject@KScenePlaceC@@QAEXIHAAI@Z 100a26e7 f   KScenePlaceC.obj
 0001:000a1770       ?Breathe@KScenePlaceC@@QAEXXZ 100a2770 f   KScenePlaceC.obj
 0001:000a18f2       ?Paint@KScenePlaceC@@QAEXXZ 100a28f2 f   KScenePlaceC.obj
 0001:000a1e2e       ?ChangeLoadArea@KScenePlaceC@@AAEXXZ 100a2e2e f   KScenePlaceC.obj
 0001:000a1e52       ?ChangeProcessArea@KScenePlaceC@@AAEXXZ 100a2e52 f   KScenePlaceC.obj
 0001:000a2111       ?PrerenderGround@KScenePlaceC@@AAEX_N@Z 100a3111 f   KScenePlaceC.obj
 0001:000a21ab       ?Preprocess@KScenePlaceC@@AAEXXZ 100a31ab f   KScenePlaceC.obj
 0001:000a2ecd       ?ClearPreprocess@KScenePlaceC@@AAEXH@Z 100a3ecd f   KScenePlaceC.obj
 0001:000a2f7f       ?ProjectDistToSpaceDist@KScenePlaceC@@QAEXAAH0@Z 100a3f7f f   KScenePlaceC.obj
 0001:000a2fa2       ?ViewPortCoordToSpaceCoord@KScenePlaceC@@QAEXAAH0H@Z 100a3fa2 f   KScenePlaceC.obj
 0001:000a3034       ?GetRegionLeftTopPos@KScenePlaceC@@QAEXHHAAH0@Z 100a4034 f   KScenePlaceC.obj
 0001:000a305e       ?ARegionLoaded@KScenePlaceC@@AAEXPAVKScenePlaceRegionC@@@Z 100a405e f   KScenePlaceC.obj
 0001:000a3386       ?GetFreeGroundImage@KScenePlaceC@@AAEPAUKRUImage@@XZ 100a4386 f   KScenePlaceC.obj
 0001:000a33f3       ?GetObstacleInfo@KScenePlaceC@@QAEJHH@Z 100a43f3 f   KScenePlaceC.obj
 0001:000a34b7       ?GetObstacleInfoMin@KScenePlaceC@@QAEJHHHH@Z 100a44b7 f   KScenePlaceC.obj
 0001:000a3583       ?RepresentShellReset@KScenePlaceC@@QAEXXZ 100a4583 f   KScenePlaceC.obj
 0001:000a35e1       ?SetRegionLoadedCallback@KScenePlaceC@@QAEXP6AXHH@Z@Z 100a45e1 f   KScenePlaceC.obj
 0001:000a35fe       ?SetHightLightSpecialObject@KScenePlaceC@@QAEXHHH@Z 100a45fe f   KScenePlaceC.obj
 0001:000a3761       ?UnsetHightLightSpecialObject@KScenePlaceC@@QAEXXZ 100a4761 f   KScenePlaceC.obj
 0001:000a383a       ?GetLoadedRegion@KScenePlaceC@@AAEPAVKScenePlaceRegionC@@HH@Z 100a483a f   KScenePlaceC.obj
 0001:000a391f       ?GetSceneNameAndFocus@KScenePlaceC@@QAEXPADAAH11@Z 100a491f f   KScenePlaceC.obj
 0001:000a39c3       ?GetSceneCalgFlagPos@KScenePlaceC@@QAEXAAH0@Z 100a49c3 f   KScenePlaceC.obj
 0001:000a3a05       ?SetAmbient@KScenePlaceC@@QAEXK@Z 100a4a05 f   KScenePlaceC.obj
 0001:000a3a35       ?SetCurrentTime@KScenePlaceC@@QAEXK@Z 100a4a35 f   KScenePlaceC.obj
 0001:000a3a89       ?SetEnvironmentLight@KScenePlaceC@@QAEXHEEE@Z 100a4a89 f   KScenePlaceC.obj
 0001:000a3ac5       ?EnableBioLights@KScenePlaceC@@QAEX_N@Z 100a4ac5 f   KScenePlaceC.obj
 0001:000a3af5       ?EnableDynamicLights@KScenePlaceC@@QAEX_N@Z 100a4af5 f   KScenePlaceC.obj
 0001:000a3b25       ?ChangeWeather@KScenePlaceC@@QAEXH@Z 100a4b25 f   KScenePlaceC.obj
 0001:000a3c84       ?EnableWeather@KScenePlaceC@@QAEXH@Z 100a4c84 f   KScenePlaceC.obj
 0001:000a3cde       ?SetLoadingStatus@KScenePlaceC@@AAEX_N@Z 100a4cde f   KScenePlaceC.obj
 0001:000a3d5d       ?PaintMap@KScenePlaceC@@QAEXHH@Z 100a4d5d f   KScenePlaceC.obj
 0001:000a3d91       ?SetMapParam@KScenePlaceC@@QAEXIH@Z 100a4d91 f   KScenePlaceC.obj
 0001:000a3de6       ?SetMapFocusPositionOffset@KScenePlaceC@@QAEXHH@Z 100a4de6 f   KScenePlaceC.obj
 0001:000a3e7a       ?GetMapInfo@KScenePlaceC@@QAEHPAUKSceneMapInfo@@@Z 100a4e7a f   KScenePlaceC.obj
 0001:000a3fdf       ?FollowMapMove@KScenePlaceC@@QAEXH@Z 100a4fdf f   KScenePlaceC.obj
 0001:000a40d2       ?LoadIni@KScenePlaceC@@QAEXPAVKIniFile@@@Z 100a50d2 f   KScenePlaceC.obj
 0001:000a46cf       ?PaintOverCloud@KScenePlaceC@@QAEXXZ 100a56cf f   KScenePlaceC.obj
 0001:000a48c3       ?PaintBackGroundCloud@KScenePlaceC@@QAEXXZ 100a58c3 f   KScenePlaceC.obj
 0001:000a4a2a       ?GetLittleMap@KScenePlaceC@@QAEPAVKLittleMap@@XZ 100a5a2a f   KScenePlaceC.obj
 0001:000a4a44       ?GetKScenePlaceMapC@KScenePlaceC@@QAEPAVKScenePlaceMapC@@XZ 100a5a44 f   KScenePlaceC.obj
 0001:000a4a5e       ?JxPathFinderClear@KScenePlaceC@@QAEXXZ 100a5a5e f   KScenePlaceC.obj
 0001:000a4a90       ?SetIsIndoor@KIpoTree@@QAEX_N@Z 100a5a90 f i KScenePlaceC.obj
 0001:000a4ab0       ?SetLightenAreaLeftTopPos@KIpoTree@@QAEXHH@Z 100a5ab0 f i KScenePlaceC.obj
 0001:000a4ae0       ?SetFocusPos@KWeather@@QAEXHH@Z 100a5ae0 f i KScenePlaceC.obj
 0001:000a4b30       ?GetPrerenderGroundImage@KScenePlaceRegionC@@QAEPAUKRUImage@@XZ 100a5b30 f i KScenePlaceC.obj
 0001:000a4b50       ??0TreeObjSet@?BH@??Preprocess@KScenePlaceC@@AAEXXZ@QAE@XZ 100a5b50 f i KScenePlaceC.obj
 0001:000a4b80       ??_ETreeObjSet@?BH@??Preprocess@KScenePlaceC@@AAEXXZ@UAEPAXI@Z 100a5b80 f i KScenePlaceC.obj
 0001:000a4c10       ??1TreeObjSet@?BH@??Preprocess@KScenePlaceC@@AAEXXZ@UAE@XZ 100a5c10 f i KScenePlaceC.obj
 0001:000a4c40       ?SetAmbient@KIpoTree@@QAEXK@Z 100a5c40 f i KScenePlaceC.obj
 0001:000a4c60       ?SetCurrentTime@KIpoTree@@QAEXH@Z 100a5c60 f i KScenePlaceC.obj
 0001:000a4c80       ?ShutDown@KWeather@@QAEXXZ 100a5c80 f i KScenePlaceC.obj
 0001:000a4ca0       ??0KScenePlaceRegionC@@QAE@XZ 100a5ca0 f   KScenePlaceRegionC.obj
 0001:000a4d57       ??1KScenePlaceRegionC@@QAE@XZ 100a5d57 f   KScenePlaceRegionC.obj
 0001:000a4d7b       ?GetRegionIndex@KScenePlaceRegionC@@QBEXAAH0@Z 100a5d7b f   KScenePlaceRegionC.obj
 0001:000a4da5       ?ToLoad@KScenePlaceRegionC@@QAE_NHH@Z 100a5da5 f   KScenePlaceRegionC.obj
 0001:000a4e23       ?Load@KScenePlaceRegionC@@QAE_NPBD@Z 100a5e23 f   KScenePlaceRegionC.obj
 0001:000a537d       ?Clear@KScenePlaceRegionC@@QAEXXZ 100a637d f   KScenePlaceRegionC.obj
 0001:000a54c8       ?PrerenderGround@KScenePlaceRegionC@@QAE_N_N@Z 100a64c8 f   KScenePlaceRegionC.obj
 0001:000a5917       ?SetNestRegion@KScenePlaceRegionC@@QAEXPAV1@@Z 100a6917 f   KScenePlaceRegionC.obj
 0001:000a5b7e       ?LoadGroundLayer@KScenePlaceRegionC@@AAE_NPAVKPakFile@@I@Z 100a6b7e f   KScenePlaceRegionC.obj
 0001:000a5d06       ?AddGrundCoverObj@KScenePlaceRegionC@@AAEXPAUKSPRCoverGroundObj@@@Z 100a6d06 f   KScenePlaceRegionC.obj
 0001:000a5efb       ?LoadObstacle@KScenePlaceRegionC@@AAEXPAVKPakFile@@I@Z 100a6efb f   KScenePlaceRegionC.obj
 0001:000a5f60       ?LoadTrap@KScenePlaceRegionC@@AAEXPAVKPakFile@@I@Z 100a6f60 f   KScenePlaceRegionC.obj
 0001:000a606e       ?LoadAboveGroundObjects@KScenePlaceRegionC@@AAE_NPAVKPakFile@@I@Z 100a706e f   KScenePlaceRegionC.obj
 0001:000a62f3       ?PaintGroundDirect@KScenePlaceRegionC@@QAEXXZ 100a72f3 f   KScenePlaceRegionC.obj
 0001:000a68ae       ?PaintOverCloud@KScenePlaceRegionC@@QAEXXZ 100a78ae f   KScenePlaceRegionC.obj
 0001:000a6e9e       ?PaintOverCloud_up@KScenePlaceRegionC@@QAEXXZ 100a7e9e f   KScenePlaceRegionC.obj
 0001:000a70c9       ?PaintGround@KScenePlaceRegionC@@QAEX_N@Z 100a80c9 f   KScenePlaceRegionC.obj
 0001:000a7130       ?PaintObstacle@KScenePlaceRegionC@@QAEXXZ 100a8130 f   KScenePlaceRegionC.obj
 0001:000a75b4       ?PaintAboveHeadObj@KScenePlaceRegionC@@SAXPAUKBuildinObj@@PAUtagRECT@@@Z 100a85b4 f   KScenePlaceRegionC.obj
 0001:000a77bc       ?GetAboveHeadLayer@KScenePlaceRegionC@@QAEIAAPAUKBuildinObj@@@Z 100a87bc f   KScenePlaceRegionC.obj
 0001:000a782a       ?GetBuildinLights@KScenePlaceRegionC@@QAEIAAPAUKBuildInLightInfo@@@Z 100a882a f   KScenePlaceRegionC.obj
 0001:000a787e       ?GetBuildinObjs@KScenePlaceRegionC@@QAEXAAPAUKIpotBuildinObj@@AAI0101@Z 100a887e f   KScenePlaceRegionC.obj
 0001:000a796e       ?GetBIOSBuildinObjs@KScenePlaceRegionC@@QAEXAAPAUKBuildinObj@@AAI@Z 100a896e f   KScenePlaceRegionC.obj
 0001:000a79a9       ?LeaveProcessArea@KScenePlaceRegionC@@QAEXXZ 100a89a9 f   KScenePlaceRegionC.obj
 0001:000a7a1a       ?EnterProcessArea@KScenePlaceRegionC@@QAEXPAUKRUImage@@@Z 100a8a1a f   KScenePlaceRegionC.obj
 0001:000a7dba       ?GetObstacleInfo@KScenePlaceRegionC@@QAEJHH@Z 100a8dba f   KScenePlaceRegionC.obj
 0001:000a7f36       ?GetObstacleInfoMin@KScenePlaceRegionC@@QAEJHHHH@Z 100a8f36 f   KScenePlaceRegionC.obj
 0001:000a8117       ?SetHightLightSpecialObject@KScenePlaceRegionC@@QAEXI@Z 100a9117 f   KScenePlaceRegionC.obj
 0001:000a8166       ?UnsetHightLightSpecialObject@KScenePlaceRegionC@@QAEXI@Z 100a9166 f   KScenePlaceRegionC.obj
 0001:000a81c0       ??0KWeather@@QAE@XZ        100a91c0 f   KWeather.obj
 0001:000a826c       ??1KWeather@@UAE@XZ        100a926c f   KWeather.obj
 0001:000a82d4       ?Breath@KWeather@@UAEXXZ   100a92d4 f   KWeather.obj
 0001:000a831f       ??0KWeatherRain@@QAE@XZ    100a931f f   KWeather.obj
 0001:000a841b       ??1KWeatherRain@@UAE@XZ    100a941b f   KWeather.obj
 0001:000a84a8       ?ReadInfoFromIniFile@KWeatherRain@@UAE_NH@Z 100a94a8 f   KWeather.obj
 0001:000a88ec       ?Breath@KWeatherRain@@UAEXXZ 100a98ec f   KWeather.obj
 0001:000a8f87       ?Render@KWeatherRain@@UAEXPAUiRepresentShell@@@Z 100a9f87 f   KWeather.obj
 0001:000a9238       ?FilterAmbient@KWeatherRain@@UAEXAAK@Z 100aa238 f   KWeather.obj
 0001:000a92b1       ?ReadInfoFromIniFile@KWeatherSnow@@UAE_NH@Z 100aa2b1 f   KWeather.obj
 0001:000a94b7       ?Breath@KWeatherSnow@@UAEXXZ 100aa4b7 f   KWeather.obj
 0001:000a97be       ?Render@KWeatherSnow@@UAEXPAUiRepresentShell@@@Z 100aa7be f   KWeather.obj
 0001:000a9a20       ?FilterAmbient@KWeather@@UAEXAAK@Z 100aaa20 f i KWeather.obj
 0001:000a9a40       ??_GKWeather@@UAEPAXI@Z    100aaa40 f i KWeather.obj
 0001:000a9a40       ??_EKWeather@@UAEPAXI@Z    100aaa40 f i KWeather.obj
 0001:000a9a80       ?IsShutDown@KWeatherRain@@UAE_NXZ 100aaa80 f i KWeather.obj
 0001:000a9aa0       ??_EKWeatherRain@@UAEPAXI@Z 100aaaa0 f i KWeather.obj
 0001:000a9aa0       ??_GKWeatherRain@@UAEPAXI@Z 100aaaa0 f i KWeather.obj
 0001:000a9ae0       ?SetParticleNum@KWeather@@QAEXH@Z 100aaae0 f i KWeather.obj
 0001:000a9b10       ?SetDownSpeed@KWeather@@QAEXM@Z 100aab10 f i KWeather.obj
 0001:000a9b30       ?SetWindSpeed@KWeather@@QAEXM@Z 100aab30 f i KWeather.obj
 0001:000a9b50       ?SetLifeTime@KWeather@@QAEXH@Z 100aab50 f i KWeather.obj
 0001:000a9b80       ?SetFlareTime@KWeatherRain@@QAEXH@Z 100aab80 f i KWeather.obj
 0001:000a9bb0       ?SetColor@KLColor@@QAEXHHH@Z 100aabb0 f i KWeather.obj
 0001:000a9bf0       ??YKLColor@@QAEABU0@AAU0@@Z 100aabf0 f i KWeather.obj
 0001:000a9c50       ??0?$list@UKParticle@@V?$allocator@UKParticle@@@std@@@std@@QAE@ABV?$allocator@UKParticle@@@1@@Z 100aac50 f i KWeather.obj
 0001:000a9ca0       ??1?$list@UKParticle@@V?$allocator@UKParticle@@@std@@@std@@QAE@XZ 100aaca0 f i KWeather.obj
 0001:000a9d20       ?begin@?$list@UKParticle@@V?$allocator@UKParticle@@@std@@@std@@QAE?AViterator@12@XZ 100aad20 f i KWeather.obj
 0001:000a9d70       ?end@?$list@UKParticle@@V?$allocator@UKParticle@@@std@@@std@@QAE?AViterator@12@XZ 100aad70 f i KWeather.obj
 0001:000a9db0       ?push_back@?$list@UKParticle@@V?$allocator@UKParticle@@@std@@@std@@QAEXABUKParticle@@@Z 100aadb0 f i KWeather.obj
 0001:000a9e00       ?erase@?$list@UKParticle@@V?$allocator@UKParticle@@@std@@@std@@QAE?AViterator@12@V312@@Z 100aae00 f i KWeather.obj
 0001:000a9ee0       ?clear@?$list@UKParticle@@V?$allocator@UKParticle@@@std@@@std@@QAEXXZ 100aaee0 f i KWeather.obj
 0001:000a9f40       ??0iterator@?$list@UKParticle@@V?$allocator@UKParticle@@@std@@@std@@QAE@XZ 100aaf40 f i KWeather.obj
 0001:000a9f70       ??Citerator@?$list@UKParticle@@V?$allocator@UKParticle@@@std@@@std@@QBEPAUKParticle@@XZ 100aaf70 f i KWeather.obj
 0001:000a9fa0       ??Eiterator@?$list@UKParticle@@V?$allocator@UKParticle@@@std@@@std@@QAEAAV012@XZ 100aafa0 f i KWeather.obj
 0001:000a9fe0       ??Eiterator@?$list@UKParticle@@V?$allocator@UKParticle@@@std@@@std@@QAE?AV012@H@Z 100aafe0 f i KWeather.obj
 0001:000aa030       ??9iterator@?$list@UKParticle@@V?$allocator@UKParticle@@@std@@@std@@QBE_NABV012@@Z 100ab030 f i KWeather.obj
 0001:000aa070       ?insert@?$list@UKParticle@@V?$allocator@UKParticle@@@std@@@std@@QAE?AViterator@12@V312@ABUKParticle@@@Z 100ab070 f i KWeather.obj
 0001:000aa150       ?erase@?$list@UKParticle@@V?$allocator@UKParticle@@@std@@@std@@QAE?AViterator@12@V312@0@Z 100ab150 f i KWeather.obj
 0001:000aa1c0       ?_Buynode@?$list@UKParticle@@V?$allocator@UKParticle@@@std@@@std@@IAEPAU_Node@12@PAU312@0@Z 100ab1c0 f i KWeather.obj
 0001:000aa250       ?_Freenode@?$list@UKParticle@@V?$allocator@UKParticle@@@std@@@std@@IAEXPAU_Node@12@@Z 100ab250 f i KWeather.obj
 0001:000aa280       ?_Next@_Acc@?$list@UKParticle@@V?$allocator@UKParticle@@@std@@@std@@SAAAPAU_Node@23@PAU423@@Z 100ab280 f i KWeather.obj
 0001:000aa290       ?_Prev@_Acc@?$list@UKParticle@@V?$allocator@UKParticle@@@std@@@std@@SAAAPAU_Node@23@PAU423@@Z 100ab290 f i KWeather.obj
 0001:000aa2a0       ?_Value@_Acc@?$list@UKParticle@@V?$allocator@UKParticle@@@std@@@std@@SAAAUKParticle@@PAU_Node@23@@Z 100ab2a0 f i KWeather.obj
 0001:000aa2b0       ?destroy@?$allocator@UKParticle@@@std@@QAEXPAUKParticle@@@Z 100ab2b0 f i KWeather.obj
 0001:000aa2e0       ??0const_iterator@?$list@UKParticle@@V?$allocator@UKParticle@@@std@@@std@@QAE@XZ 100ab2e0 f i KWeather.obj
 0001:000aa300       ?_Mynode@const_iterator@?$list@UKParticle@@V?$allocator@UKParticle@@@std@@@std@@QBEPAU_Node@23@XZ 100ab300 f i KWeather.obj
 0001:000aa320       ??0iterator@?$list@UKParticle@@V?$allocator@UKParticle@@@std@@@std@@QAE@PAU_Node@12@@Z 100ab320 f i KWeather.obj
 0001:000aa350       ??Diterator@?$list@UKParticle@@V?$allocator@UKParticle@@@std@@@std@@QBEAAUKParticle@@XZ 100ab350 f i KWeather.obj
 0001:000aa380       ??8iterator@?$list@UKParticle@@V?$allocator@UKParticle@@@std@@@std@@QBE_NABV012@@Z 100ab380 f i KWeather.obj
 0001:000aa3b0       ?_Charalloc@?$allocator@UKParticle@@@std@@QAEPADI@Z 100ab3b0 f i KWeather.obj
 0001:000aa3e0       ?deallocate@?$allocator@UKParticle@@@std@@QAEXPAXI@Z 100ab3e0 f i KWeather.obj
 0001:000aa410       ?construct@?$allocator@UKParticle@@@std@@QAEXPAUKParticle@@ABU3@@Z 100ab410 f i KWeather.obj
 0001:000aa440       ??0const_iterator@?$list@UKParticle@@V?$allocator@UKParticle@@@std@@@std@@QAE@PAU_Node@12@@Z 100ab440 f i KWeather.obj
 0001:000aa460       ?_Destroy@std@@YAXPAUKParticle@@@Z 100ab460 f i KWeather.obj
 0001:000aa470       ?_Construct@std@@YAXPAUKParticle@@ABU2@@Z 100ab470 f i KWeather.obj
 0001:000aa4d0       ?SM_IsPointOnLine@@YAHAAUtagPOINT@@0U1@@Z 100ab4d0 f   SceneMath.obj
 0001:000aa591       ?SM_Distance_PointLine@@YAHABUtagPOINT@@00@Z 100ab591 f   SceneMath.obj
 0001:000aa661       ?SM_Relation_PointLine@@YA?AW4RELATION_ENUM@@ABUtagPOINT@@00@Z 100ab661 f   SceneMath.obj
 0001:000aa76e       ?SM_Relation_PointLine_New@@YA?AW4RELATION_ENUM@@ABUtagPOINT@@00@Z 100ab76e f   SceneMath.obj
 0001:000aa8c2       ?SM_Relation_LineLine_CheckCut@@YA?AW4RELATION_ENUM@@ABUtagPOINT@@000AAU2@@Z 100ab8c2 f   SceneMath.obj
 0001:000aab42       ?SM_GetPointFromFloatSting32@@YAXPADAAM11@Z 100abb42 f   SceneMath.obj
 0001:000aacd3       ?ChangeFileName@@YAXPAD0@Z 100abcd3 f   SceneMath.obj
 0001:000aad60       ??0KScenePlaceMapC@@QAE@XZ 100abd60 f   ScenePlaceMapC.obj
 0001:000aaf7e       ??1KScenePlaceMapC@@QAE@XZ 100abf7e f   ScenePlaceMapC.obj
 0001:000ab0ed       ?Initialize@KScenePlaceMapC@@AAE_NXZ 100ac0ed f   ScenePlaceMapC.obj
 0001:000ab372       ?Terminate@KScenePlaceMapC@@QAEXXZ 100ac372 f   ScenePlaceMapC.obj
 0001:000ab495       ?SetShowElemsFlag@KScenePlaceMapC@@QAEXI@Z 100ac495 f   ScenePlaceMapC.obj
 0001:000ab4ed       ?Load@KScenePlaceMapC@@QAEHPAVKIniFile@@PBD@Z 100ac4ed f   ScenePlaceMapC.obj
 0001:000ab7f3       ?SetFocusPosition@KScenePlaceMapC@@QAEXHH_N@Z 100ac7f3 f   ScenePlaceMapC.obj
 0001:000aba1e       ?FillCellsPicInfo@KScenePlaceMapC@@AAEXXZ 100aca1e f   ScenePlaceMapC.obj
 0001:000abf89       ?CalcPicLayout@KScenePlaceMapC@@AAEXXZ 100acf89 f   ScenePlaceMapC.obj
 0001:000ac10b       ?Free@KScenePlaceMapC@@QAEXXZ 100ad10b f   ScenePlaceMapC.obj
 0001:000ac15e       ?PaintMap@KScenePlaceMapC@@QAEXHH@Z 100ad15e f   ScenePlaceMapC.obj
 0001:000ac59a       ?PaintAutoPath@KScenePlaceMapC@@AAEXHH@Z 100ad59a f   ScenePlaceMapC.obj
 0001:000ac77c       ?PaintCharacters@KScenePlaceMapC@@AAEXHH@Z 100ad77c f   ScenePlaceMapC.obj
 0001:000ad09d       ?PaintMapPic@KScenePlaceMapC@@AAEXHH@Z 100ae09d f   ScenePlaceMapC.obj
 0001:000ad371       ?SetSize@KScenePlaceMapC@@QAEXHH@Z 100ae371 f   ScenePlaceMapC.obj
 0001:000ad51a       ?GetMapRect@KScenePlaceMapC@@QAEHPAUtagRECT@@@Z 100ae51a f   ScenePlaceMapC.obj
 0001:000ad5c9       ?PaintFindPos@KScenePlaceMapC@@QAEXHHHH@Z 100ae5c9 f   ScenePlaceMapC.obj
 0001:000adb86       ?CalcFlagPos@KScenePlaceMapC@@QAEXHH_N0@Z 100aeb86 f   ScenePlaceMapC.obj
 0001:000adca3       ?PaintMapPointNpc@KScenePlaceMapC@@AAEXHH@Z 100aeca3 f   ScenePlaceMapC.obj
 0001:000ae147       ?AutoRunTo@KScenePlaceMapC@@QAEHHH@Z 100af147 f   ScenePlaceMapC.obj
 0001:000ae31d       ?GetbtBarrier@KScenePlaceMapC@@QAEPAEHH@Z 100af31d f   ScenePlaceMapC.obj
 0001:000ae34e       ?JxPathFinderClear@KScenePlaceMapC@@QAEHXZ 100af34e f   ScenePlaceMapC.obj
 0001:000ae3e0       ??A?$vector@UFindPathNode@@V?$allocator@UFindPathNode@@@std@@@std@@QAEAAUFindPathNode@@I@Z 100af3e0 f i ScenePlaceMapC.obj
 0001:000ae410       ?insert@?$vector@UFindPathNode@@V?$allocator@UFindPathNode@@@std@@@std@@QAEPAUFindPathNode@@PAU3@ABU3@@Z 100af410 f i ScenePlaceMapC.obj
 0001:000ae470       ?clear@?$vector@UFindPathNode@@V?$allocator@UFindPathNode@@@std@@@std@@QAEXXZ 100af470 f i ScenePlaceMapC.obj
 0001:000ae4b0       ?insert@?$vector@UFindPathNode@@V?$allocator@UFindPathNode@@@std@@@std@@QAEXPAUFindPathNode@@IABU3@@Z 100af4b0 f i ScenePlaceMapC.obj
 0001:000ae6f0       ?erase@?$vector@UFindPathNode@@V?$allocator@UFindPathNode@@@std@@@std@@QAEPAUFindPathNode@@PAU3@0@Z 100af6f0 f i ScenePlaceMapC.obj
 0001:000ae760       ?_Ucopy@?$vector@UFindPathNode@@V?$allocator@UFindPathNode@@@std@@@std@@IAEPAUFindPathNode@@PBU3@0PAU3@@Z 100af760 f i ScenePlaceMapC.obj
 0001:000ae7b0       ?_Ufill@?$vector@UFindPathNode@@V?$allocator@UFindPathNode@@@std@@@std@@IAEXPAUFindPathNode@@IABU3@@Z 100af7b0 f i ScenePlaceMapC.obj
 0001:000ae800       ?allocate@?$allocator@UFindPathNode@@@std@@QAEPAUFindPathNode@@IPBX@Z 100af800 f i ScenePlaceMapC.obj
 0001:000ae830       ?construct@?$allocator@UFindPathNode@@@std@@QAEXPAUFindPathNode@@ABU3@@Z 100af830 f i ScenePlaceMapC.obj
 0001:000ae860       ?fill@std@@YAXPAUFindPathNode@@0ABU2@@Z 100af860 f i ScenePlaceMapC.obj
 0001:000ae890       ?copy_backward@std@@YAPAUFindPathNode@@PAU2@00@Z 100af890 f i ScenePlaceMapC.obj
 0001:000ae8d0       ?_Allocate@std@@YAPAUFindPathNode@@HPAU2@@Z 100af8d0 f i ScenePlaceMapC.obj
 0001:000ae900       ?_Construct@std@@YAXPAUFindPathNode@@ABU2@@Z 100af900 f i ScenePlaceMapC.obj
 0001:000ae960       ?CoreDrawGameObj@@YAXIIHHHHH@Z 100af960 f   CoreDrawGameObj.obj
 0001:000af4e8       ?CoreGetGameObjLightInfo@@YAXIIPAUKLightInfo@@@Z 100b04e8 f   CoreDrawGameObj.obj
 0001:000af680       ?GetNpcRes@KNpc@@QAEPAVKNpcRes@@XZ 100b0680 f i CoreDrawGameObj.obj
 0001:000af6a0       ?IR_GetCurrentTime@@YAIXZ  100b06a0 f   ImgRef.obj
 0001:000af6aa       ?IR_UpdateTime@@YAXXZ      100b06aa f   ImgRef.obj
 0001:000af6cc       ?IR_NextFrame@@YAXAAHHIAAI@Z 100b06cc f   ImgRef.obj
 0001:000af78b       ??0KMagicDesc@@QAE@XZ      100b078b f   KMagicDesc.obj
 0001:000af7c5       ??1KMagicDesc@@QAE@XZ      100b07c5 f   KMagicDesc.obj
 0001:000af7f5       ?Init@KMagicDesc@@QAEHXZ   100b07f5 f   KMagicDesc.obj
 0001:000af82a       ?GetDesc@KMagicDesc@@QAEPBDPAX@Z 100b082a f   KMagicDesc.obj
 0001:000affac       ?g_MagicID2String@@YAPBDH@Z 100b0fac f   KMagicDesc.obj
 0001:000affd2       ?g_String2MagicID@@YAHPAD@Z 100b0fd2 f   KMagicDesc.obj
 0001:000b0042       ?String2MagicID@KMagicDesc@@QAEHPAD@Z 100b1042 f   KMagicDesc.obj
 0001:000b0133       ?g_GetStringRes@@YAPADHPADH@Z 100b1133 f   KTaskFuns.obj
 0001:000b01b0       ?SetGamma@KOption@@QAEXH@Z 100b11b0 f   KOption.obj
 0001:000b01f6       ?SetSndVolume@KOption@@QAEXH@Z 100b11f6 f   KOption.obj
 0001:000b0256       ?SetMusicVolume@KOption@@QAEXH@Z 100b1256 f   KOption.obj
 0001:000b02e0       ??0KMapMusic@@QAE@XZ       100b12e0 f   KMapMusic.obj
 0001:000b03ee       ??1KMapMusic@@QAE@XZ       100b13ee f   KMapMusic.obj
 0001:000b0412       ?Release@KMapMusic@@AAEXXZ 100b1412 f   KMapMusic.obj
 0001:000b04c1       ?LoadSetFile@KMapMusic@@QAEXXZ 100b14c1 f   KMapMusic.obj
 0001:000b0aae       ?Init@KMapMusic@@QAEXXZ    100b1aae f   KMapMusic.obj
 0001:000b0ae6       ?Play@KMapMusic@@QAEXHHH@Z 100b1ae6 f   KMapMusic.obj
 0001:000b171a       ?Stop@KMapMusic@@QAEXXZ    100b271a f   KMapMusic.obj
 0001:000b1763       ?SetGameVolume@KMapMusic@@QAEXH@Z 100b2763 f   KMapMusic.obj
 0001:000b1806       ?SetWeatherVolume@KMapMusic@@QAEXH@Z 100b2806 f   KMapMusic.obj
 0001:000b18b1       ?Start@KMapMusic@@QAEXHHH@Z 100b28b1 f   KMapMusic.obj
 0001:000b18f6       ?ScriptPlay@KMapMusic@@QAEXPAD@Z 100b28f6 f   KMapMusic.obj
 0001:000b1a10       ??0KMapAllMusic@@QAE@XZ    100b2a10 f i KMapMusic.obj
 0001:000b1aab       ??0KLadder@@QAE@XZ         100b2aab f   KLadder.obj
 0001:000b1add       ??1KLadder@@QAE@XZ         100b2add f   KLadder.obj
 0001:000b1b0c       ?Init@KLadder@@QAEHPAXI@Z  100b2b0c f   KLadder.obj
 0001:000b1b50       ?TopTenFacMasterHand@KLadder@@QAEPBUTRoleList@@H@Z 100b2b50 f   KLadder.obj
 0001:000b1b8a       ?TopTenFacRich@KLadder@@QAEPBUTRoleList@@H@Z 100b2b8a f   KLadder.obj
 0001:000b1bc4       ?TopTenKiller@KLadder@@QAEPBUTRoleList@@XZ 100b2bc4 f   KLadder.obj
 0001:000b1bde       ?TopTenMasterHand@KLadder@@QAEPBUTRoleList@@XZ 100b2bde f   KLadder.obj
 0001:000b1bf8       ?TopTenRich@KLadder@@QAEPBUTRoleList@@XZ 100b2bf8 f   KLadder.obj
 0001:000b1c0d       ?GetFacMasterHandPercent@KLadder@@QAEHH@Z 100b2c0d f   KLadder.obj
 0001:000b1c3e       ?GetFacMoneyPercent@KLadder@@QAEHH@Z 100b2c3e f   KLadder.obj
 0001:000b1c6f       ?GetFacMemberCount@KLadder@@QAEHH@Z 100b2c6f f   KLadder.obj
 0001:000b1ca0       ?GetTopTen@KLadder@@QAEPBUTRoleList@@K@Z 100b2ca0 f   KLadder.obj
 0001:000b1d7b       ??0ZLoadFile@@QAE@XZ       100b2d7b f   ZLoadFile.obj
 0001:000b1e01       ??1ZLoadFile@@QAE@XZ       100b2e01 f   ZLoadFile.obj
 0001:000b1e77       ?Init@ZLoadFile@@QAEHXZ    100b2e77 f   ZLoadFile.obj
 0001:000b1f3d       ?FindTabFree@ZLoadFile@@AAEHXZ 100b2f3d f   ZLoadFile.obj
 0001:000b1fc7       ?SearchTabFile@ZLoadFile@@QAEHK@Z 100b2fc7 f   ZLoadFile.obj
 0001:000b2054       ?ReadTabFile@ZLoadFile@@QAEHPBD@Z 100b3054 f   ZLoadFile.obj
 0001:000b20f0       ?ClearTabFile@ZLoadFile@@QAEHPBD@Z 100b30f0 f   ZLoadFile.obj
 0001:000b217a       ?GetTabFileRow@ZLoadFile@@QAEHPBD@Z 100b317a f   ZLoadFile.obj
 0001:000b21ff       ?GetTabFileColum@ZLoadFile@@QAEHPBD@Z 100b31ff f   ZLoadFile.obj
 0001:000b2284       ?GetTabFileCell@ZLoadFile@@QAEXPBDHHPAD@Z 100b3284 f   ZLoadFile.obj
 0001:000b2362       ?FindIniFree@ZLoadFile@@AAEHXZ 100b3362 f   ZLoadFile.obj
 0001:000b23e3       ?SearchIniFile@ZLoadFile@@QAEHK@Z 100b33e3 f   ZLoadFile.obj
 0001:000b2467       ?ReadIniFile@ZLoadFile@@QAEHPBD@Z 100b3467 f   ZLoadFile.obj
 0001:000b24ff       ?ClearIniFile@ZLoadFile@@QAEHPBD@Z 100b34ff f   ZLoadFile.obj
 0001:000b2585       ?GetIniFileData@ZLoadFile@@QAEHPBD00PAD@Z 100b3585 f   ZLoadFile.obj
 0001:000b2640       ?Get@KWorldMsg@@QAEHPAVKWorldMsgNode@@@Z 100b3640 f   KWorldMsg.obj
 0001:000b26fc       ?Peek@KWorldMsg@@QAEHPAVKWorldMsgNode@@K@Z 100b36fc f   KWorldMsg.obj
 0001:000b278a       ?Clear@KWorldMsg@@QAEXXZ   100b378a f   KWorldMsg.obj
 0001:000b2916       ?AutoMove@KAutoMove@@QAEHXZ 100b3916 f   Kautoai.obj
 0001:000b2998       ?AutoMoveTo@KAutoMove@@QAEHHH@Z 100b3998 f   Kautoai.obj
 0001:000b2b18       ?FindPathAndMove@KAutoMove@@IAEHAAHH@Z 100b3b18 f   Kautoai.obj
 0001:000b2cc0       ?Reset@KAutoMove@@QAEXXZ   100b3cc0 f i Kautoai.obj
 0001:000b2ce0       ?g_GetDisSquare@@YAHHHHH@Z 100b3ce0 f i Kautoai.obj
 0001:000b2d10       ?g_Square@@YAHH@Z          100b3d10 f i Kautoai.obj
 0001:000b2d20       ??0KSelfNpcFindPath@@QAE@XZ 100b3d20 f i Kautoai.obj
 0001:000b2d60       ?CheckDirectMoveDis@KAutoMove@@IAEHPAVKNpc@@HH@Z 100b3d60 f i Kautoai.obj
 0001:000b2e8d       ??0KJXPathFinder@@QAE@H@Z  100b3e8d f   KJXPathFinder.obj
 0001:000b2ef2       ??1KJXPathFinder@@QAE@XZ   100b3ef2 f   KJXPathFinder.obj
 0001:000b2f4e       ?CreateMap@KJXPathFinder@@AAEHHH@Z 100b3f4e f   KJXPathFinder.obj
 0001:000b3063       ?ClearMap@KJXPathFinder@@AAEXXZ 100b4063 f   KJXPathFinder.obj
 0001:000b315f       ?Init@KJXPathFinder@@QAEHPAUtagRECT@@PAVKScenePlaceMapC@@@Z 100b415f f   KJXPathFinder.obj
 0001:000b320d       ?LoadMap@KJXPathFinder@@AAEHPAUtagRECT@@PAVKScenePlaceMapC@@@Z 100b420d f   KJXPathFinder.obj
 0001:000b3449       ?CalcFactors@KJXPathFinder@@AAEXXZ 100b4449 f   KJXPathFinder.obj
 0001:000b38af       ?FillNote@KJXPathFinder@@QAEXHHH@Z 100b48af f   KJXPathFinder.obj
 0001:000b3913       ?FindPath@KJXPathFinder@@QAEHHHHH@Z 100b4913 f   KJXPathFinder.obj
 0001:000b39b8       ?GetPath@KJXPathFinder@@QAEXHHAAV?$vector@UFindPathNode@@V?$allocator@UFindPathNode@@@std@@@std@@@Z 100b49b8 f   KJXPathFinder.obj
 0001:000b3b49       ?FindPath@KJXPathFinder@@QAEHAAUFindPathNode@@0H@Z 100b4b49 f   KJXPathFinder.obj
 0001:000b3c8f       ?GetNextStep@KJXPathFinder@@QAE?AW4KE_NEXTSTEP_RESULT@@ABUFindPathNode@@AAU3@H@Z 100b4c8f f   KJXPathFinder.obj
 0001:000b3e9e       ?GetNextStep@KJXPathFinder@@AAE?AW4KE_NEXTSTEP_RESULT@@ABUFindPathNode@@AAU3@@Z 100b4e9e f   KJXPathFinder.obj
 0001:000b410d       ?ClearOpenTable@KJXPathFinder@@AAEXXZ 100b510d f   KJXPathFinder.obj
 0001:000b4188       ?ResetMap@KJXPathFinder@@AAEXXZ 100b5188 f   KJXPathFinder.obj
 0001:000b4249       ?AddOpenNode@KJXPathFinder@@AAEXHHGGHH@Z 100b5249 f   KJXPathFinder.obj
 0001:000b437e       ?AddCloseNode@KJXPathFinder@@AAEXPAVOpenNode@@HH@Z 100b537e f   KJXPathFinder.obj
 0001:000b49cc       ?FixOpenTable@KJXPathFinder@@AAEXABUFindPathNode@@@Z 100b59cc f   KJXPathFinder.obj
 0001:000b4b22       ?GetPath@KJXPathFinder@@QAEHAAUFindPathNode@@AAPAU2@@Z 100b5b22 f   KJXPathFinder.obj
 0001:000b4d90       ?CalcFactor@@YAMHH@Z       100b5d90 f i KJXPathFinder.obj
 0001:000b4f00       ?push_back@?$vector@UFindPathNode@@V?$allocator@UFindPathNode@@@std@@@std@@QAEXABUFindPathNode@@@Z 100b5f00 f i KJXPathFinder.obj
 0001:000b4f40       ??0OpenTable@@QAE@XZ       100b5f40 f i KJXPathFinder.obj
 0001:000b4f80       ??1OpenTable@@QAE@XZ       100b5f80 f i KJXPathFinder.obj
 0001:000b4fe0       ?empty@OpenTable@@QAE_NXZ  100b5fe0 f i KJXPathFinder.obj
 0001:000b5000       ?GetSize@OpenTable@@QAEHXZ 100b6000 f i KJXPathFinder.obj
 0001:000b5020       ?GetNode@OpenTable@@QAEPAVOpenNode@@H@Z 100b6020 f i KJXPathFinder.obj
 0001:000b5050       ?GetPtr@OpenNodePtr@@QAEPAVOpenNode@@XZ 100b6050 f i KJXPathFinder.obj
 0001:000b5070       ?Reset@OpenTable@@QAEXH@Z  100b6070 f i KJXPathFinder.obj
 0001:000b5160       ??0OpenNodePtr@@QAE@XZ     100b6160 f i KJXPathFinder.obj
 0001:000b5180       ?PopNode@OpenTable@@QAEPAVOpenNode@@XZ 100b6180 f i KJXPathFinder.obj
 0001:000b51f0       ?pop_heap@std@@YAXPAVOpenNodePtr@@0@Z 100b61f0 f i KJXPathFinder.obj
 0001:000b5220       ?_Val_type@std@@YAPAVOpenNodePtr@@PBV2@@Z 100b6220 f i KJXPathFinder.obj
 0001:000b5230       ?_Pop_heap_0@std@@YAXPAVOpenNodePtr@@00@Z 100b6230 f i KJXPathFinder.obj
 0001:000b5280       ?_Dist_type@std@@YAPAHPBVOpenNodePtr@@@Z 100b6280 f i KJXPathFinder.obj
 0001:000b5290       ?_Pop_heap@std@@YAXPAVOpenNodePtr@@00V2@PAH@Z 100b6290 f i KJXPathFinder.obj
 0001:000b52d0       ?_Adjust_heap@std@@YAXPAVOpenNodePtr@@HHV2@@Z 100b62d0 f i KJXPathFinder.obj
 0001:000b53a0       ?_Push_heap@std@@YAXPAVOpenNodePtr@@HHV2@@Z 100b63a0 f i KJXPathFinder.obj
 0001:000b5420       ??MOpenNodePtr@@QAE_NABV0@@Z 100b6420 f i KJXPathFinder.obj
 0001:000b5460       ?detch@OpenNodePtr@@QAEPAVOpenNode@@XZ 100b6460 f i KJXPathFinder.obj
 0001:000b5490       ?PushNode@OpenTable@@QAEXPAVOpenNode@@@Z 100b6490 f i KJXPathFinder.obj
 0001:000b5560       ?push_heap@std@@YAXPAVOpenNodePtr@@0@Z 100b6560 f i KJXPathFinder.obj
 0001:000b55a0       ?_Push_heap_0@std@@YAXPAVOpenNodePtr@@0PAH0@Z 100b65a0 f i KJXPathFinder.obj
 0001:000b55f0       ??4OpenNodePtr@@QAEXPAVOpenNode@@@Z 100b65f0 f i KJXPathFinder.obj
 0001:000b5610       ?MakeHeap@OpenTable@@QAEXXZ 100b6610 f i KJXPathFinder.obj
 0001:000b5660       ?make_heap@std@@YAXPAVOpenNodePtr@@0@Z 100b6660 f i KJXPathFinder.obj
 0001:000b56b0       ?_Make_heap@std@@YAXPAVOpenNodePtr@@0PAH0@Z 100b66b0 f i KJXPathFinder.obj
 0001:000b5730       ??0KLittleMap@@QAE@XZ      100b6730 f   KLittleMap.obj
 0001:000b581d       ??1KLittleMap@@QAE@XZ      100b681d f   KLittleMap.obj
 0001:000b584e       ?Release@KLittleMap@@QAEXXZ 100b684e f   KLittleMap.obj
 0001:000b5953       ?Init@KLittleMap@@QAEXHHHH@Z 100b6953 f   KLittleMap.obj
 0001:000b6256       ?GetBarrierBuf@KLittleMap@@QAEPAEHH@Z 100b7256 f   KLittleMap.obj
 0001:000b633d       ?GetRect@KLittleMap@@QAEPAUtagRECT@@XZ 100b733d f   KLittleMap.obj
 0001:000b6390       ?SetHaveLoad@KLittleMap@@QAEXHH@Z 100b7390 f   KLittleMap.obj
 0001:000b63fc       ?Draw@KLittleMap@@QAEXHH@Z 100b73fc f   KLittleMap.obj
 0001:000b7030       ?SetTeammateShow@KLittleMap@@QAEXH@Z 100b8030 f   KLittleMap.obj
 0001:000b704d       ?SetPlayerShow@KLittleMap@@QAEXH@Z 100b804d f   KLittleMap.obj
 0001:000b706a       ?SetFightNpcShow@KLittleMap@@QAEXH@Z 100b806a f   KLittleMap.obj
 0001:000b7087       ?SetNormalNpcShow@KLittleMap@@QAEXH@Z 100b8087 f   KLittleMap.obj
 0001:000b70a4       ?SetScreenPos@KLittleMap@@QAEXHH@Z 100b80a4 f   KLittleMap.obj
 0001:000b70ca       ?Show@KLittleMap@@QAEXH@Z  100b80ca f   KLittleMap.obj
 0001:000b70ea       ?SetShowSize@KLittleMap@@QAEXHH@Z 100b80ea f   KLittleMap.obj
 0001:000b7162       _GetTickCount@0            100b8162 f   kernel32:KERNEL32.dll
 0001:000b7168       _MulDiv@12                 100b8168 f   kernel32:KERNEL32.dll
 0001:000b716e       _GetLocalTime@4            100b816e f   kernel32:KERNEL32.dll
 0001:000b7174       _FileTimeToSystemTime@8    100b8174 f   kernel32:KERNEL32.dll
 0001:000b717a       _LocalFileTimeToFileTime@8 100b817a f   kernel32:KERNEL32.dll
 0001:000b7180       _SystemTimeToFileTime@8    100b8180 f   kernel32:KERNEL32.dll
 0001:000b7186       _LeaveCriticalSection@4    100b8186 f   kernel32:KERNEL32.dll
 0001:000b718c       _EnterCriticalSection@4    100b818c f   kernel32:KERNEL32.dll
 0001:000b7192       _ResetEvent@4              100b8192 f   kernel32:KERNEL32.dll
 0001:000b7198       _CloseHandle@4             100b8198 f   kernel32:KERNEL32.dll
 0001:000b719e       _DeleteCriticalSection@4   100b819e f   kernel32:KERNEL32.dll
 0001:000b71a4       _CreateThread@24           100b81a4 f   kernel32:KERNEL32.dll
 0001:000b71aa       _InitializeCriticalSection@4 100b81aa f   kernel32:KERNEL32.dll
 0001:000b71b0       _CreateEventA@16           100b81b0 f   kernel32:KERNEL32.dll
 0001:000b71b6       _OutputDebugStringA@4      100b81b6 f   kernel32:KERNEL32.dll
 0001:000b71bc       _WaitForSingleObject@8     100b81bc f   kernel32:KERNEL32.dll
 0001:000b71c2       _GetExitCodeThread@8       100b81c2 f   kernel32:KERNEL32.dll
 0001:000b71c8       _SetEvent@4                100b81c8 f   kernel32:KERNEL32.dll
 0001:000b71ce       _lua_tostring              100b81ce f   lualibdll:LuaLibDll.dll
 0001:000b71d4       _lua_isstring              100b81d4 f   lualibdll:LuaLibDll.dll
 0001:000b71da       _lua_tonumber              100b81da f   lualibdll:LuaLibDll.dll
 0001:000b71e0       _lua_isnumber              100b81e0 f   lualibdll:LuaLibDll.dll
 0001:000b71e6       _lua_typename              100b81e6 f   lualibdll:LuaLibDll.dll
 0001:000b71ec       _lua_gettop                100b81ec f   lualibdll:LuaLibDll.dll
 0001:000b71f2       _lua_pushnumber            100b81f2 f   lualibdll:LuaLibDll.dll
 0001:000b71f8       _lua_type                  100b81f8 f   lualibdll:LuaLibDll.dll
 0001:000b71fe       _lua_getglobal             100b81fe f   lualibdll:LuaLibDll.dll
 0001:000b7204       _lua_rawget                100b8204 f   lualibdll:LuaLibDll.dll
 0001:000b720a       _lua_dofile                100b820a f   lualibdll:LuaLibDll.dll
 0001:000b7210       _lua_pushnil               100b8210 f   lualibdll:LuaLibDll.dll
 0001:000b7216       _timeGetTime@0             100b8216 f   Winmm:WINMM.dll
 0001:000b721c       ?g_FileName2Id@@YAKPAD@Z   100b821c f   engine:Engine.dll
 0001:000b7222       ?GetString@KTabFile@@UAEHHPAD00KH@Z 100b8222 f   engine:Engine.dll
 0001:000b7228       ?GetInteger@KTabFile@@UAEHHPADHPAHH@Z 100b8228 f   engine:Engine.dll
 0001:000b722e       ??1KTabFile@@UAE@XZ        100b822e f   engine:Engine.dll
 0001:000b7234       ?g_DebugLog@@YAXPADZZ      100b8234 f   engine:Engine.dll
 0001:000b723a       ?Load@KTabFile@@UAEHPAD@Z  100b823a f   engine:Engine.dll
 0001:000b7240       ??0KTabFile@@QAE@XZ        100b8240 f   engine:Engine.dll
 0001:000b7246       ??1KLinkArray@@QAE@XZ      100b8246 f   engine:Engine.dll
 0001:000b724c       ??0KLinkArray@@QAE@XZ      100b824c f   engine:Engine.dll
 0001:000b7252       ?KSG_StringSkipSymbol@@YA_NPAPBDH@Z 100b8252 f   engine:Engine.dll
 0001:000b7258       ?KSG_StringGetInt@@YAHPAPBDH@Z 100b8258 f   engine:Engine.dll
 0001:000b725e       ?g_AssertFailed@@YAXPADH@Z 100b825e f   engine:Engine.dll
 0001:000b7264       ?g_Random@@YAII@Z          100b8264 f   engine:Engine.dll
 0001:000b726a       ?g_StrCpy@@YAXPADPBD@Z     100b826a f   engine:Engine.dll
 0001:000b7270       ?Play@KWavSound@@QAEXHHH@Z 100b8270 f   engine:Engine.dll
 0001:000b7276       ?GetNode@KCache@@UAEPAVKCacheNode@@PADPAV2@@Z 100b8276 f   engine:Engine.dll
 0001:000b727c       ?Stop@KWavSound@@QAEXXZ    100b827c f   engine:Engine.dll
 0001:000b7282       ?Insert@KLinkArray@@QAEXH@Z 100b8282 f   engine:Engine.dll
 0001:000b7288       ?Init@KLinkArray@@QAEXH@Z  100b8288 f   engine:Engine.dll
 0001:000b728e       ?GetNext@KLinkArray@@QBEHH@Z 100b828e f   engine:Engine.dll
 0001:000b7294       ?Remove@KLinkArray@@QAEXH@Z 100b8294 f   engine:Engine.dll
 0001:000b729a       ?GetHeight@KTabFile@@UAEHXZ 100b829a f   engine:Engine.dll
 0001:000b72a0       ?SafeCallEnd@KLuaScript@@QAEXH@Z 100b82a0 f   engine:Engine.dll
 0001:000b72a6       ?SafeCallBegin@KLuaScript@@QAEXPAH@Z 100b82a6 f   engine:Engine.dll
 0001:000b72ac       ??1KLuaScript@@UAE@XZ      100b82ac f   engine:Engine.dll
 0001:000b72b2       ?Load@KLuaScript@@UAEHPAD@Z 100b82b2 f   engine:Engine.dll
 0001:000b72b8       ?RegisterFunctions@KLuaScript@@QAEHQAUTLua_Funcs@@H@Z 100b82b8 f   engine:Engine.dll
 0001:000b72be       ?Init@KLuaScript@@UAEHXZ   100b82be f   engine:Engine.dll
 0001:000b72c4       ??0KLuaScript@@QAE@XZ      100b82c4 f   engine:Engine.dll
 0001:000b72ca       ?g_SetFilePath@@YAXPAD@Z   100b82ca f   engine:Engine.dll
 0001:000b72d0       ?GetString@KIniFile@@QAEHPBD00PADK@Z 100b82d0 f   engine:Engine.dll
 0001:000b72d6       ??1KIniFile@@QAE@XZ        100b82d6 f   engine:Engine.dll
 0001:000b72dc       ?Load@KIniFile@@QAEHPBD@Z  100b82dc f   engine:Engine.dll
 0001:000b72e2       ??0KIniFile@@QAE@XZ        100b82e2 f   engine:Engine.dll
 0001:000b72e8       ?g_StrCpyLen@@YAXPADPBDH@Z 100b82e8 f   engine:Engine.dll
 0001:000b72ee       ?g_StrLen@@YAHPBD@Z        100b82ee f   engine:Engine.dll
 0001:000b72f4       ?GetString@KTabFile@@UAEHHHPAD0K@Z 100b82f4 f   engine:Engine.dll
 0001:000b72fa       ?FindRow@KTabFile@@UAEHPADH@Z 100b82fa f   engine:Engine.dll
 0001:000b7300       _TGetEncodedTextLineCount  100b8300 f   engine:Engine.dll
 0001:000b7306       _TGetLimitLenEncodedString 100b8306 f   engine:Engine.dll
 0001:000b730c       ?SetGlobalName@KLuaScript@@QAEXPAD@Z 100b830c f   engine:Engine.dll
 0001:000b7312       ?GetInteger@KTabFile@@UAEHHHHPAH@Z 100b8312 f   engine:Engine.dll
 0001:000b7318       ?IsPlaying@KWavSound@@QAEHXZ 100b8318 f   engine:Engine.dll
 0001:000b731e       ?FindColumn@KTabFile@@UAEHPAD@Z 100b831e f   engine:Engine.dll
 0001:000b7324       ?GetWidth@KTabFile@@UAEHXZ 100b8324 f   engine:Engine.dll
 0001:000b732a       ?g_StrCat@@YAXPADPBD@Z     100b832a f   engine:Engine.dll
 0001:000b7330       ?g_UnitePathAndName@@YAXPAD00@Z 100b8330 f   engine:Engine.dll
 0001:000b7336       ?IsSectionExist@KIniFile@@QAEHPBD@Z 100b8336 f   engine:Engine.dll
 0001:000b733c       ?Clear@KIniFile@@QAEXXZ    100b833c f   engine:Engine.dll
 0001:000b7342       ?GetInteger@KIniFile@@QAEHPBD0HPAH@Z 100b8342 f   engine:Engine.dll
 0001:000b7348       ?g_StrCmp@@YAHPBD0@Z       100b8348 f   engine:Engine.dll
 0001:000b734e       ?SetScriptName@KLuaScript@@UAEXPAD@Z 100b834e f   engine:Engine.dll
 0001:000b7354       ?RegisterFunction@KLuaScript@@UAEHPADPAX@Z 100b8354 f   engine:Engine.dll
 0001:000b735a       ?CallFunction@KLuaScript@@UAAHPADH0ZZ 100b835a f   engine:Engine.dll
 0001:000b7360       ?Execute@KLuaScript@@UAEHXZ 100b8360 f   engine:Engine.dll
 0001:000b7366       ?Compile@KLuaScript@@UAEHPAD@Z 100b8366 f   engine:Engine.dll
 0001:000b736c       ?Exit@KLuaScript@@UAEXXZ   100b836c f   engine:Engine.dll
 0001:000b7372       _TEncodeText               100b8372 f   engine:Engine.dll
 0001:000b7378       ?Save@KIniFile@@QAEHPBD@Z  100b8378 f   engine:Engine.dll
 0001:000b737e       ?WriteInteger@KIniFile@@QAEXPBD0H@Z 100b837e f   engine:Engine.dll
 0001:000b7384       ?WriteString@KIniFile@@QAEXPBD00@Z 100b8384 f   engine:Engine.dll
 0001:000b738a       ?g_CreatePath@@YAXPAD@Z    100b838a f   engine:Engine.dll
 0001:000b7390       ?GetShort@KIniFile@@QAEHPBD0FPAF@Z 100b8390 f   engine:Engine.dll
 0001:000b7396       ?g_SetRootPath@@YAXPAD@Z   100b8396 f   engine:Engine.dll
 0001:000b739c       ?g_RandomSeed@@YAXI@Z      100b839c f   engine:Engine.dll
 0001:000b73a2       ?GetCount@KLinkArray@@QAEHXZ 100b83a2 f   engine:Engine.dll
 0001:000b73a8       ??0KPolygon@@QAE@XZ        100b83a8 f   engine:Engine.dll
 0001:000b73ae       ?Clear@KPolygon@@QAEXXZ    100b83ae f   engine:Engine.dll
 0001:000b73b4       ?g_StrLower@@YAXPAD@Z      100b83b4 f   engine:Engine.dll
 0001:000b73ba       ?SetVolume@KWavSound@@QAEXH@Z 100b83ba f   engine:Engine.dll
 0001:000b73c0       ?SetPan@KWavSound@@QAEXH@Z 100b83c0 f   engine:Engine.dll
 0001:000b73c6       ?IsPointInPolygon@KPolygon@@QAEHUtagPOINT@@@Z 100b83c6 f   engine:Engine.dll
 0001:000b73cc       ?GetCenterPos@KPolygon@@QAEXPAUtagPOINT@@@Z 100b83cc f   engine:Engine.dll
 0001:000b73d2       ?Read@KPakFile@@QAEKPAXI@Z 100b83d2 f   engine:Engine.dll
 0001:000b73d8       ?Close@KPakFile@@QAEXXZ    100b83d8 f   engine:Engine.dll
 0001:000b73de       ?Size@KPakFile@@QAEKXZ     100b83de f   engine:Engine.dll
 0001:000b73e4       ??1KPakFile@@QAE@XZ        100b83e4 f   engine:Engine.dll
 0001:000b73ea       ?Open@KPakFile@@QAEHPBD@Z  100b83ea f   engine:Engine.dll
 0001:000b73f0       ??0KPakFile@@QAE@XZ        100b83f0 f   engine:Engine.dll
 0001:000b73f6       ?Seek@KPakFile@@QAEKHI@Z   100b83f6 f   engine:Engine.dll
 0001:000b73fc       ??0KSoundCache@@QAE@XZ     100b83fc f   engine:Engine.dll
 0001:000b7402       ??1KSoundCache@@QAE@XZ     100b8402 f   engine:Engine.dll
 0001:000b7408       ?Init@KCache@@UAEXH@Z      100b8408 f   engine:Engine.dll
 0001:000b740e       ?g_FindDebugWindow@@YAPAUHWND__@@PAD0@Z 100b840e f   engine:Engine.dll
 0001:000b7414       ??0KScriptList@@QAE@XZ     100b8414 f   engine:Engine.dll
 0001:000b741a       ??1KScriptList@@QAE@XZ     100b841a f   engine:Engine.dll
 0001:000b7420       ?g_GetRootPath@@YAXPAD@Z   100b8420 f   engine:Engine.dll
 0001:000b7426       ?GetNextKey@KIniFile@@QAEHPBD0PAD@Z 100b8426 f   engine:Engine.dll
 0001:000b742c       ?g_GetFullPath@@YAXPAD0@Z  100b842c f   engine:Engine.dll
 0001:000b7432       ?GetString@KTabFile@@UAEHPAD000K@Z 100b8432 f   engine:Engine.dll
 0001:000b7438       ?Save@KPakFile@@QAEHPBD@Z  100b8438 f   engine:Engine.dll
 0001:000b743e       ?g_ExtractFilePath@@YAXPAD0@Z 100b843e f   engine:Engine.dll
 0001:000b7444       ?Open4Unpack@KPakFile@@QAEHPBDH@Z 100b8444 f   engine:Engine.dll
 0001:000b744a       ?GetRect@KIniFile@@QAEXPBD0PAUtagRECT@@@Z 100b844a f   engine:Engine.dll
 0001:000b7450       ?GetInteger2@KIniFile@@QAEXPBD0PAH1@Z 100b8450 f   engine:Engine.dll
 0001:000b7456       ?Tell@KPakFile@@QAEKXZ     100b8456 f   engine:Engine.dll
 0001:000b745c       ??0KTimer@@QAE@XZ          100b845c f   engine:Engine.dll
 0001:000b7462       ?g_FileExists@@YAHPAD@Z    100b8462 f   engine:Engine.dll
 0001:000b7468       ?get_jpg_image@@YAPAUKSGImageContent@@QBDI@Z 100b8468 f   engine:Engine.dll
 0001:000b746e       ?release_image@@YAXPAUKSGImageContent@@@Z 100b846e f   engine:Engine.dll
 0001:000b7474       ?GetFileNameId@KIniFile@@QBEKXZ 100b8474 f   engine:Engine.dll
 0001:000b7480       ??3@YAXPAX@Z               100b8480 f   msvcprtd:delop_s.obj
 0001:000b7492       ??0Init@ios_base@std@@QAE@XZ 100b8492 f   msvcprtd:MSVCP60D.dll
 0001:000b7498       ??1Init@ios_base@std@@QAE@XZ 100b8498 f   msvcprtd:MSVCP60D.dll
 0001:000b749e       ??0_Winit@std@@QAE@XZ      100b849e f   msvcprtd:MSVCP60D.dll
 0001:000b74a4       ??1_Winit@std@@QAE@XZ      100b84a4 f   msvcprtd:MSVCP60D.dll
 0001:000b74aa       ?size@?$basic_string@DU?$char_traits@D@std@@V?$allocator@D@2@@std@@QBEIXZ 100b84aa f   msvcprtd:MSVCP60D.dll
 0001:000b74b0       ?empty@?$basic_string@DU?$char_traits@D@std@@V?$allocator@D@2@@std@@QBE_NXZ 100b84b0 f   msvcprtd:MSVCP60D.dll
 0001:000b74b6       ?c_str@?$basic_string@DU?$char_traits@D@std@@V?$allocator@D@2@@std@@QBEPBDXZ 100b84b6 f   msvcprtd:MSVCP60D.dll
 0001:000b74bc       ??1?$basic_string@DU?$char_traits@D@std@@V?$allocator@D@2@@std@@QAE@XZ 100b84bc f   msvcprtd:MSVCP60D.dll
 0001:000b74c2       ??0?$basic_string@DU?$char_traits@D@std@@V?$allocator@D@2@@std@@QAE@PBDABV?$allocator@D@1@@Z 100b84c2 f   msvcprtd:MSVCP60D.dll
 0001:000b74c8       ??0?$basic_string@DU?$char_traits@D@std@@V?$allocator@D@2@@std@@QAE@ABV?$allocator@D@1@@Z 100b84c8 f   msvcprtd:MSVCP60D.dll
 0001:000b74ce       ?end@?$basic_string@DU?$char_traits@D@std@@V?$allocator@D@2@@std@@QBEPBDXZ 100b84ce f   msvcprtd:MSVCP60D.dll
 0001:000b74d4       ?assign@?$basic_string@DU?$char_traits@D@std@@V?$allocator@D@2@@std@@QAEAAV12@PBD0@Z 100b84d4 f   msvcprtd:MSVCP60D.dll
 0001:000b74da       ?begin@?$basic_string@DU?$char_traits@D@std@@V?$allocator@D@2@@std@@QBEPBDXZ 100b84da f   msvcprtd:MSVCP60D.dll
 0001:000b74e0       ?assign@?$basic_string@DU?$char_traits@D@std@@V?$allocator@D@2@@std@@QAEAAV12@ABV12@@Z 100b84e0 f   msvcprtd:MSVCP60D.dll
 0001:000b74e6       ?resize@?$basic_string@DU?$char_traits@D@std@@V?$allocator@D@2@@std@@QAEXI@Z 100b84e6 f   msvcprtd:MSVCP60D.dll
 0001:000b74ec       ?find@?$basic_string@DU?$char_traits@D@std@@V?$allocator@D@2@@std@@QBEIDI@Z 100b84ec f   msvcprtd:MSVCP60D.dll
 0001:000b74f2       __chkesp                   100b84f2 f   MSVCRTD:MSVCRTD.dll
 0001:000b74f8       __purecall                 100b84f8 f   MSVCRTD:MSVCRTD.dll
 0001:000b74fe       __CrtDbgReport             100b84fe f   MSVCRTD:MSVCRTD.dll
 0001:000b7504       _strcpy                    100b8504 f   MSVCRTD:MSVCRTD.dll
 0001:000b750a       ___CxxFrameHandler         100b850a f   MSVCRTD:MSVCRTD.dll
 0001:000b7510       __ftol                     100b8510 f   MSVCRTD:MSVCRTD.dll
 0001:000b7520       ??_L@YGXPAXIHP6EX0@Z1@Z    100b8520 f   MSVCRTD:ehvecctr.obj
 0001:000b75c0       __onexit                   100b85c0 f   MSVCRTD:atonexit.obj
 0001:000b7600       _atexit                    100b8600 f   MSVCRTD:atonexit.obj
 0001:000b7620       ??_M@YGXPAXIHP6EX0@Z@Z     100b8620 f   MSVCRTD:ehvecdtr.obj
 0001:000b76d0       ?__ArrayUnwind@@YGXPAXIHP6EX0@Z@Z 100b86d0 f   MSVCRTD:ehvecdtr.obj
 0001:000b777c       _sprintf                   100b877c f   MSVCRTD:MSVCRTD.dll
 0001:000b7782       ??2@YAPAXI@Z               100b8782 f   MSVCRTD:MSVCRTD.dll
 0001:000b7788       _abs                       100b8788 f   MSVCRTD:MSVCRTD.dll
 0001:000b778e       _memset                    100b878e f   MSVCRTD:MSVCRTD.dll
 0001:000b7794       _printf                    100b8794 f   MSVCRTD:MSVCRTD.dll
 0001:000b779a       _strcmp                    100b879a f   MSVCRTD:MSVCRTD.dll
 0001:000b77a0       _strcat                    100b87a0 f   MSVCRTD:MSVCRTD.dll
 0001:000b77a6       _strlen                    100b87a6 f   MSVCRTD:MSVCRTD.dll
 0001:000b77ac       _memcpy                    100b87ac f   MSVCRTD:MSVCRTD.dll
 0001:000b77b2       _strncpy                   100b87b2 f   MSVCRTD:MSVCRTD.dll
 0001:000b77b8       _atoi                      100b87b8 f   MSVCRTD:MSVCRTD.dll
 0001:000b77be       _sqrt                      100b87be f   MSVCRTD:MSVCRTD.dll
 0001:000b77c4       _strstr                    100b87c4 f   MSVCRTD:MSVCRTD.dll
 0001:000b77ca       _free                      100b87ca f   MSVCRTD:MSVCRTD.dll
 0001:000b77d0       _malloc                    100b87d0 f   MSVCRTD:MSVCRTD.dll
 0001:000b77e0       __chkstk                   100b87e0 f   MSVCRTD:chkstk.obj
 0001:000b77e0       __alloca_probe             100b87e0 f   MSVCRTD:chkstk.obj
 0001:000b7810       _memmove                   100b8810 f   MSVCRTD:MSVCRTD.dll
 0001:000b7816       _rand                      100b8816 f   MSVCRTD:MSVCRTD.dll
 0001:000b781c       _srand                     100b881c f   MSVCRTD:MSVCRTD.dll
 0001:000b7822       _time                      100b8822 f   MSVCRTD:MSVCRTD.dll
 0001:000b7828       _ctime                     100b8828 f   MSVCRTD:MSVCRTD.dll
 0001:000b782e       __findclose                100b882e f   MSVCRTD:MSVCRTD.dll
 0001:000b7834       __strupr                   100b8834 f   MSVCRTD:MSVCRTD.dll
 0001:000b783a       __findnext                 100b883a f   MSVCRTD:MSVCRTD.dll
 0001:000b7840       __findfirst                100b8840 f   MSVCRTD:MSVCRTD.dll
 0001:000b7846       _pow                       100b8846 f   MSVCRTD:MSVCRTD.dll
 0001:000b784c       _realloc                   100b884c f   MSVCRTD:MSVCRTD.dll
 0001:000b7852       _fabs                      100b8852 f   MSVCRTD:MSVCRTD.dll
 0001:000b7858       _strchr                    100b8858 f   MSVCRTD:MSVCRTD.dll
 0001:000b785e       _atof                      100b885e f   MSVCRTD:MSVCRTD.dll
 0001:000b7870       __CRT_INIT@12              100b8870 f   MSVCRTD:crtdll.obj
 0001:000b7980       __DllMainCRTStartup@12     100b8980 f   MSVCRTD:crtdll.obj
 0001:000b7a74       __except_handler3          100b8a74 f   MSVCRTD:MSVCRTD.dll
 0001:000b7a7a       ___dllonexit               100b8a7a f   MSVCRTD:MSVCRTD.dll
 0001:000b7a80       ?terminate@@YAXXZ          100b8a80 f   MSVCRTD:MSVCRTD.dll
 0001:000b7a86       __free_dbg                 100b8a86 f   MSVCRTD:MSVCRTD.dll
 0001:000b7a8c       __initterm                 100b8a8c f   MSVCRTD:MSVCRTD.dll
 0001:000b7a92       __malloc_dbg               100b8a92 f   MSVCRTD:MSVCRTD.dll
 0001:000b7aa0       _DllMain@12                100b8aa0 f   MSVCRTD:dllmain.obj
 0001:000b7ad0       _DisableThreadLibraryCalls@4 100b8ad0 f   kernel32:KERNEL32.dll
 0001:000b7ad6       __strlwr                   100b8ad6 f   MSVCRTD:MSVCRTD.dll
 0001:000b7adc       __itoa                     100b8adc f   MSVCRTD:MSVCRTD.dll
 0001:000b7ae2       __getcwd                   100b8ae2 f   MSVCRTD:MSVCRTD.dll
 0001:000b7ae8       __chdir                    100b8ae8 f   MSVCRTD:MSVCRTD.dll
 0002:00000000       __imp_?Clear@KPolygon@@QAEXXZ 100bb000     engine:Engine.dll
 0002:00000004       __imp_?g_GetRootPath@@YAXPAD@Z 100bb004     engine:Engine.dll
 0002:00000008       __imp_??1KScriptList@@QAE@XZ 100bb008     engine:Engine.dll
 0002:0000000c       __imp_??0KScriptList@@QAE@XZ 100bb00c     engine:Engine.dll
 0002:00000010       __imp_?g_FindDebugWindow@@YAPAUHWND__@@PAD0@Z 100bb010     engine:Engine.dll
 0002:00000014       __imp_?Init@KCache@@UAEXH@Z 100bb014     engine:Engine.dll
 0002:00000018       __imp_??1KSoundCache@@QAE@XZ 100bb018     engine:Engine.dll
 0002:0000001c       __imp_??0KSoundCache@@QAE@XZ 100bb01c     engine:Engine.dll
 0002:00000020       __imp_?Seek@KPakFile@@QAEKHI@Z 100bb020     engine:Engine.dll
 0002:00000024       __imp_??0KPakFile@@QAE@XZ  100bb024     engine:Engine.dll
 0002:00000028       __imp_?Open@KPakFile@@QAEHPBD@Z 100bb028     engine:Engine.dll
 0002:0000002c       __imp_??1KPakFile@@QAE@XZ  100bb02c     engine:Engine.dll
 0002:00000030       __imp_?Size@KPakFile@@QAEKXZ 100bb030     engine:Engine.dll
 0002:00000034       __imp_?Close@KPakFile@@QAEXXZ 100bb034     engine:Engine.dll
 0002:00000038       __imp_?Read@KPakFile@@QAEKPAXI@Z 100bb038     engine:Engine.dll
 0002:0000003c       __imp_?GetCenterPos@KPolygon@@QAEXPAUtagPOINT@@@Z 100bb03c     engine:Engine.dll
 0002:00000040       __imp_?IsPointInPolygon@KPolygon@@QAEHUtagPOINT@@@Z 100bb040     engine:Engine.dll
 0002:00000044       __imp_?SetPan@KWavSound@@QAEXH@Z 100bb044     engine:Engine.dll
 0002:00000048       __imp_?SetVolume@KWavSound@@QAEXH@Z 100bb048     engine:Engine.dll
 0002:0000004c       __imp_?g_StrLower@@YAXPAD@Z 100bb04c     engine:Engine.dll
 0002:00000050       __imp_?GetFileNameId@KIniFile@@QBEKXZ 100bb050     engine:Engine.dll
 0002:00000054       __imp_?release_image@@YAXPAUKSGImageContent@@@Z 100bb054     engine:Engine.dll
 0002:00000058       __imp_?get_jpg_image@@YAPAUKSGImageContent@@QBDI@Z 100bb058     engine:Engine.dll
 0002:0000005c       __imp_?g_FileExists@@YAHPAD@Z 100bb05c     engine:Engine.dll
 0002:00000060       __imp_??0KTimer@@QAE@XZ    100bb060     engine:Engine.dll
 0002:00000064       __imp_?Tell@KPakFile@@QAEKXZ 100bb064     engine:Engine.dll
 0002:00000068       __imp_?GetInteger2@KIniFile@@QAEXPBD0PAH1@Z 100bb068     engine:Engine.dll
 0002:0000006c       __imp_?GetRect@KIniFile@@QAEXPBD0PAUtagRECT@@@Z 100bb06c     engine:Engine.dll
 0002:00000070       __imp_?Open4Unpack@KPakFile@@QAEHPBDH@Z 100bb070     engine:Engine.dll
 0002:00000074       __imp_?g_ExtractFilePath@@YAXPAD0@Z 100bb074     engine:Engine.dll
 0002:00000078       __imp_?Save@KPakFile@@QAEHPBD@Z 100bb078     engine:Engine.dll
 0002:0000007c       __imp_?GetString@KTabFile@@UAEHPAD000K@Z 100bb07c     engine:Engine.dll
 0002:00000080       __imp_?g_GetFullPath@@YAXPAD0@Z 100bb080     engine:Engine.dll
 0002:00000084       __imp_?g_FileName2Id@@YAKPAD@Z 100bb084     engine:Engine.dll
 0002:00000088       __imp_?GetString@KTabFile@@UAEHHPAD00KH@Z 100bb088     engine:Engine.dll
 0002:0000008c       __imp_?GetInteger@KTabFile@@UAEHHPADHPAHH@Z 100bb08c     engine:Engine.dll
 0002:00000090       __imp_??1KTabFile@@UAE@XZ  100bb090     engine:Engine.dll
 0002:00000094       __imp_?g_DebugLog@@YAXPADZZ 100bb094     engine:Engine.dll
 0002:00000098       __imp_?Load@KTabFile@@UAEHPAD@Z 100bb098     engine:Engine.dll
 0002:0000009c       __imp_??0KTabFile@@QAE@XZ  100bb09c     engine:Engine.dll
 0002:000000a0       __imp_??1KLinkArray@@QAE@XZ 100bb0a0     engine:Engine.dll
 0002:000000a4       __imp_??0KLinkArray@@QAE@XZ 100bb0a4     engine:Engine.dll
 0002:000000a8       __imp_?KSG_StringSkipSymbol@@YA_NPAPBDH@Z 100bb0a8     engine:Engine.dll
 0002:000000ac       __imp_?KSG_StringGetInt@@YAHPAPBDH@Z 100bb0ac     engine:Engine.dll
 0002:000000b0       __imp_?g_AssertFailed@@YAXPADH@Z 100bb0b0     engine:Engine.dll
 0002:000000b4       __imp_?g_Random@@YAII@Z    100bb0b4     engine:Engine.dll
 0002:000000b8       __imp_?g_StrCpy@@YAXPADPBD@Z 100bb0b8     engine:Engine.dll
 0002:000000bc       __imp_?Play@KWavSound@@QAEXHHH@Z 100bb0bc     engine:Engine.dll
 0002:000000c0       __imp_?GetNode@KCache@@UAEPAVKCacheNode@@PADPAV2@@Z 100bb0c0     engine:Engine.dll
 0002:000000c4       __imp_?Stop@KWavSound@@QAEXXZ 100bb0c4     engine:Engine.dll
 0002:000000c8       __imp_?Insert@KLinkArray@@QAEXH@Z 100bb0c8     engine:Engine.dll
 0002:000000cc       __imp_?Init@KLinkArray@@QAEXH@Z 100bb0cc     engine:Engine.dll
 0002:000000d0       __imp_?GetNext@KLinkArray@@QBEHH@Z 100bb0d0     engine:Engine.dll
 0002:000000d4       __imp_?Remove@KLinkArray@@QAEXH@Z 100bb0d4     engine:Engine.dll
 0002:000000d8       __imp_?GetHeight@KTabFile@@UAEHXZ 100bb0d8     engine:Engine.dll
 0002:000000dc       __imp_?SafeCallEnd@KLuaScript@@QAEXH@Z 100bb0dc     engine:Engine.dll
 0002:000000e0       __imp_?SafeCallBegin@KLuaScript@@QAEXPAH@Z 100bb0e0     engine:Engine.dll
 0002:000000e4       __imp_??1KLuaScript@@UAE@XZ 100bb0e4     engine:Engine.dll
 0002:000000e8       __imp_?Load@KLuaScript@@UAEHPAD@Z 100bb0e8     engine:Engine.dll
 0002:000000ec       __imp_?RegisterFunctions@KLuaScript@@QAEHQAUTLua_Funcs@@H@Z 100bb0ec     engine:Engine.dll
 0002:000000f0       __imp_?Init@KLuaScript@@UAEHXZ 100bb0f0     engine:Engine.dll
 0002:000000f4       __imp_??0KLuaScript@@QAE@XZ 100bb0f4     engine:Engine.dll
 0002:000000f8       __imp_?g_SetFilePath@@YAXPAD@Z 100bb0f8     engine:Engine.dll
 0002:000000fc       __imp_?GetString@KIniFile@@QAEHPBD00PADK@Z 100bb0fc     engine:Engine.dll
 0002:00000100       __imp_??1KIniFile@@QAE@XZ  100bb100     engine:Engine.dll
 0002:00000104       __imp_?Load@KIniFile@@QAEHPBD@Z 100bb104     engine:Engine.dll
 0002:00000108       __imp_??0KIniFile@@QAE@XZ  100bb108     engine:Engine.dll
 0002:0000010c       __imp_?g_StrCpyLen@@YAXPADPBDH@Z 100bb10c     engine:Engine.dll
 0002:00000110       __imp_?g_StrLen@@YAHPBD@Z  100bb110     engine:Engine.dll
 0002:00000114       __imp_?GetString@KTabFile@@UAEHHHPAD0K@Z 100bb114     engine:Engine.dll
 0002:00000118       __imp_?FindRow@KTabFile@@UAEHPADH@Z 100bb118     engine:Engine.dll
 0002:0000011c       __imp__TGetEncodedTextLineCount 100bb11c     engine:Engine.dll
 0002:00000120       __imp__TGetLimitLenEncodedString 100bb120     engine:Engine.dll
 0002:00000124       __imp_?SetGlobalName@KLuaScript@@QAEXPAD@Z 100bb124     engine:Engine.dll
 0002:00000128       __imp_?GetInteger@KTabFile@@UAEHHHHPAH@Z 100bb128     engine:Engine.dll
 0002:0000012c       __imp_?IsPlaying@KWavSound@@QAEHXZ 100bb12c     engine:Engine.dll
 0002:00000130       __imp_?FindColumn@KTabFile@@UAEHPAD@Z 100bb130     engine:Engine.dll
 0002:00000134       __imp_?GetWidth@KTabFile@@UAEHXZ 100bb134     engine:Engine.dll
 0002:00000138       __imp_?g_StrCat@@YAXPADPBD@Z 100bb138     engine:Engine.dll
 0002:0000013c       __imp_?g_UnitePathAndName@@YAXPAD00@Z 100bb13c     engine:Engine.dll
 0002:00000140       __imp_?IsSectionExist@KIniFile@@QAEHPBD@Z 100bb140     engine:Engine.dll
 0002:00000144       __imp_?Clear@KIniFile@@QAEXXZ 100bb144     engine:Engine.dll
 0002:00000148       __imp_?GetInteger@KIniFile@@QAEHPBD0HPAH@Z 100bb148     engine:Engine.dll
 0002:0000014c       __imp_?g_StrCmp@@YAHPBD0@Z 100bb14c     engine:Engine.dll
 0002:00000150       __imp_?SetScriptName@KLuaScript@@UAEXPAD@Z 100bb150     engine:Engine.dll
 0002:00000154       __imp_?RegisterFunction@KLuaScript@@UAEHPADPAX@Z 100bb154     engine:Engine.dll
 0002:00000158       __imp_?CallFunction@KLuaScript@@UAAHPADH0ZZ 100bb158     engine:Engine.dll
 0002:0000015c       __imp_?Execute@KLuaScript@@UAEHXZ 100bb15c     engine:Engine.dll
 0002:00000160       __imp_?Compile@KLuaScript@@UAEHPAD@Z 100bb160     engine:Engine.dll
 0002:00000164       __imp_?Exit@KLuaScript@@UAEXXZ 100bb164     engine:Engine.dll
 0002:00000168       __imp__TEncodeText         100bb168     engine:Engine.dll
 0002:0000016c       __imp_?Save@KIniFile@@QAEHPBD@Z 100bb16c     engine:Engine.dll
 0002:00000170       __imp_?WriteInteger@KIniFile@@QAEXPBD0H@Z 100bb170     engine:Engine.dll
 0002:00000174       __imp_?WriteString@KIniFile@@QAEXPBD00@Z 100bb174     engine:Engine.dll
 0002:00000178       __imp_?g_CreatePath@@YAXPAD@Z 100bb178     engine:Engine.dll
 0002:0000017c       __imp_?GetShort@KIniFile@@QAEHPBD0FPAF@Z 100bb17c     engine:Engine.dll
 0002:00000180       __imp_?g_SetRootPath@@YAXPAD@Z 100bb180     engine:Engine.dll
 0002:00000184       __imp_?g_RandomSeed@@YAXI@Z 100bb184     engine:Engine.dll
 0002:00000188       __imp_?GetCount@KLinkArray@@QAEHXZ 100bb188     engine:Engine.dll
 0002:0000018c       __imp_??0KPolygon@@QAE@XZ  100bb18c     engine:Engine.dll
 0002:00000190       __imp_?GetNextKey@KIniFile@@QAEHPBD0PAD@Z 100bb190     engine:Engine.dll
 0002:00000194       \177Engine_NULL_THUNK_DATA 100bb194     engine:Engine.dll
 0002:00000198       __imp__DisableThreadLibraryCalls@4 100bb198     kernel32:KERNEL32.dll
 0002:0000019c       __imp__SetEvent@4          100bb19c     kernel32:KERNEL32.dll
 0002:000001a0       __imp__GetExitCodeThread@8 100bb1a0     kernel32:KERNEL32.dll
 0002:000001a4       __imp__WaitForSingleObject@8 100bb1a4     kernel32:KERNEL32.dll
 0002:000001a8       __imp__OutputDebugStringA@4 100bb1a8     kernel32:KERNEL32.dll
 0002:000001ac       __imp__CreateEventA@16     100bb1ac     kernel32:KERNEL32.dll
 0002:000001b0       __imp__InitializeCriticalSection@4 100bb1b0     kernel32:KERNEL32.dll
 0002:000001b4       __imp__CreateThread@24     100bb1b4     kernel32:KERNEL32.dll
 0002:000001b8       __imp__DeleteCriticalSection@4 100bb1b8     kernel32:KERNEL32.dll
 0002:000001bc       __imp__CloseHandle@4       100bb1bc     kernel32:KERNEL32.dll
 0002:000001c0       __imp__ResetEvent@4        100bb1c0     kernel32:KERNEL32.dll
 0002:000001c4       __imp__EnterCriticalSection@4 100bb1c4     kernel32:KERNEL32.dll
 0002:000001c8       __imp__LeaveCriticalSection@4 100bb1c8     kernel32:KERNEL32.dll
 0002:000001cc       __imp__SystemTimeToFileTime@8 100bb1cc     kernel32:KERNEL32.dll
 0002:000001d0       __imp__LocalFileTimeToFileTime@8 100bb1d0     kernel32:KERNEL32.dll
 0002:000001d4       __imp__FileTimeToSystemTime@8 100bb1d4     kernel32:KERNEL32.dll
 0002:000001d8       __imp__GetLocalTime@4      100bb1d8     kernel32:KERNEL32.dll
 0002:000001dc       __imp__MulDiv@12           100bb1dc     kernel32:KERNEL32.dll
 0002:000001e0       __imp__GetTickCount@0      100bb1e0     kernel32:KERNEL32.dll
 0002:000001e4       \177KERNEL32_NULL_THUNK_DATA 100bb1e4     kernel32:KERNEL32.dll
 0002:000001e8       __imp__lua_tostring        100bb1e8     lualibdll:LuaLibDll.dll
 0002:000001ec       __imp__lua_tonumber        100bb1ec     lualibdll:LuaLibDll.dll
 0002:000001f0       __imp__lua_pushnil         100bb1f0     lualibdll:LuaLibDll.dll
 0002:000001f4       __imp__lua_dofile          100bb1f4     lualibdll:LuaLibDll.dll
 0002:000001f8       __imp__lua_rawget          100bb1f8     lualibdll:LuaLibDll.dll
 0002:000001fc       __imp__lua_getglobal       100bb1fc     lualibdll:LuaLibDll.dll
 0002:00000200       __imp__lua_type            100bb200     lualibdll:LuaLibDll.dll
 0002:00000204       __imp__lua_pushnumber      100bb204     lualibdll:LuaLibDll.dll
 0002:00000208       __imp__lua_gettop          100bb208     lualibdll:LuaLibDll.dll
 0002:0000020c       __imp__lua_typename        100bb20c     lualibdll:LuaLibDll.dll
 0002:00000210       __imp__lua_isnumber        100bb210     lualibdll:LuaLibDll.dll
 0002:00000214       __imp__lua_isstring        100bb214     lualibdll:LuaLibDll.dll
 0002:00000218       \177LuaLibDll_NULL_THUNK_DATA 100bb218     lualibdll:LuaLibDll.dll
 0002:0000021c       __imp_?find@?$basic_string@DU?$char_traits@D@std@@V?$allocator@D@2@@std@@QBEIDI@Z 100bb21c     msvcprtd:MSVCP60D.dll
 0002:00000220       __imp_??0Init@ios_base@std@@QAE@XZ 100bb220     msvcprtd:MSVCP60D.dll
 0002:00000224       __imp_??1Init@ios_base@std@@QAE@XZ 100bb224     msvcprtd:MSVCP60D.dll
 0002:00000228       __imp_??0_Winit@std@@QAE@XZ 100bb228     msvcprtd:MSVCP60D.dll
 0002:0000022c       __imp_??1_Winit@std@@QAE@XZ 100bb22c     msvcprtd:MSVCP60D.dll
 0002:00000230       __imp_?size@?$basic_string@DU?$char_traits@D@std@@V?$allocator@D@2@@std@@QBEIXZ 100bb230     msvcprtd:MSVCP60D.dll
 0002:00000234       __imp_?empty@?$basic_string@DU?$char_traits@D@std@@V?$allocator@D@2@@std@@QBE_NXZ 100bb234     msvcprtd:MSVCP60D.dll
 0002:00000238       __imp_?c_str@?$basic_string@DU?$char_traits@D@std@@V?$allocator@D@2@@std@@QBEPBDXZ 100bb238     msvcprtd:MSVCP60D.dll
 0002:0000023c       __imp_??1?$basic_string@DU?$char_traits@D@std@@V?$allocator@D@2@@std@@QAE@XZ 100bb23c     msvcprtd:MSVCP60D.dll
 0002:00000240       __imp_??0?$basic_string@DU?$char_traits@D@std@@V?$allocator@D@2@@std@@QAE@PBDABV?$allocator@D@1@@Z 100bb240     msvcprtd:MSVCP60D.dll
 0002:00000244       __imp_??0?$basic_string@DU?$char_traits@D@std@@V?$allocator@D@2@@std@@QAE@ABV?$allocator@D@1@@Z 100bb244     msvcprtd:MSVCP60D.dll
 0002:00000248       __imp_?end@?$basic_string@DU?$char_traits@D@std@@V?$allocator@D@2@@std@@QBEPBDXZ 100bb248     msvcprtd:MSVCP60D.dll
 0002:0000024c       __imp_?assign@?$basic_string@DU?$char_traits@D@std@@V?$allocator@D@2@@std@@QAEAAV12@PBD0@Z 100bb24c     msvcprtd:MSVCP60D.dll
 0002:00000250       __imp_?begin@?$basic_string@DU?$char_traits@D@std@@V?$allocator@D@2@@std@@QBEPBDXZ 100bb250     msvcprtd:MSVCP60D.dll
 0002:00000254       __imp_?assign@?$basic_string@DU?$char_traits@D@std@@V?$allocator@D@2@@std@@QAEAAV12@ABV12@@Z 100bb254     msvcprtd:MSVCP60D.dll
 0002:00000258       __imp_?resize@?$basic_string@DU?$char_traits@D@std@@V?$allocator@D@2@@std@@QAEXI@Z 100bb258     msvcprtd:MSVCP60D.dll
 0002:0000025c       __imp_?npos@?$basic_string@DU?$char_traits@D@std@@V?$allocator@D@2@@std@@2IB 100bb25c     msvcprtd:MSVCP60D.dll
 0002:00000260       \177MSVCP60D_NULL_THUNK_DATA 100bb260     msvcprtd:MSVCP60D.dll
 0002:00000264       __imp__getcwd              100bb264     MSVCRTD:MSVCRTD.dll
 0002:00000264       __imp___getcwd             100bb264     MSVCRTD:MSVCRTD.dll
 0002:00000268       __imp___chkesp             100bb268     MSVCRTD:MSVCRTD.dll
 0002:0000026c       __imp___purecall           100bb26c     MSVCRTD:MSVCRTD.dll
 0002:00000270       __imp___CrtDbgReport       100bb270     MSVCRTD:MSVCRTD.dll
 0002:00000274       __imp__strcpy              100bb274     MSVCRTD:MSVCRTD.dll
 0002:00000278       __imp____CxxFrameHandler   100bb278     MSVCRTD:MSVCRTD.dll
 0002:0000027c       __imp___ftol               100bb27c     MSVCRTD:MSVCRTD.dll
 0002:00000280       __imp__sprintf             100bb280     MSVCRTD:MSVCRTD.dll
 0002:00000284       __imp_??2@YAPAXI@Z         100bb284     MSVCRTD:MSVCRTD.dll
 0002:00000288       __imp__chdir               100bb288     MSVCRTD:MSVCRTD.dll
 0002:00000288       __imp___chdir              100bb288     MSVCRTD:MSVCRTD.dll
 0002:0000028c       __imp__memset              100bb28c     MSVCRTD:MSVCRTD.dll
 0002:00000290       __imp__printf              100bb290     MSVCRTD:MSVCRTD.dll
 0002:00000294       __imp__strcmp              100bb294     MSVCRTD:MSVCRTD.dll
 0002:00000298       __imp__strcat              100bb298     MSVCRTD:MSVCRTD.dll
 0002:0000029c       __imp__strlen              100bb29c     MSVCRTD:MSVCRTD.dll
 0002:000002a0       __imp__memcpy              100bb2a0     MSVCRTD:MSVCRTD.dll
 0002:000002a4       __imp__strncpy             100bb2a4     MSVCRTD:MSVCRTD.dll
 0002:000002a8       __imp__atoi                100bb2a8     MSVCRTD:MSVCRTD.dll
 0002:000002ac       __imp__sqrt                100bb2ac     MSVCRTD:MSVCRTD.dll
 0002:000002b0       __imp__strstr              100bb2b0     MSVCRTD:MSVCRTD.dll
 0002:000002b4       __imp__free                100bb2b4     MSVCRTD:MSVCRTD.dll
 0002:000002b8       __imp__malloc              100bb2b8     MSVCRTD:MSVCRTD.dll
 0002:000002bc       __imp__memmove             100bb2bc     MSVCRTD:MSVCRTD.dll
 0002:000002c0       __imp__rand                100bb2c0     MSVCRTD:MSVCRTD.dll
 0002:000002c4       __imp__srand               100bb2c4     MSVCRTD:MSVCRTD.dll
 0002:000002c8       __imp__time                100bb2c8     MSVCRTD:MSVCRTD.dll
 0002:000002cc       __imp__ctime               100bb2cc     MSVCRTD:MSVCRTD.dll
 0002:000002d0       __imp___findclose          100bb2d0     MSVCRTD:MSVCRTD.dll
 0002:000002d4       __imp___strupr             100bb2d4     MSVCRTD:MSVCRTD.dll
 0002:000002d8       __imp___findnext           100bb2d8     MSVCRTD:MSVCRTD.dll
 0002:000002dc       __imp___findfirst          100bb2dc     MSVCRTD:MSVCRTD.dll
 0002:000002e0       __imp__pow                 100bb2e0     MSVCRTD:MSVCRTD.dll
 0002:000002e4       __imp__realloc             100bb2e4     MSVCRTD:MSVCRTD.dll
 0002:000002e8       __imp__fabs                100bb2e8     MSVCRTD:MSVCRTD.dll
 0002:000002ec       __imp__strchr              100bb2ec     MSVCRTD:MSVCRTD.dll
 0002:000002f0       __imp__atof                100bb2f0     MSVCRTD:MSVCRTD.dll
 0002:000002f4       __imp___except_handler3    100bb2f4     MSVCRTD:MSVCRTD.dll
 0002:000002f8       __imp____dllonexit         100bb2f8     MSVCRTD:MSVCRTD.dll
 0002:000002fc       __imp___onexit             100bb2fc     MSVCRTD:MSVCRTD.dll
 0002:00000300       __imp_?terminate@@YAXXZ    100bb300     MSVCRTD:MSVCRTD.dll
 0002:00000304       __imp___free_dbg           100bb304     MSVCRTD:MSVCRTD.dll
 0002:00000308       __imp___initterm           100bb308     MSVCRTD:MSVCRTD.dll
 0002:0000030c       __imp___malloc_dbg         100bb30c     MSVCRTD:MSVCRTD.dll
 0002:00000310       __imp___adjust_fdiv        100bb310     MSVCRTD:MSVCRTD.dll
 0002:00000314       __imp__abs                 100bb314     MSVCRTD:MSVCRTD.dll
 0002:00000318       __imp___strlwr             100bb318     MSVCRTD:MSVCRTD.dll
 0002:00000318       __imp__strlwr              100bb318     MSVCRTD:MSVCRTD.dll
 0002:0000031c       __imp__itoa                100bb31c     MSVCRTD:MSVCRTD.dll
 0002:0000031c       __imp___itoa               100bb31c     MSVCRTD:MSVCRTD.dll
 0002:00000320       \177MSVCRTD_NULL_THUNK_DATA 100bb320     MSVCRTD:MSVCRTD.dll
 0002:00000324       __imp__timeGetTime@0       100bb324     Winmm:WINMM.dll
 0002:00000328       \177WINMM_NULL_THUNK_DATA  100bb328     Winmm:WINMM.dll
 0002:0000034c       ??_7KThiefSkill@@6B@       100bb34c     KThiefSkill.obj
 0002:0000039c       ??_7ISkill@@6B@            100bb39c     KThiefSkill.obj
 0002:000003ec       __real@4@4005c800000000000000 100bb3ec     KThiefSkill.obj
 0002:000007f8       ??_7KMissle@@6B@           100bb7f8     KMissle.obj
 0002:000007fc       ??_7KIndexNode@@6B@        100bb7fc     KMissle.obj
 0002:00000800       ??_7KNode@@6B@             100bb800     KMissle.obj
 0002:00000804       ??_7KWorldMsgNode@@6B@     100bb804     KMissle.obj
 0002:00000808       ??_7KSkillSpecialNode@@6B@ 100bb808     KMissle.obj
 0002:00000c18       ??_7KSkill@@6B@            100bbc18     KSkills.obj
 0002:00000c68       __real@8@3fff8000000000000000 100bbc68     KSkills.obj
 0002:00000c70       __real@8@4005c800000000000000 100bbc70     KSkills.obj
 0002:00001080       __real@4@00000000000000000000 100bc080     KNpc.obj
 0002:00001084       __real@4@4004c800000000000000 100bc084     KNpc.obj
 0002:00001088       __real@4@3fff8000000000000000 100bc088     KNpc.obj
 0002:00001090       __real@8@4005be00000000000000 100bc090     KNpc.obj
 0002:00001098       ??_7KStateNode@@6B@        100bc098     KNpc.obj
 0002:000010a0       __real@8@3ffe8000000000000000 100bc0a0     KNpc.obj
 0002:000018b8       ??_7KNpcResNode@@6B@       100bc8b8     KNpcResNode.obj
 0002:00001cc8       ??_SKLuaScript@@6B@        100bccc8     KPlayer.obj
 0002:000020f8       ??_7CChatFriend@@6B@       100bd0f8     KPlayerChat.obj
 0002:000020fc       ??_7KBasicPropertyTable@@6B@ 100bd0fc     KBasPropTbl.obj
 0002:00002104       ??_7KBPT_MagicAttrib_TF@@6B@ 100bd104     KBasPropTbl.obj
 0002:0000210c       ??_7KBPT_Equipment@@6B@    100bd10c     KBasPropTbl.obj
 0002:00002114       ??_7KBPT_Gold_Equipment@@6B@ 100bd114     KBasPropTbl.obj
 0002:0000211c       ??_7KBPT_Broken_Equipment@@6B@ 100bd11c     KBasPropTbl.obj
 0002:00002124       ??_7KBPT_Medicine@@6B@     100bd124     KBasPropTbl.obj
 0002:0000212c       ??_7KBPT_Quest@@6B@        100bd12c     KBasPropTbl.obj
 0002:00002134       ??_7KBPT_Script@@6B@       100bd134     KBasPropTbl.obj
 0002:0000213c       ??_7KBPT_Mine@@6B@         100bd13c     KBasPropTbl.obj
 0002:0000397c       ??_7CChatApplyListNode@@6B@ 100be97c     KProtocolProcess.obj
 0002:00003980       ??_7KScriptValueSet@@6B@   100be980     KScriptValueSet.obj
 0002:00003984       ??_7TStringValueNode@@6B@  100be984     KScriptValueSet.obj
 0002:00003988       ??_7TIntegerValueNode@@6B@ 100be988     KScriptValueSet.obj
 0002:00003d98       ??_7KCoreShell@@6B@        100bed98     CoreShell.obj
 0002:00003e84       ??_7KSelfBreathLight@@6B@  100bee84     KIpoTree.obj
 0002:00003e88       ??_7KLightBase@@6B@        100bee88     KIpoTree.obj
 0002:00003e8c       __real@4@4007b400000000000000 100bee8c     KIpoTree.obj
 0002:00003e90       __real@4@40048000000000000000 100bee90     KIpoTree.obj
 0002:00003e98       __real@8@400f8000000000000000 100bee98     KIpoTree.obj
 0002:00003ea0       __real@4@4005af00000000000000 100beea0     KIpoTree.obj
 0002:00003ea8       ?m_PrevLoadPosOffset@KScenePlaceC@@0QAY02$$CBU_KPrevLoadPosItem@@A 100beea8     KScenePlaceC.obj
 0002:00004034       __real@4@4005f000000000000000 100bf034     KScenePlaceC.obj
 0002:00004038       __real@8@40038000000000000000 100bf038     KScenePlaceC.obj
 0002:00004040       __real@8@3ff8a3d70a0000000000 100bf040     KScenePlaceC.obj
 0002:00004048       ??_7TreeObjSet@?BH@??Preprocess@KScenePlaceC@@AAEXXZ@6B@ 100bf048     KScenePlaceC.obj
 0002:0000404c       ??_7KWeather@@6B@          100bf04c     KWeather.obj
 0002:00004064       ??_7KWeatherRain@@6B@      100bf064     KWeather.obj
 0002:0000407c       __real@4@4007fa00000000000000 100bf07c     KWeather.obj
 0002:00004080       __real@4@4003a000000000000000 100bf080     KWeather.obj
 0002:00004084       __real@4@3ffeb333330000000000 100bf084     KWeather.obj
 0002:00004088       __real@4@3ff7a3d70a0000000000 100bf088     KWeather.obj
 0002:0000408c       __real@4@4001c000000000000000 100bf08c     KWeather.obj
 0002:00004090       __real@4@40018000000000000000 100bf090     KWeather.obj
 0002:00004098       __real@8@40048000000000000000 100bf098     SceneMath.obj
 0002:000040a0       ?MAGIC_ATTRIB_STRING@@3QAY0GE@$$CBDA 100bf0a0     KMagicDesc.obj
 0002:0000aee8       __real@4@4002f000000000000000 100c5ee8     KJXPathFinder.obj
 0002:0000aeec       __real@4@4002a000000000000000 100c5eec     KJXPathFinder.obj
 0002:0000aef0       __real@4@4002e000000000000000 100c5ef0     KJXPathFinder.obj
 0002:0000af24       ??_C@_08JKC@crtdll?4c?$AA@ 100c5f24     MSVCRTD:crtdll.obj
 0002:0000ca30       __IMPORT_DESCRIPTOR_KERNEL32 100c7a30     kernel32:KERNEL32.dll
 0002:0000ca44       __IMPORT_DESCRIPTOR_LuaLibDll 100c7a44     lualibdll:LuaLibDll.dll
 0002:0000ca58       __IMPORT_DESCRIPTOR_WINMM  100c7a58     Winmm:WINMM.dll
 0002:0000ca6c       __IMPORT_DESCRIPTOR_Engine 100c7a6c     engine:Engine.dll
 0002:0000ca80       __IMPORT_DESCRIPTOR_MSVCP60D 100c7a80     msvcprtd:MSVCP60D.dll
 0002:0000ca94       __IMPORT_DESCRIPTOR_MSVCRTD 100c7a94     MSVCRTD:MSVCRTD.dll
 0002:0000caa8       __NULL_IMPORT_DESCRIPTOR   100c7aa8     kernel32:KERNEL32.dll
 0003:00000000       ___xc_a                    100cb000     MSVCRTD:cinitexe.obj
 0003:000000e8       ___xc_z                    100cb0e8     MSVCRTD:cinitexe.obj
 0003:000000ec       ___xi_a                    100cb0ec     MSVCRTD:cinitexe.obj
 0003:000000f0       ___xi_z                    100cb0f0     MSVCRTD:cinitexe.obj
 0003:00000338       ?g_CollisionMatrix@@3PAUTCollisionMatrix@@A 100cb338     KMissle.obj
 0003:000011e0       ??_C@_0BG@DBNK@?4?4?2engine?2src?2KNode?4h?$AA@ 100cc1e0     KMissle.obj
 0003:000014fc       ??_C@_0EF@BAPG@Param2PCoordinate?$LK?$KP?J?$PN?$LL?q?$LF?C?$LC?N?J?$PN?N?$KF?$LH@ 100cc4fc     KSkills.obj
 0003:00002f10       ??_C@_0DP@IOPE@D?3?2ProjectHuyenThietKiem?2SwordOn@ 100cdf10     KNpcAI.obj
 0003:00004894       ?g_dwChannelOr@@3PAKA      100cf894     KPlayerChat.obj
 0003:000048b8       ?g_dwChannelAnd@@3PAKA     100cf8b8     KPlayerChat.obj
 0003:00005598       ?TABFILE_EQUIPMENT@@3PAPADA 100d0598     KBasPropTbl.obj
 0003:00008438       ?g_nEquipPower@@3PAHA      100d3438     KItemList.obj
 0003:0000846c       ?ms_ActiveEquip@KItemList@@0PAY01HA 100d346c     KItemList.obj
 0003:000084d4       ?ms_ActivedEquip@KItemList@@0PAY01HA 100d34d4     KItemList.obj
 0003:0000853c       ?ms_RoomMap@KItemList@@0PAHA 100d353c     KItemList.obj
 0003:00008ca4       ?g_szObjKind@@3PAY0CA@DA   100d3ca4     KObjSet.obj
 0003:00008e24       ?g_dwObjKindNum@@3PAKA     100d3e24     KObjSet.obj
 0003:00009a4c       ??_C@_0ED@DHLJ@D?3?2ProjectHuyenThietKiem?2SwordOn@ 100d4a4c     KRegion.obj
 0003:00009a90       ?g_nSinBuffer@@3PAHA       100d4a90     KMath.obj
 0003:00009b90       ?g_nCosBuffer@@3PAHA       100d4b90     KMath.obj
 0003:00009c90       ?g_InternalDirSinCosCodeBuffer@@3PAEA 100d4c90     KMath.obj
 0003:00009cb4       ?g_InternalIsAccrueConquerCodeBuffer@@3PAEA 100d4cb4     KMath.obj
 0003:00009ce0       ?g_nSin@@3PAHA             100d4ce0     KMath.obj
 0003:00009ce4       ?g_nCos@@3PAHA             100d4ce4     KMath.obj
 0003:00009ce8       ?g_InternalDirSinCosCode@@3PAEA 100d4ce8     KMath.obj
 0003:00009cec       ?g_InternalIsAccrueConquerCode@@3PAEA 100d4cec     KMath.obj
 0003:00009cf0       ?g_nProtocolSize@@3PAHA    100d4cf0     KProtocol.obj
 0003:0000b3f0       ?GameScriptFuns@@3PAUTLua_Funcs@@A 100d63f0     ScriptFuns.obj
 0003:0000b4b8       ?WorldScriptFuns@@3PAUTLua_Funcs@@A 100d64b8     ScriptFuns.obj
 0003:0000c1b8       ?m_BranchFlag@KIpotBranch@@0PAIA 100d71b8     KIpotBranch.obj
 0003:0000c5f8       ?m_RangePosTable@KScenePlaceC@@0PAUtagPOINT@@A 100d75f8     KScenePlaceC.obj
 0003:0000c780       ?m_PRIIdxTable@KScenePlaceC@@0PAHA 100d7780     KScenePlaceC.obj
 0003:0000d5e4       ??_C@_0EE@ODOP@D?3?2ProjectHuyenThietKiem?2SwordOn@ 100d85e4     KJXPathFinder.obj
 0003:0000d628       ??_C@_0EJ@NHHD@D?3?2ProjectHuyenThietKiem?2SwordOn@ 100d8628     KJXPathFinder.obj
 0003:0000d848       ?Missle@@3PAVKMissle@@A    100d8848     KMissle.obj
 0003:00174e48       ?g_MisslesLib@@3PAVKMissle@@A 1023fe48     KMissle.obj
 0003:002b8548       ?g_nRandMissleTab@@3PAHA   10383548     KMissle.obj
 0003:002b86f8       ?MissleSet@@3VKMissleSet@@A 103836f8     KMissleSet.obj
 0003:002b8710       ?g_SkillManager@@3VKSkillManager@@A 10383710     KSkillManager.obj
 0003:0033d410       ?g_ulSkillCount@@3KA       10408410     KSkillManager.obj
 0003:0033d448       ?SpecialMovieList@@3VKList@@A 10408448     KSkillSpecial.obj
 0003:0033d460       ?g_Faction@@3VKFaction@@A  10408460     KFaction.obj
 0003:0033d6f8       ?g_pNpcTemplate@@3PAY1GE@4PAVKNpcTemplate@@A 104086f8     KNpc.obj
 0003:00802238       ?Npc@@3PAVKNpc@@A          108cd238     KNpc.obj
 0003:01b67278       ?NpcAI@@3VKNpcAI@@A        11c32278     KNpcAI.obj
 0003:01b67280       ?g_NpcAttribModify@@3VKNpcAttribModify@@A 11c32280     KNpcAttribModify.obj
 0003:01b67718       ?g_NpcResList@@3VKNpcResList@@A 11c32718     KNpcResList.obj
 0003:01b71da0       ?NpcSet@@3VKNpcSet@@A      11c3cda0     KNpcSet.obj
 0003:01b75728       ?g_nLastNetMsgLoop@@3HA    11c40728     KPlayer.obj
 0003:01b75730       ?Player@@3PAVKPlayer@@A    11c40730     KPlayer.obj
 0003:01b8edb8       ?PlayerSet@@3VKPlayerSet@@A 11c59db8     KPlayerSet.obj
 0003:01b8f590       ?g_Team@@3PAVKTeam@@A      11c5a590     KPlayerTeam.obj
 0003:01b8f838       ?BuySell@@3VKBuySell@@A    11c5a838     KBuySell.obj
 0003:01b8f860       ?Item@@3PAVKItem@@A        11c5a860     KItem.obj
 0003:01c8e870       ?g_ItemChangeRes@@3VKItemChangeRes@@A 11d59870     KItemChangeRes.obj
 0003:01c8e930       ?ItemGen@@3VKItemGenerator@@A 11d59930     KItemGenerator.obj
 0003:01c94470       ?ItemSet@@3VKItemSet@@A    11d5f470     KItemSet.obj
 0003:01c94530       ?Object@@3PAVKObj@@A       11d5f530     KObj.obj
 0003:01cd4d30       ?ObjSet@@3VKObjSet@@A      11d9fd30     KObjSet.obj
 0003:01cd4dd8       ?g_cViewItem@@3VKViewItem@@A 11d9fdd8     KViewItem.obj
 0003:01cd4ed0       ?g_WorldScript@@3VKLuaScript@@A 11d9fed0     KCore.obj
 0003:01cd4f48       ?g_cGoldEquip@@3VKTabFile@@A 11d9ff48     KCore.obj
 0003:01cd4f68       ?g_bDebugScript@@3HA       11d9ff68     KCore.obj
 0003:01cd4f70       ?g_SoundCache@@3VKSoundCache@@A 11d9ff70     KCore.obj
 0003:01cd4f94       ?g_nHandSkill@@3HA         11d9ff94     KCore.obj
 0003:01cd4f98       ?g_nRangeWeaponSkill@@3PAHA 11d9ff98     KCore.obj
 0003:01cd5128       ?g_nMeleeWeaponSkill@@3PAHA 11da0128     KCore.obj
 0003:01cd52b8       ?g_BattleSettingFile@@3VKIniFile@@A 11da02b8     KCore.obj
 0003:01cd5318       ?g_GoldMagicTab@@3VKTabFile@@A 11da0318     KCore.obj
 0003:01cd5338       ?g_MagicScriptStackTabFile@@3VKTabFile@@A 11da0338     KCore.obj
 0003:01cd5358       ?g_QuestStackTabFile@@3VKTabFile@@A 11da0358     KCore.obj
 0003:01cd5378       ?g_GameSettingFile@@3VKIniFile@@A 11da0378     KCore.obj
 0003:01cd53d8       ?g_NpcKindFile@@3VKTabFile@@A 11da03d8     KCore.obj
 0003:01cd53f8       ?g_NpcSetting@@3VKTabFile@@A 11da03f8     KCore.obj
 0003:01cd5418       ?g_SkillLevelSetting@@3VKTabFile@@A 11da0418     KCore.obj
 0003:01cd5438       ?g_MisslesSetting@@3VKTabFile@@A 11da0438     KCore.obj
 0003:01cd5458       ?g_OrdinSkillsSetting@@3VKTabFile@@A 11da0458     KCore.obj
 0003:01cd5478       ?g_bPingReply@@3HA         11da0478     KCore.obj
 0003:01cd547c       ?g_pClient@@3PAUIClient@@A 11da047c     KCore.obj
 0003:01cd5480       ?g_TitleTabSetting@@3VKTabFile@@A 11da0480     KCore.obj
 0003:01cd54a0       ?g_MapTrafficSetting@@3VKIniFile@@A 11da04a0     KCore.obj
 0003:01cd5500       ?g_StateIniSetting@@3VKIniFile@@A 11da0500     KCore.obj
 0003:01cd5560       ?g_RankTabSetting@@3VKTabFile@@A 11da0560     KCore.obj
 0003:01cd5580       ?g_ClientWeaponSkillTabFile@@3VKTabFile@@A 11da0580     KCore.obj
 0003:01cd55a0       ?g_pAdjustColorTab@@3PAIA  11da05a0     KCore.obj
 0003:01cd55a4       ?g_ulAdjustColorCount@@3IA 11da05a4     KCore.obj
 0003:01cd55a8       ?g_bUISelIntelActiveWithServer@@3HA 11da05a8     KCore.obj
 0003:01cd55ac       ?g_bUISpeakActiveWithServer@@3HA 11da05ac     KCore.obj
 0003:01cd55b0       ?g_bUISelLastSelCount@@3HA 11da05b0     KCore.obj
 0003:01cd55b4       ?g_pMusic@@3PAVKMusic@@A   11da05b4     KCore.obj
 0003:01cd55b8       ?g_pNpcLevelScript@@3PAVKLuaScript@@A 11da05b8     KCore.obj
 0003:01cd55c0       ?SubWorld@@3PAVKSubWorld@@A 11da05c0     KSubWorld.obj
 0003:01cd56c8       ?nActiveRegionCount@@3HA   11da06c8     KSubWorldSet.obj
 0003:01cd56d0       ?g_SubWorldSet@@3VKSubWorldSet@@A 11da06d0     KSubWorldSet.obj
 0003:01ce17d8       ?g_nConquerSeries@@3PAHA   11dac7d8     KMath.obj
 0003:01ce17ec       ?g_nAccrueSeries@@3PAHA    11dac7ec     KMath.obj
 0003:01ce1800       ?g_ProtocolProcess@@3VKProtocolProcess@@A 11dac800     KProtocolProcess.obj
 0003:01ce1bf8       ?g_TempValue@@3PAHA        11dacbf8     ScriptFuns.obj
 0003:01ce23c8       ?g_StoryScriptList@@3VKScriptList@@A 11dad3c8     ScriptFuns.obj
 0003:01ce23e0       ?g_ScriptValueSet@@3VKScriptValueSet@@A 11dad3e0     KScriptValueSet.obj
 0003:01ce2414       ?g_pMainScript@@3PAVKLuaScript@@A 11dad414     KScriptValueSet.obj
 0003:01ce2428       ?g_szCurScriptDir@@3PADA   11dad428     KSortScript.obj
 0003:01ce252c       ?nCurrentScriptNum@@3IA    11dad52c     KSortScript.obj
 0003:01ce2530       ?g_ScriptBinTree@@3V?$BinSTree@VKSortScriptNode@@@@A 11dad530     KSortScript.obj
 0003:01ce2540       ?g_ScriptSet@@3PAVKLuaScript@@A 11dad540     KSortScript.obj
 0003:01ce25bc       ?l_pDataChangedNotifyFunc@@3PAUIClientCallback@@A 11dad5bc     CoreShell.obj
 0003:01ce2608       ?g_ScenePlace@@3VKScenePlaceC@@A 11dad608     KScenePlaceC.obj
 0003:01d4fa9c       ?g_bShowGameInfo@@3_NA     11e1aa9c     KScenePlaceC.obj
 0003:01d4faa0       ?g_nMapIndex@@3HA          11e1aaa0     KScenePlaceC.obj
 0003:01d4faa4       ?g_bShowObstacle@@3HA      11e1aaa4     KScenePlaceC.obj
 0003:01d4fb24       ?g_pRepresent@@3PAUiRepresentShell@@A 11e1ab24     ImgRef.obj
 0003:01d4fb28       ?l_Time@@3IA               11e1ab28     ImgRef.obj
 0003:01d4fb30       ?g_MagicDesc@@3VKMagicDesc@@A 11e1ab30     KMagicDesc.obj
 0003:01d4fd90       ?g_StringResourseTabFile@@3VKTabFile@@A 11e1ad90     KTaskFuns.obj
 0003:01d4fdb8       ?Option@@3VKOption@@A      11e1adb8     KOption.obj
 0003:01d4fdc8       ?Ladder@@3VKLadder@@A      11e1adc8     KLadder.obj
 0003:01d517b0       ?g_LoadFile@@3VZLoadFile@@A 11e1c7b0     ZLoadFile.obj
 0003:01d51ac8       ?g_JXPathFinder@@3VKJXPathFinder@@A 11e1cac8     KJXPathFinder.obj
 0003:01d51b14       __adjust_fdiv              11e1cb14     <common>
 0003:01d51b18       __pRawDllMain              11e1cb18     <common>
 0003:01d51b1c       ___onexitend               11e1cb1c     <common>
 0003:01d51b20       ___onexitbegin             11e1cb20     <common>

 entry point at        0001:000b7980

 Static symbols

 0001:000b2e30       _$E9                       100b3e30 f   KJXPathFinder.obj
 0001:000b2e46       _$E6                       100b3e46 f   KJXPathFinder.obj
 0001:000b2e5e       _$E8                       100b3e5e f   KJXPathFinder.obj
 0001:000b2e77       _$E7                       100b3e77 f   KJXPathFinder.obj
 0001:000b2830       _$E28                      100b3830 f   Kautoai.obj
 0001:000b2846       _$E25                      100b3846 f   Kautoai.obj
 0001:000b2868       _$E27                      100b3868 f   Kautoai.obj
 0001:000b2881       _$E26                      100b3881 f   Kautoai.obj
 0001:000b28a3       _$E34                      100b38a3 f   Kautoai.obj
 0001:000b28b9       _$E31                      100b38b9 f   Kautoai.obj
 0001:000b28db       _$E33                      100b38db f   Kautoai.obj
 0001:000b28f4       _$E32                      100b38f4 f   Kautoai.obj
 0001:000b1d20       _$E9                       100b2d20 f   ZLoadFile.obj
 0001:000b1d36       _$E6                       100b2d36 f   ZLoadFile.obj
 0001:000b1d4c       _$E8                       100b2d4c f   ZLoadFile.obj
 0001:000b1d65       _$E7                       100b2d65 f   ZLoadFile.obj
 0001:000b1a50       _$E9                       100b2a50 f   KLadder.obj
 0001:000b1a66       _$E6                       100b2a66 f   KLadder.obj
 0001:000b1a7c       _$E8                       100b2a7c f   KLadder.obj
 0001:000b1a95       _$E7                       100b2a95 f   KLadder.obj
 0001:000b00c0       _$E32                      100b10c0 f   KTaskFuns.obj
 0001:000b00d6       _$E29                      100b10d6 f   KTaskFuns.obj
 0001:000b00f8       _$E31                      100b10f8 f   KTaskFuns.obj
 0001:000b0111       _$E30                      100b1111 f   KTaskFuns.obj
 0001:000af730       _$E9                       100b0730 f   KMagicDesc.obj
 0001:000af746       _$E6                       100b0746 f   KMagicDesc.obj
 0001:000af75c       _$E8                       100b075c f   KMagicDesc.obj
 0001:000af775       _$E7                       100b0775 f   KMagicDesc.obj
 0001:000aa88f       _$E7                       100ab88f f   SceneMath.obj
 0001:000aa8a0       _$E6                       100ab8a0 f   SceneMath.obj
 0001:0009e540       _$E13                      1009f540 f   KScenePlaceC.obj
 0001:0009e556       _$E10                      1009f556 f   KScenePlaceC.obj
 0001:0009e56c       _$E12                      1009f56c f   KScenePlaceC.obj
 0001:0009e585       _$E11                      1009f585 f   KScenePlaceC.obj
 0001:0008d760       _$E33                      1008e760 f   CoreShell.obj
 0001:0008d771       _$E32                      1008e771 f   CoreShell.obj
 0001:0008c7f0       _$E9                       1008d7f0 f   KSortScript.obj
 0001:0008c806       _$E6                       1008d806 f   KSortScript.obj
 0001:0008c82d       _$E8                       1008d82d f   KSortScript.obj
 0001:0008c846       _$E7                       1008d846 f   KSortScript.obj
 0001:0008c866       _$E14                      1008d866 f   KSortScript.obj
 0001:0008c87c       _$E11                      1008d87c f   KSortScript.obj
 0001:0008c892       _$E13                      1008d892 f   KSortScript.obj
 0001:0008c8ab       _$E12                      1008d8ab f   KSortScript.obj
 0001:0008c944       ?LoadAllScript@@YAKPAD@Z   1008d944 f   KSortScript.obj
 0001:0008cd56       ?LoadScriptToSortList@@YAHPAD@Z 1008dd56 f   KSortScript.obj
 0001:0008cef0       ?LoadScriptToSortListA@@YAHPAD@Z 1008def0 f   KSortScript.obj
 0001:0008bd50       _$E9                       1008cd50 f   KScriptValueSet.obj
 0001:0008bd66       _$E6                       1008cd66 f   KScriptValueSet.obj
 0001:0008bd7c       _$E8                       1008cd7c f   KScriptValueSet.obj
 0001:0008bd95       _$E7                       1008cd95 f   KScriptValueSet.obj
 0001:00088d20       _$E32                      10089d20 f   ScriptFuns.obj
 0001:00088d36       _$E29                      10089d36 f   ScriptFuns.obj
 0001:00088d58       _$E31                      10089d58 f   ScriptFuns.obj
 0001:00088d71       _$E30                      10089d71 f   ScriptFuns.obj
 0001:0007f780       _$E35                      10080780 f   KProtocolProcess.obj
 0001:0007f796       _$E32                      10080796 f   KProtocolProcess.obj
 0001:0007f7ac       _$E34                      100807ac f   KProtocolProcess.obj
 0001:0007f7c5       _$E33                      100807c5 f   KProtocolProcess.obj
 0001:000864e3       ?sParseUGName@@YAHABV?$basic_string@DU?$char_traits@D@std@@V?$allocator@D@2@@std@@PAV12@1@Z 100874e3 f   KProtocolProcess.obj
 0001:0007bb50       _$E31                      1007cb50 f   KSubWorldSet.obj
 0001:0007bb66       _$E28                      1007cb66 f   KSubWorldSet.obj
 0001:0007bb7c       _$E30                      1007cb7c f   KSubWorldSet.obj
 0001:0007bb95       _$E29                      1007cb95 f   KSubWorldSet.obj
 0001:00078720       _$E35                      10079720 f   KSubWorld.obj
 0001:00078736       _$E32                      10079736 f   KSubWorld.obj
 0001:0007875d       _$E34                      1007975d f   KSubWorld.obj
 0001:00078776       _$E33                      10079776 f   KSubWorld.obj
 0001:00076f90       _$E10                      10077f90 f   KCore.obj
 0001:00076fa6       _$E7                       10077fa6 f   KCore.obj
 0001:00076fc8       _$E9                       10077fc8 f   KCore.obj
 0001:00076fe1       _$E8                       10077fe1 f   KCore.obj
 0001:00077003       _$E19                      10078003 f   KCore.obj
 0001:00077019       _$E16                      10078019 f   KCore.obj
 0001:0007703b       _$E18                      1007803b f   KCore.obj
 0001:00077054       _$E17                      10078054 f   KCore.obj
 0001:00077076       _$E24                      10078076 f   KCore.obj
 0001:0007708c       _$E21                      1007808c f   KCore.obj
 0001:000770ae       _$E23                      100780ae f   KCore.obj
 0001:000770c7       _$E22                      100780c7 f   KCore.obj
 0001:000770e9       _$E29                      100780e9 f   KCore.obj
 0001:000770ff       _$E26                      100780ff f   KCore.obj
 0001:00077121       _$E28                      10078121 f   KCore.obj
 0001:0007713a       _$E27                      1007813a f   KCore.obj
 0001:0007715c       _$E34                      1007815c f   KCore.obj
 0001:00077172       _$E31                      10078172 f   KCore.obj
 0001:00077194       _$E33                      10078194 f   KCore.obj
 0001:000771ad       _$E32                      100781ad f   KCore.obj
 0001:000771cf       _$E39                      100781cf f   KCore.obj
 0001:000771e5       _$E36                      100781e5 f   KCore.obj
 0001:0007721b       _$E38                      1007821b f   KCore.obj
 0001:00077234       _$E37                      10078234 f   KCore.obj
 0001:0007726a       _$E44                      1007826a f   KCore.obj
 0001:00077280       _$E41                      10078280 f   KCore.obj
 0001:000772a2       _$E43                      100782a2 f   KCore.obj
 0001:000772bb       _$E42                      100782bb f   KCore.obj
 0001:000772dd       _$E49                      100782dd f   KCore.obj
 0001:000772f3       _$E46                      100782f3 f   KCore.obj
 0001:00077315       _$E48                      10078315 f   KCore.obj
 0001:0007732e       _$E47                      1007832e f   KCore.obj
 0001:00077350       _$E54                      10078350 f   KCore.obj
 0001:00077366       _$E51                      10078366 f   KCore.obj
 0001:00077388       _$E53                      10078388 f   KCore.obj
 0001:000773a1       _$E52                      100783a1 f   KCore.obj
 0001:000773c3       _$E59                      100783c3 f   KCore.obj
 0001:000773d9       _$E56                      100783d9 f   KCore.obj
 0001:000773fb       _$E58                      100783fb f   KCore.obj
 0001:00077414       _$E57                      10078414 f   KCore.obj
 0001:00077436       _$E64                      10078436 f   KCore.obj
 0001:0007744c       _$E61                      1007844c f   KCore.obj
 0001:0007746e       _$E63                      1007846e f   KCore.obj
 0001:00077487       _$E62                      10078487 f   KCore.obj
 0001:000774a9       _$E69                      100784a9 f   KCore.obj
 0001:000774bf       _$E66                      100784bf f   KCore.obj
 0001:000774e1       _$E68                      100784e1 f   KCore.obj
 0001:000774fa       _$E67                      100784fa f   KCore.obj
 0001:0007751c       _$E74                      1007851c f   KCore.obj
 0001:00077532       _$E71                      10078532 f   KCore.obj
 0001:00077554       _$E73                      10078554 f   KCore.obj
 0001:0007756d       _$E72                      1007856d f   KCore.obj
 0001:0007758f       _$E79                      1007858f f   KCore.obj
 0001:000775a5       _$E76                      100785a5 f   KCore.obj
 0001:000775c7       _$E78                      100785c7 f   KCore.obj
 0001:000775e0       _$E77                      100785e0 f   KCore.obj
 0001:00077602       _$E84                      10078602 f   KCore.obj
 0001:00077618       _$E81                      10078618 f   KCore.obj
 0001:0007763a       _$E83                      1007863a f   KCore.obj
 0001:00077653       _$E82                      10078653 f   KCore.obj
 0001:00077675       _$E89                      10078675 f   KCore.obj
 0001:0007768b       _$E86                      1007868b f   KCore.obj
 0001:000776ad       _$E88                      100786ad f   KCore.obj
 0001:000776c6       _$E87                      100786c6 f   KCore.obj
 0001:000776e8       _$E94                      100786e8 f   KCore.obj
 0001:000776fe       _$E91                      100786fe f   KCore.obj
 0001:00077720       _$E93                      10078720 f   KCore.obj
 0001:00077739       _$E92                      10078739 f   KCore.obj
 0001:00076b90       _$E29                      10077b90 f   KViewItem.obj
 0001:00076ba1       _$E28                      10077ba1 f   KViewItem.obj
 0001:00074bd0       _$E35                      10075bd0 f   KObjSet.obj
 0001:00074be6       _$E32                      10075be6 f   KObjSet.obj
 0001:00074bfc       _$E34                      10075bfc f   KObjSet.obj
 0001:00074c15       _$E33                      10075c15 f   KObjSet.obj
 0001:00072cd0       _$E33                      10073cd0 f   KObj.obj
 0001:00072ce1       _$E32                      10073ce1 f   KObj.obj
 0001:00071e30       _$E9                       10072e30 f   KItemSet.obj
 0001:00071e46       _$E6                       10072e46 f   KItemSet.obj
 0001:00071e5c       _$E8                       10072e5c f   KItemSet.obj
 0001:00071e75       _$E7                       10072e75 f   KItemSet.obj
 0001:00066500       _$E28                      10067500 f   KItemGenerator.obj
 0001:00066516       _$E25                      10067516 f   KItemGenerator.obj
 0001:00066538       _$E27                      10067538 f   KItemGenerator.obj
 0001:00066551       _$E26                      10067551 f   KItemGenerator.obj
 0001:00066573       _$E34                      10067573 f   KItemGenerator.obj
 0001:00066589       _$E31                      10067589 f   KItemGenerator.obj
 0001:000665ab       _$E33                      100675ab f   KItemGenerator.obj
 0001:000665c4       _$E32                      100675c4 f   KItemGenerator.obj
 0001:000665e6       _$E39                      100675e6 f   KItemGenerator.obj
 0001:000665fc       _$E36                      100675fc f   KItemGenerator.obj
 0001:00066612       _$E38                      10067612 f   KItemGenerator.obj
 0001:0006662b       _$E37                      1006762b f   KItemGenerator.obj
 0001:00065ed0       _$E9                       10066ed0 f   KItemChangeRes.obj
 0001:00065ee6       _$E6                       10066ee6 f   KItemChangeRes.obj
 0001:00065efc       _$E8                       10066efc f   KItemChangeRes.obj
 0001:00065f15       _$E7                       10066f15 f   KItemChangeRes.obj
 0001:00061b90       _$E31                      10062b90 f   KItem.obj
 0001:00061ba6       _$E28                      10062ba6 f   KItem.obj
 0001:00061bd0       _$E30                      10062bd0 f   KItem.obj
 0001:00061be9       _$E29                      10062be9 f   KItem.obj
 0001:0005f690       _$E31                      10060690 f   KBuySell.obj
 0001:0005f6a6       _$E28                      100606a6 f   KBuySell.obj
 0001:0005f6bc       _$E30                      100606bc f   KBuySell.obj
 0001:0005f6d5       _$E29                      100606d5 f   KBuySell.obj
 0001:000572c0       _$E29                      100582c0 f   KPlayerTeam.obj
 0001:000572d1       _$E28                      100582d1 f   KPlayerTeam.obj
 0001:000555d0       _$E31                      100565d0 f   KPlayerSet.obj
 0001:000555e6       _$E28                      100565e6 f   KPlayerSet.obj
 0001:000555fc       _$E30                      100565fc f   KPlayerSet.obj
 0001:00055615       _$E29                      10056615 f   KPlayerSet.obj
 0001:0003b170       _$E36                      1003c170 f   KPlayer.obj
 0001:0003b186       _$E33                      1003c186 f   KPlayer.obj
 0001:0003b1ad       _$E35                      1003c1ad f   KPlayer.obj
 0001:0003b1c6       _$E34                      1003c1c6 f   KPlayer.obj
 0001:00036fc0       _$E35                      10037fc0 f   KNpcSet.obj
 0001:00036fd6       _$E32                      10037fd6 f   KNpcSet.obj
 0001:00036fec       _$E34                      10037fec f   KNpcSet.obj
 0001:00037005       _$E33                      10038005 f   KNpcSet.obj
 0001:00032a10       _$E9                       10033a10 f   KNpcResList.obj
 0001:00032a26       _$E6                       10033a26 f   KNpcResList.obj
 0001:00032a3c       _$E8                       10033a3c f   KNpcResList.obj
 0001:00032a55       _$E7                       10033a55 f   KNpcResList.obj
 0001:00028250       _$E31                      10029250 f   KNpcAttribModify.obj
 0001:00028266       _$E28                      10029266 f   KNpcAttribModify.obj
 0001:0002827c       _$E30                      1002927c f   KNpcAttribModify.obj
 0001:00028295       _$E29                      10029295 f   KNpcAttribModify.obj
 0001:000246c0       _$E29                      100256c0 f   KNpcAI.obj
 0001:000246d1       _$E28                      100256d1 f   KNpcAI.obj
 0001:00014560       _$E35                      10015560 f   KNpc.obj
 0001:00014576       _$E32                      10015576 f   KNpc.obj
 0001:000145a0       _$E34                      100155a0 f   KNpc.obj
 0001:000145b9       _$E33                      100155b9 f   KNpc.obj
 0001:00013a20       _$E13                      10014a20 f   KSkillSpecial.obj
 0001:00013a36       _$E10                      10014a36 f   KSkillSpecial.obj
 0001:00013a4c       _$E12                      10014a4c f   KSkillSpecial.obj
 0001:00013a65       _$E11                      10014a65 f   KSkillSpecial.obj
 0001:00009aa0       _$E31                      1000aaa0 f   KSkillManager.obj
 0001:00009ab6       _$E28                      1000aab6 f   KSkillManager.obj
 0001:00009acc       _$E30                      1000aacc f   KSkillManager.obj
 0001:00009ae5       _$E29                      1000aae5 f   KSkillManager.obj
 0001:00007250       _$E9                       10008250 f   KMissleSet.obj
 0001:00007266       _$E6                       10008266 f   KMissleSet.obj
 0001:0000727c       _$E8                       1000827c f   KMissleSet.obj
 0001:00007295       _$E7                       10008295 f   KMissleSet.obj
 0001:00001480       _$E35                      10002480 f   KMissle.obj
 0001:00001496       _$E32                      10002496 f   KMissle.obj
 0001:000014c0       _$E34                      100024c0 f   KMissle.obj
 0001:000014d9       _$E33                      100024d9 f   KMissle.obj
 0001:000014fe       _$E40                      100024fe f   KMissle.obj
 0001:00001514       _$E37                      10002514 f   KMissle.obj
 0001:0000153e       _$E39                      1000253e f   KMissle.obj
 0001:00001557       _$E38                      10002557 f   KMissle.obj
 0001:000b77e0       _$$$00001                  100b87e0 f   MSVCRTD:chkstk.obj
 0001:000b77ec       probepages                 100b87ec f   MSVCRTD:chkstk.obj
 0001:000b7800       lastpage                   100b8800 f   MSVCRTD:chkstk.obj
 0001:000b7750       ?ArrayUnwindFilter@@YAHPAU_EXCEPTION_POINTERS@@@Z 100b8750 f   MSVCRTD:ehvecdtr.obj
