 Game

 Timestamp is 68843363 (Sat Jul 26 08:46:11 2025)

 Preferred load address is 00400000

 Start         Length     Name                   Class
 0001:00000000 000d3092H .text                   CODE
 0001:000d30a0 0000b8ccH .text$x                 CODE
 0002:00000000 00000434H .idata$5                DATA
 0002:00000438 000026acH .rdata                  DATA
 0002:00002ae8 0000a020H .xdata$x                DATA
 0002:0000cb08 000000c8H .idata$2                DATA
 0002:0000cbd0 00000014H .idata$3                DATA
 0002:0000cbe4 00000434H .idata$4                DATA
 0002:0000d018 00001a94H .idata$6                DATA
 0002:0000eaac 00000000H .edata                  DATA
 0003:00000000 00000004H .CRT$XCA                DATA
 0003:00000004 0000007cH .CRT$XCU                DATA
 0003:00000080 00000004H .CRT$XCZ                DATA
 0003:00000084 00000004H .CRT$XIA                DATA
 0003:00000088 00000004H .CRT$XIZ                DATA
 0003:00000090 0000fecaH .data                   DATA
 0003:0000ff60 00005810H .bss                    DATA
 0004:00000000 000000e8H .rsrc$01                DATA
 0004:000000f0 00000be0H .rsrc$02                DATA

  Address         Publics by Value              Rva+Base     Lib:Object

 0001:00000000       ?ALW_GetWndPosition@@YAXAAH0HH_N1@Z 00401000 f   AutoLocateWnd.obj
 0001:00000147       ?gGetComClassFactory@@YAPAVKComClassFactory@@XZ 00401147 f   ComWindow.obj
 0001:00000151       ??0KComClassFactory@@QAE@XZ 00401151 f   ComWindow.obj
 0001:00000170       ?FindComClass@KComClassFactory@@QAEPAUKComClassInfo@@PBD@Z 00401170 f   ComWindow.obj
 0001:000001e2       ?FindComClass@KComClassFactory@@QAEPAUKComClassInfo@@PBU2@@Z 004011e2 f   ComWindow.obj
 0001:00000216       ?RegisterComClass@KComClassFactory@@QAEHABUKComClassInfo@@@Z 00401216 f   ComWindow.obj
 0001:00000282       ?CreateComObject@KComClassFactory@@QAEPAVKWndWindow@@PBD@Z 00401282 f   ComWindow.obj
 0001:000002e0       ?get_VS_ColorRGB@@YAPAHPAH0HH@Z 004012e0 f   LightLoop.obj
 0001:000003fc       ?_Draw_Light@@YAXPAUKRUPoint@@HAAHAAEHHHHH@Z 004013fc f   LightLoop.obj
 0001:0000082e       ?_SwapPos@@YAXAAHAAEHHHH@Z 0040182e f   LightLoop.obj
 0001:000008cc       ?DrawLight@@YAXAAHAAE1HHHHHH@Z 004018cc f   LightLoop.obj
 0001:000016a9       ?DrawBorder@@YAXAAHAAGAAKHHHHH@Z 004026a9 f   LightLoop.obj
 0001:00001890       ??_H@YGXPAXIHP6EX0@Z@Z     00402890 f i MouseHover.obj
 0001:000018f7       ?SetHoverObjDescColor@@YAXI@Z 004028f7 f   MouseHover.obj
 0001:00001904       ?SetMouseHoverObjectDesc@@YAXPAXHIIHHH@Z 00402904 f   MouseHover.obj
 0001:00001c3a       ?DrawDraggingGameObjFunc@@YAHHHABUKUiDraggedObject@@H@Z 00402c3a f   MouseHover.obj
 0001:00001c7e       ??0KMouseOver@@QAE@XZ      00402c7e f   MouseHover.obj
 0001:00001df4       ?IsMoseHoverWndObj@KMouseOver@@QAEHPAXH@Z 00402df4 f   MouseHover.obj
 0001:00001e40       ?CancelMouseHoverInfo@KMouseOver@@QAEXXZ 00402e40 f   MouseHover.obj
 0001:00001f05       ?SetMouseHoverInfo@KMouseOver@@QAEXPAXHHH_N1@Z 00402f05 f   MouseHover.obj
 0001:00001fad       ?SetMouseHoverImage@KMouseOver@@QAEX_N@Z 00402fad f   MouseHover.obj
 0001:00002120       ?SetMouseHoverTitle@KMouseOver@@QAEXPBDHI@Z 00403120 f   MouseHover.obj
 0001:000021b1       ?SetMouseHoverProp@KMouseOver@@QAEXPBDHI@Z 004031b1 f   MouseHover.obj
 0001:00002242       ?SetMouseHoverDesc@KMouseOver@@QAEXPBDHI@Z 00403242 f   MouseHover.obj
 0001:000022d3       ?SetMouseHoverIcon@KMouseOver@@QAEXPBD@Z 004032d3 f   MouseHover.obj
 0001:000023f6       ?Update@KMouseOver@@AAEXHH@Z 004033f6 f   MouseHover.obj
 0001:0000265c       ?UpdateCursorPos@KMouseOver@@QAEXHH@Z 0040365c f   MouseHover.obj
 0001:000026a3       ?OnWndClosed@KMouseOver@@QAEXPAX@Z 004036a3 f   MouseHover.obj
 0001:000026dd       ?LoadScheme@KMouseOver@@QAEXPBD@Z 004036dd f   MouseHover.obj
 0001:00002b75       ?PaintMouseHoverInfo@KMouseOver@@QAEXXZ 00403b75 f   MouseHover.obj
 0001:000032f0       ?GetStatus@KUiBase@@QAE?AW4UISYS_STATUS@@XZ 004042f0 f i MouseHover.obj
 0001:00003310       ??0KOutputTextParam@@QAE@XZ 00404310 f i MouseHover.obj
 0001:00003380       ?OnWndDelete@KPopupMenu@@SAXPAVKWndWindow@@@Z 00404380 f   PopupMenu.obj
 0001:0000339c       ?Popup@KPopupMenu@@SAXPAUKPopupMenuData@@PAVKWndWindow@@I@Z 0040439c f   PopupMenu.obj
 0001:00003856       ?PaintMenu@KPopupMenu@@SAXXZ 00404856 f   PopupMenu.obj
 0001:000041c6       ?HandleInput@KPopupMenu@@SAHIIH@Z 004051c6 f   PopupMenu.obj
 0001:00004320       ?SelectItem@KPopupMenu@@CA_NH_N@Z 00405320 f   PopupMenu.obj
 0001:00004436       ?SelectItem@KPopupMenu@@CA_NHH_N@Z 00405436 f   PopupMenu.obj
 0001:0000463c       ?Cancel@KPopupMenu@@SAXXZ  0040563c f   PopupMenu.obj
 0001:00004692       ?InitMenuData@KPopupMenu@@SAXPAUKPopupMenuData@@H@Z 00405692 f   PopupMenu.obj
 0001:000047e4       ?LoadTheme@KPopupMenu@@SAXPBD@Z 004057e4 f   PopupMenu.obj
 0001:00004c77       ?SetSpaceOverObjDescColor@@YAXI@Z 00405c77 f   SpaceOver.obj
 0001:00004c84       ?SetSpaceOverObjectDesc@@YAXPAXHIIHHHI_N@Z 00405c84 f   SpaceOver.obj
 0001:00004e3d       ??0KSpaceOver@@QAE@XZ      00405e3d f   SpaceOver.obj
 0001:00004f86       ?IsSpaceOverWndObj@KSpaceOver@@QAEHPAXH@Z 00405f86 f   SpaceOver.obj
 0001:00004fd2       ?CancelSpaceOverInfo@KSpaceOver@@QAEXXZ 00405fd2 f   SpaceOver.obj
 0001:00005045       ?SetSpaceOverInfo@KSpaceOver@@QAEXPAXHHHI_N1@Z 00406045 f   SpaceOver.obj
 0001:000050e3       ?SetSpaceOverImage@KSpaceOver@@QAEX_N@Z 004060e3 f   SpaceOver.obj
 0001:00005241       ?SetSpaceOverDesc@KSpaceOver@@QAEXPBDHI@Z 00406241 f   SpaceOver.obj
 0001:000052d2       ?Update@KSpaceOver@@AAEXHH@Z 004062d2 f   SpaceOver.obj
 0001:00005486       ?UpdateCursorPos@KSpaceOver@@QAEXHH@Z 00406486 f   SpaceOver.obj
 0001:000054cc       ?OnWndClosed@KSpaceOver@@QAEXPAX@Z 004064cc f   SpaceOver.obj
 0001:00005506       ?LoadScheme@KSpaceOver@@QAEXPBD@Z 00406506 f   SpaceOver.obj
 0001:000057d1       ?PaintSpaceOverInfo@KSpaceOver@@QAEXXZ 004067d1 f   SpaceOver.obj
 0001:00005be0       ?OutputTabSplitText@@YAHPBDHHHPAUKOutputTextParam@@@Z 00406be0 f   SpecialFuncs.obj
 0001:00005dff       ?SetScrPicPath@@YA_NPBD@Z  00406dff f   SpecialFuncs.obj
 0001:00005ec8       ?GetSrcPicPath@@YAPADXZ    00406ec8 f   SpecialFuncs.obj
 0001:00005eee       ?GetAPrintScreenFileName@@YA_NPADH@Z 00406eee f   SpecialFuncs.obj
 0001:00005f74       ?SaveScreenToFile@@YAXW4ScreenFileType@@I@Z 00406f74 f   SpecialFuncs.obj
 0001:000060b0       ??0KInlinePicSink@@QAE@XZ  004070b0 f   TextPic.obj
 0001:0000616a       ?Init@KInlinePicSink@@QAEHPAUiRepresentShell@@@Z 0040716a f   TextPic.obj
 0001:0000654f       ?UnInit@KInlinePicSink@@QAEHXZ 0040754f f   TextPic.obj
 0001:000065b9       ?GetPicSize@KInlinePicSink@@UAEJGAAH0@Z 004075b9 f   TextPic.obj
 0001:00006768       ?DrawPic@KInlinePicSink@@UAEJGHH@Z 00407768 f   TextPic.obj
 0001:0000691a       ?AddCustomInlinePic@KInlinePicSink@@UAEJAAGPBD@Z 0040791a f   TextPic.obj
 0001:00006b42       ?RemoveCustomInlinePic@KInlinePicSink@@UAEJG@Z 00407b42 f   TextPic.obj
 0001:00006bf0       ??0IInlinePicEngineSink@@QAE@XZ 00407bf0 f i TextPic.obj
 0001:00006c10       ??0?$vector@UKUiImageRef@@V?$allocator@UKUiImageRef@@@std@@@std@@QAE@ABV?$allocator@UKUiImageRef@@@1@@Z 00407c10 f i TextPic.obj
 0001:00006c50       ??1?$vector@UKUiImageRef@@V?$allocator@UKUiImageRef@@@std@@@std@@QAE@XZ 00407c50 f i TextPic.obj
 0001:00006cd0       ?size@?$vector@UKUiImageRef@@V?$allocator@UKUiImageRef@@@std@@@std@@QBEIXZ 00407cd0 f i TextPic.obj
 0001:00006d20       ??A?$vector@UKUiImageRef@@V?$allocator@UKUiImageRef@@@std@@@std@@QAEAAUKUiImageRef@@I@Z 00407d20 f i TextPic.obj
 0001:00006d60       ?push_back@?$vector@UKUiImageRef@@V?$allocator@UKUiImageRef@@@std@@@std@@QAEXABUKUiImageRef@@@Z 00407d60 f i TextPic.obj
 0001:00006da0       ??0?$vector@UKImageParam@@V?$allocator@UKImageParam@@@std@@@std@@QAE@ABV?$allocator@UKImageParam@@@1@@Z 00407da0 f i TextPic.obj
 0001:00006de0       ??1?$vector@UKImageParam@@V?$allocator@UKImageParam@@@std@@@std@@QAE@XZ 00407de0 f i TextPic.obj
 0001:00006e60       ?size@?$vector@UKImageParam@@V?$allocator@UKImageParam@@@std@@@std@@QBEIXZ 00407e60 f i TextPic.obj
 0001:00006eb0       ??A?$vector@UKImageParam@@V?$allocator@UKImageParam@@@std@@@std@@QAEAAUKImageParam@@I@Z 00407eb0 f i TextPic.obj
 0001:00006ee0       ?push_back@?$vector@UKImageParam@@V?$allocator@UKImageParam@@@std@@@std@@QAEXABUKImageParam@@@Z 00407ee0 f i TextPic.obj
 0001:00006f20       ?begin@?$vector@UKUiImageRef@@V?$allocator@UKUiImageRef@@@std@@@std@@QAEPAUKUiImageRef@@XZ 00407f20 f i TextPic.obj
 0001:00006f40       ?end@?$vector@UKUiImageRef@@V?$allocator@UKUiImageRef@@@std@@@std@@QAEPAUKUiImageRef@@XZ 00407f40 f i TextPic.obj
 0001:00006f60       ?insert@?$vector@UKUiImageRef@@V?$allocator@UKUiImageRef@@@std@@@std@@QAEPAUKUiImageRef@@PAU3@ABU3@@Z 00407f60 f i TextPic.obj
 0001:00006fd0       ?_Destroy@?$vector@UKUiImageRef@@V?$allocator@UKUiImageRef@@@std@@@std@@IAEXPAUKUiImageRef@@0@Z 00407fd0 f i TextPic.obj
 0001:00007020       ?deallocate@?$allocator@UKUiImageRef@@@std@@QAEXPAXI@Z 00408020 f i TextPic.obj
 0001:00007050       ?begin@?$vector@UKImageParam@@V?$allocator@UKImageParam@@@std@@@std@@QAEPAUKImageParam@@XZ 00408050 f i TextPic.obj
 0001:00007070       ?end@?$vector@UKImageParam@@V?$allocator@UKImageParam@@@std@@@std@@QAEPAUKImageParam@@XZ 00408070 f i TextPic.obj
 0001:00007090       ?insert@?$vector@UKImageParam@@V?$allocator@UKImageParam@@@std@@@std@@QAEPAUKImageParam@@PAU3@ABU3@@Z 00408090 f i TextPic.obj
 0001:00007100       ?_Destroy@?$vector@UKImageParam@@V?$allocator@UKImageParam@@@std@@@std@@IAEXPAUKImageParam@@0@Z 00408100 f i TextPic.obj
 0001:00007140       ?deallocate@?$allocator@UKImageParam@@@std@@QAEXPAXI@Z 00408140 f i TextPic.obj
 0001:00007170       ?insert@?$vector@UKUiImageRef@@V?$allocator@UKUiImageRef@@@std@@@std@@QAEXPAUKUiImageRef@@IABU3@@Z 00408170 f i TextPic.obj
 0001:000073f0       ?destroy@?$allocator@UKUiImageRef@@@std@@QAEXPAUKUiImageRef@@@Z 004083f0 f i TextPic.obj
 0001:00007420       ?insert@?$vector@UKImageParam@@V?$allocator@UKImageParam@@@std@@@std@@QAEXPAUKImageParam@@IABU3@@Z 00408420 f i TextPic.obj
 0001:00007680       ?destroy@?$allocator@UKImageParam@@@std@@QAEXPAUKImageParam@@@Z 00408680 f i TextPic.obj
 0001:000076b0       ?_Ucopy@?$vector@UKUiImageRef@@V?$allocator@UKUiImageRef@@@std@@@std@@IAEPAUKUiImageRef@@PBU3@0PAU3@@Z 004086b0 f i TextPic.obj
 0001:00007710       ?_Ufill@?$vector@UKUiImageRef@@V?$allocator@UKUiImageRef@@@std@@@std@@IAEXPAUKUiImageRef@@IABU3@@Z 00408710 f i TextPic.obj
 0001:00007760       ?allocate@?$allocator@UKUiImageRef@@@std@@QAEPAUKUiImageRef@@IPBX@Z 00408760 f i TextPic.obj
 0001:00007790       ?_Ucopy@?$vector@UKImageParam@@V?$allocator@UKImageParam@@@std@@@std@@IAEPAUKImageParam@@PBU3@0PAU3@@Z 00408790 f i TextPic.obj
 0001:000077e0       ?_Ufill@?$vector@UKImageParam@@V?$allocator@UKImageParam@@@std@@@std@@IAEXPAUKImageParam@@IABU3@@Z 004087e0 f i TextPic.obj
 0001:00007830       ?allocate@?$allocator@UKImageParam@@@std@@QAEPAUKImageParam@@IPBX@Z 00408830 f i TextPic.obj
 0001:00007860       ?construct@?$allocator@UKUiImageRef@@@std@@QAEXPAUKUiImageRef@@ABU3@@Z 00408860 f i TextPic.obj
 0001:00007890       ?construct@?$allocator@UKImageParam@@@std@@QAEXPAUKImageParam@@ABU3@@Z 00408890 f i TextPic.obj
 0001:000078c0       ?fill@std@@YAXPAUKUiImageRef@@0ABU2@@Z 004088c0 f i TextPic.obj
 0001:000078f0       ?copy_backward@std@@YAPAUKUiImageRef@@PAU2@00@Z 004088f0 f i TextPic.obj
 0001:00007930       ?_Destroy@std@@YAXPAUKUiImageRef@@@Z 00408930 f i TextPic.obj
 0001:00007940       ?fill@std@@YAXPAUKImageParam@@0ABU2@@Z 00408940 f i TextPic.obj
 0001:00007980       ?copy_backward@std@@YAPAUKImageParam@@PAU2@00@Z 00408980 f i TextPic.obj
 0001:000079d0       ?_Destroy@std@@YAXPAUKImageParam@@@Z 004089d0 f i TextPic.obj
 0001:000079e0       ?_Allocate@std@@YAPAUKUiImageRef@@HPAU2@@Z 004089e0 f i TextPic.obj
 0001:00007a10       ?_Allocate@std@@YAPAUKImageParam@@HPAU2@@Z 00408a10 f i TextPic.obj
 0001:00007a40       ?_Construct@std@@YAXPAUKUiImageRef@@ABU2@@Z 00408a40 f i TextPic.obj
 0001:00007aa0       ??2@YAPAXIPAX@Z            00408aa0 f i TextPic.obj
 0001:00007ab0       ?_Construct@std@@YAXPAUKImageParam@@ABU2@@Z 00408ab0 f i TextPic.obj
 0001:00007b20       ??0KUiCursor@@QAE@XZ       00408b20 f   UiCursor.obj
 0001:00007b8d       ?Cleanup@KUiCursor@@QAEXXZ 00408b8d f   UiCursor.obj
 0001:00007c02       ??1KUiCursor@@QAE@XZ       00408c02 f   UiCursor.obj
 0001:00007c26       ?SetPosition@KUiCursor@@QAEXHH@Z 00408c26 f   UiCursor.obj
 0001:00007c4c       ?GetPosition@KUiCursor@@QAEXAAH0@Z 00408c4c f   UiCursor.obj
 0001:00007c76       ?KUiLoadCursor@@YAHPBDAAPAUHICON__@@@Z 00408c76 f   UiCursor.obj
 0001:0000801a       ?SetImage@KUiCursor@@QAEXHPBD@Z 0040901a f   UiCursor.obj
 0001:0000808b       ?SwitchImage@KUiCursor@@QAEHH@Z 0040908b f   UiCursor.obj
 0001:00008143       ?RestoreCursor@KUiCursor@@QAEXXZ 00409143 f   UiCursor.obj
 0001:0000816e       ?Paint@KUiCursor@@QAEXXZ   0040916e f   UiCursor.obj
 0001:00008180       ?Show@KUiCursor@@QAEXH@Z   00409180 f   UiCursor.obj
 0001:000081c0       ?IR_GetCurrentTime@@YAIXZ  004091c0 f   UiImage.obj
 0001:000081ca       ?IR_UpdateTime@@YAXXZ      004091ca f   UiImage.obj
 0001:000081ec       ?IR_InitUiImageRef@@YAXAAUKUiImageRef@@@Z 004091ec f   UiImage.obj
 0001:00008212       ?IR_InitUiImagePartRef@@YAXAAUKUiImagePartRef@@@Z 00409212 f   UiImage.obj
 0001:00008238       ?IR_IsTimePassed@@YAHIAAI@Z 00409238 f   UiImage.obj
 0001:00008263       ?IR_GetRemainTime@@YAIII@Z 00409263 f   UiImage.obj
 0001:0000828f       ?IR_NextFrame@@YAHAAUKUiImageRef@@@Z 0040928f f   UiImage.obj
 0001:000083e3       ?IR_UpdateImagePart@@YAXAAUKUiImagePartRef@@HH@Z 004093e3 f   UiImage.obj
 0001:000086f0       ?IR_DrawImage@@YAXPAUKUiImageRef@@@Z 004096f0 f   UiImage.obj
 0001:0000872b       ?IR_DrawImagePart@@YAXPAUKUiImagePartRef@@@Z 0040972b f   UiImage.obj
 0001:00008766       ?IR_GetSpritePixcelAlpha@@YAHAAUKUiImageRef@@HH@Z 00409766 f   UiImage.obj
 0001:000087bd       ?IR_GetReferenceSpot@@YAXAAUKUiImageRef@@AAH1@Z 004097bd f   UiImage.obj
 0001:00008849       ?IR_GetCurFrame@@YAHAAUKUiImageRef@@@Z 00409849 f   UiImage.obj
 0001:00008878       ?IR_GetNumFrames@@YAHAAUKUiImageRef@@@Z 00409878 f   UiImage.obj
 0001:00008960       ?SetAllButtonTipTextColor@KWndButton@@SAXI@Z 00409960 f   WndButton.obj
 0001:0000896d       ?EnableAllButtonTip@KWndButton@@SAXH@Z 0040996d f   WndButton.obj
 0001:00008980       ??0KWndButton@@QAE@XZ      00409980 f   WndButton.obj
 0001:00008a0f       ?Clone@KWndButton@@QAEXPAV1@@Z 00409a0f f   WndButton.obj
 0001:00008af1       ?Init@KWndButton@@UAEHPAVKIniFile@@PBD@Z 00409af1 f   WndButton.obj
 0001:00008e67       ?IsButtonChecked@KWndButton@@QAEHXZ 00409e67 f   WndButton.obj
 0001:00008e8c       ?CheckButton@KWndButton@@QAEXH@Z 00409e8c f   WndButton.obj
 0001:00008f07       ?IsButtonActive@KWndButton@@QAEHXZ 00409f07 f   WndButton.obj
 0001:00008f2c       ?WndProc@KWndButton@@UAEHIIH@Z 00409f2c f   WndButton.obj
 0001:0000930d       ?GetToolTipInfo@KWndButton@@UAEHPADH@Z 0040a30d f   WndButton.obj
 0001:00009406       ?SetToolTipInfo@KWndButton@@QAEHPADH@Z 0040a406 f   WndButton.obj
 0001:000094b8       ?PaintWindow@KWndButton@@UAEXXZ 0040a4b8 f   WndButton.obj
 0001:00009623       ?OnLBtnDown@KWndButton@@AAEX_N@Z 0040a623 f   WndButton.obj
 0001:00009823       ?OnLBtnUp@KWndButton@@AAEXXZ 0040a823 f   WndButton.obj
 0001:000098dd       ?OnLBtnDownMove@KWndButton@@AAEXXZ 0040a8dd f   WndButton.obj
 0001:00009943       ?Enable@KWndButton@@UAEXH@Z 0040a943 f   WndButton.obj
 0001:000099e0       ??0KWndImageTextButton@@QAE@XZ 0040a9e0 f   WndButton.obj
 0001:00009a7c       ?Init@KWndImageTextButton@@UAEHPAVKIniFile@@PBD@Z 0040aa7c f   WndButton.obj
 0001:00009c60       ?Set2IntText@KWndImageTextButton@@QAEXHHD@Z 0040ac60 f   WndButton.obj
 0001:00009c98       ?SetIntText@KWndImageTextButton@@QAEXHD@Z 0040ac98 f   WndButton.obj
 0001:00009ccc       ?SetWorldRankText@KWndImageTextButton@@QAEXHD@Z 0040accc f   WndButton.obj
 0001:00009d00       ?SetText@KWndImageTextButton@@QAEXPBDH@Z 0040ad00 f   WndButton.obj
 0001:00009d34       ?GetText@KWndImageTextButton@@QAEHPADH@Z 0040ad34 f   WndButton.obj
 0001:00009d68       ?Set2IntValue@KWndImageTextButton@@QAEXHH@Z 0040ad68 f   WndButton.obj
 0001:00009dc0       ?UpdateData@KWndWindow@@UAEXXZ 0040adc0 f i WndButton.obj
 0001:00009de0       ?CloseWindow@KWndWindow@@UAEH_N@Z 0040ade0 f i WndButton.obj
 0001:00009e00       ?Breathe@KWndWindow@@EAEXXZ 0040ae00 f i WndButton.obj
 0001:00009e20       ?GetShortKey@KWndButton@@UAEPBDXZ 0040ae20 f i WndButton.obj
 0001:00009e40       ?OnButtonClick@KWndButton@@UAEXXZ 0040ae40 f i WndButton.obj
 0001:00009e60       ??_GKWndButton@@UAEPAXI@Z  0040ae60 f i WndButton.obj
 0001:00009e60       ??_EKWndButton@@UAEPAXI@Z  0040ae60 f i WndButton.obj
 0001:00009ea0       ??1KWndButton@@UAE@XZ      0040aea0 f i WndButton.obj
 0001:00009ed0       ??1KWndImage@@UAE@XZ       0040aed0 f i WndButton.obj
 0001:00009f00       ?IsDisable@KWndWindow@@QAEHXZ 0040af00 f i WndButton.obj
 0001:00009f20       ??_EKWndImageTextButton@@UAEPAXI@Z 0040af20 f i WndButton.obj
 0001:00009f20       ??_GKWndImageTextButton@@UAEPAXI@Z 0040af20 f i WndButton.obj
 0001:00009f60       ??1KWndMovingImage@@UAE@XZ 0040af60 f i WndButton.obj
 0001:00009f90       ??1KWndImagePart@@UAE@XZ   0040af90 f i WndButton.obj
 0001:00009fc0       ??1KWndImageTextButton@@UAE@XZ 0040afc0 f i WndButton.obj
 0001:0000a050       ??1KWndText32@@UAE@XZ      0040b050 f i WndButton.obj
 0001:0000a080       ??1KWndText@@UAE@XZ        0040b080 f i WndButton.obj
 0001:0000a0b0       ??0KWndChessPanel@@AAE@XZ  0040b0b0 f   WndChessPanel.obj
 0001:0000a0e0       ??1KWndChessPanel@@EAE@XZ  0040b0e0 f   WndChessPanel.obj
 0001:0000a10d       ?OpenWindow@KWndChessPanel@@SAPAV1@_N@Z 0040b10d f   WndChessPanel.obj
 0001:0000a224       ?CloseWindow@KWndChessPanel@@SAX_N@Z 0040b224 f   WndChessPanel.obj
 0001:0000a27a       ?Clear@KWndChessPanel@@SAXXZ 0040b27a f   WndChessPanel.obj
 0001:0000a27f       ?GetIfVisible@KWndChessPanel@@SAPAV1@XZ 0040b27f f   WndChessPanel.obj
 0001:0000a2ac       ?PaintWindow@KWndChessPanel@@UAEXXZ 0040b2ac f   WndChessPanel.obj
 0001:0000a4c1       ?PtInWindow@KWndChessPanel@@UAEHHH@Z 0040b4c1 f   WndChessPanel.obj
 0001:0000a4ef       ?WndProc@KWndChessPanel@@UAEHIIH@Z 0040b4ef f   WndChessPanel.obj
 0001:0000a52a       ?Initialize@KWndChessPanel@@AAEXXZ 0040b52a f   WndChessPanel.obj
 0001:0000a53c       ?Init@KWndChessPanel@@UAEHPAVKIniFile@@PBD@Z 0040b53c f   WndChessPanel.obj
 0001:0000a570       ??_EKWndChessPanel@@EAEPAXI@Z 0040b570 f i WndChessPanel.obj
 0001:0000a570       ??_GKWndChessPanel@@EAEPAXI@Z 0040b570 f i WndChessPanel.obj
 0001:0000a623       ??0KWndEdit@@QAE@XZ        0040b623 f   WndEdit.obj
 0001:0000a6d4       ??1KWndEdit@@UAE@XZ        0040b6d4 f   WndEdit.obj
 0001:0000a701       ?Clone@KWndEdit@@QAEXPAV1@@Z 0040b701 f   WndEdit.obj
 0001:0000a799       ?Init@KWndEdit@@UAEHPAVKIniFile@@PBD@Z 0040b799 f   WndEdit.obj
 0001:0000ab18       ?Enable@KWndEdit@@UAEXH@Z  0040bb18 f   WndEdit.obj
 0001:0000ab7b       ?WndProc@KWndEdit@@UAEHIIH@Z 0040bb7b f   WndEdit.obj
 0001:0000aef3       ?SetColor@KWndEdit@@QAEXI@Z 0040bef3 f   WndEdit.obj
 0001:0000af13       ?InsertString@KWndEdit@@QAEHPBDH@Z 0040bf13 f   WndEdit.obj
 0001:0000b00f       ?Copy@KWndEdit@@AAEHXZ     0040c00f f   WndEdit.obj
 0001:0000b0f0       ?Paste@KWndEdit@@AAEHXZ    0040c0f0 f   WndEdit.obj
 0001:0000b193       ?OnKeyDown@KWndEdit@@IAEHHH@Z 0040c193 f   WndEdit.obj
 0001:0000b7db       ?InsertChar@KWndEdit@@QAEHH@Z 0040c7db f   WndEdit.obj
 0001:0000b90e       ?InsertChar@KWndEdit@@IAEHDD@Z 0040c90e f   WndEdit.obj
 0001:0000ba53       ?UpdateData@KWndEdit@@EAEXXZ 0040ca53 f   WndEdit.obj
 0001:0000baa7       ?FmtForShow@KWndEdit@@AAEXXZ 0040caa7 f   WndEdit.obj
 0001:0000bdfb       ?SplitStringLine@@YAHPADHH@Z 0040cdfb f   WndEdit.obj
 0001:0000bed8       ?PaintWindow@KWndEdit@@UAEXXZ 0040ced8 f   WndEdit.obj
 0001:0000c4b2       ?SetTextPtr@KWndEdit@@IAEXPADH@Z 0040d4b2 f   WndEdit.obj
 0001:0000c514       ?SetText@KWndEdit@@QAEXPBD@Z 0040d514 f   WndEdit.obj
 0001:0000c5d0       ?ClearText@KWndEdit@@QAEX_N@Z 0040d5d0 f   WndEdit.obj
 0001:0000c650       ?SetIntText@KWndEdit@@QAEXH@Z 0040d650 f   WndEdit.obj
 0001:0000c6aa       ?GetIntNumber@KWndEdit@@QAEHXZ 0040d6aa f   WndEdit.obj
 0001:0000c6ee       ?GetTextString@KWndEdit@@QAEPADXZ 0040d6ee f   WndEdit.obj
 0001:0000c713       ?GetText@KWndEdit@@QAEHPADH_N@Z 0040d713 f   WndEdit.obj
 0001:0000c80d       ?GetCaretPosition@KWndEdit@@QAEXPAH0@Z 0040d80d f   WndEdit.obj
 0001:0000c85c       ??0KWndEdit06@@QAE@XZ      0040d85c f   WndEdit.obj
 0001:0000c8e0       ??0KWndEdit32@@QAE@XZ      0040d8e0 f   WndEdit.obj
 0001:0000c964       ??0KWndEdit80@@QAE@XZ      0040d964 f   WndEdit.obj
 0001:0000c9e8       ??0KWndEdit128@@QAE@XZ     0040d9e8 f   WndEdit.obj
 0001:0000ca6f       ??0KWndEdit512@@QAE@XZ     0040da6f f   WndEdit.obj
 0001:0000cb00       ??_EKWndEdit@@UAEPAXI@Z    0040db00 f i WndEdit.obj
 0001:0000cb00       ??_GKWndEdit@@UAEPAXI@Z    0040db00 f i WndEdit.obj
 0001:0000cb40       ??_GKWndEdit06@@UAEPAXI@Z  0040db40 f i WndEdit.obj
 0001:0000cb40       ??_EKWndEdit06@@UAEPAXI@Z  0040db40 f i WndEdit.obj
 0001:0000cb80       ??1KWndEdit06@@UAE@XZ      0040db80 f i WndEdit.obj
 0001:0000cbb0       ??_GKWndEdit32@@UAEPAXI@Z  0040dbb0 f i WndEdit.obj
 0001:0000cbb0       ??_EKWndEdit32@@UAEPAXI@Z  0040dbb0 f i WndEdit.obj
 0001:0000cbf0       ??1KWndEdit32@@UAE@XZ      0040dbf0 f i WndEdit.obj
 0001:0000cc20       ??_EKWndEdit80@@UAEPAXI@Z  0040dc20 f i WndEdit.obj
 0001:0000cc20       ??_GKWndEdit80@@UAEPAXI@Z  0040dc20 f i WndEdit.obj
 0001:0000cc60       ??1KWndEdit80@@UAE@XZ      0040dc60 f i WndEdit.obj
 0001:0000cc90       ??_EKWndEdit128@@UAEPAXI@Z 0040dc90 f i WndEdit.obj
 0001:0000cc90       ??_GKWndEdit128@@UAEPAXI@Z 0040dc90 f i WndEdit.obj
 0001:0000ccd0       ??1KWndEdit128@@UAE@XZ     0040dcd0 f i WndEdit.obj
 0001:0000cd00       ??_GKWndEdit512@@UAEPAXI@Z 0040dd00 f i WndEdit.obj
 0001:0000cd00       ??_EKWndEdit512@@UAEPAXI@Z 0040dd00 f i WndEdit.obj
 0001:0000cd40       ??1KWndEdit512@@UAE@XZ     0040dd40 f i WndEdit.obj
 0001:0000cd70       ??0KWndImage@@QAE@XZ       0040dd70 f   WndImage.obj
 0001:0000cddc       ?Clone@KWndImage@@QAEXPAV1@@Z 0040dddc f   WndImage.obj
 0001:0000ce23       ?Init@KWndImage@@UAEHPAVKIniFile@@PBD@Z 0040de23 f   WndImage.obj
 0001:0000d04f       ?PtInWindow@KWndImage@@UAEHHH@Z 0040e04f f   WndImage.obj
 0001:0000d12a       ?SetFrame@KWndImage@@QAEXH@Z 0040e12a f   WndImage.obj
 0001:0000d14c       ?SetImage@KWndImage@@QAEXFPBD_N@Z 0040e14c f   WndImage.obj
 0001:0000d240       ?UpdateTimer@KWndImage@@QAEXXZ 0040e240 f   WndImage.obj
 0001:0000d26a       ?NextFrame@KWndImage@@QAEHXZ 0040e26a f   WndImage.obj
 0001:0000d295       ?PaintWindow@KWndImage@@UAEXXZ 0040e295 f   WndImage.obj
 0001:0000d303       ?GetCurFrame@KWndImage@@QAEHXZ 0040e303 f   WndImage.obj
 0001:0000d32e       ?GetNumFrames@KWndImage@@QAEHXZ 0040e32e f   WndImage.obj
 0001:0000d359       ?GetMaxFrame@KCanGetNumImage@@QAEHXZ 0040e359 f   WndImage.obj
 0001:0000d384       ?GetCurrentFrame@KCanGetNumImage@@QAEHXZ 0040e384 f   WndImage.obj
 0001:0000d3a0       ??_GKWndImage@@UAEPAXI@Z   0040e3a0 f i WndImage.obj
 0001:0000d3a0       ??_EKWndImage@@UAEPAXI@Z   0040e3a0 f i WndImage.obj
 0001:0000d3e0       ??0KWndImage2@@QAE@XZ      0040e3e0 f   WndImage2.obj
 0001:0000d478       ?Clone@KWndImage2@@QAEXPAV1@@Z 0040e478 f   WndImage2.obj
 0001:0000d50c       ?Init@KWndImage2@@UAEHPAVKIniFile@@PBD@Z 0040e50c f   WndImage2.obj
 0001:0000d750       ?WndProc@KWndImage2@@UAEHIIH@Z 0040e750 f   WndImage2.obj
 0001:0000d858       ?PtInWindow@KWndImage2@@UAEHHH@Z 0040e858 f   WndImage2.obj
 0001:0000d938       ?SetFrame@KWndImage2@@QAEXH@Z 0040e938 f   WndImage2.obj
 0001:0000d95a       ?SetImage@KWndImage2@@QAEXFPBD_N@Z 0040e95a f   WndImage2.obj
 0001:0000da56       ?UpdateTimer@KWndImage2@@QAEXXZ 0040ea56 f   WndImage2.obj
 0001:0000da80       ?NextFrame@KWndImage2@@QAEHXZ 0040ea80 f   WndImage2.obj
 0001:0000daad       ?PaintWindow@KWndImage2@@UAEXXZ 0040eaad f   WndImage2.obj
 0001:0000db23       ?GetCurFrame@KWndImage2@@QAEHXZ 0040eb23 f   WndImage2.obj
 0001:0000db50       ?GetNumFrames@KWndImage2@@QAEHXZ 0040eb50 f   WndImage2.obj
 0001:0000db7d       ?SetToolTipInfo@KWndImage2@@QAEHPADH@Z 0040eb7d f   WndImage2.obj
 0001:0000dc2a       ?SetData@KWndImage2@@QAEXHH@Z 0040ec2a f   WndImage2.obj
 0001:0000dc50       ??_EKWndImage2@@UAEPAXI@Z  0040ec50 f i WndImage2.obj
 0001:0000dc50       ??_GKWndImage2@@UAEPAXI@Z  0040ec50 f i WndImage2.obj
 0001:0000dc90       ??1KWndImage2@@UAE@XZ      0040ec90 f i WndImage2.obj
 0001:0000dcc0       ??0KWndImagePart@@QAE@XZ   0040ecc0 f   WndImagePart.obj
 0001:0000dd2c       ?Clone@KWndImagePart@@IAEXPAV1@@Z 0040ed2c f   WndImagePart.obj
 0001:0000dd7f       ?Init@KWndImagePart@@UAEHPAVKIniFile@@PBD@Z 0040ed7f f   WndImagePart.obj
 0001:0000dea3       ?PaintWindow@KWndImagePart@@UAEXXZ 0040eea3 f   WndImagePart.obj
 0001:0000dfb8       ?SetPart@KWndImagePart@@QAEXHH@Z 0040efb8 f   WndImagePart.obj
 0001:0000e000       ??_GKWndImagePart@@UAEPAXI@Z 0040f000 f i WndImagePart.obj
 0001:0000e000       ??_EKWndImagePart@@UAEPAXI@Z 0040f000 f i WndImagePart.obj
 0001:0000e040       ??0KWndLabeledButton@@QAE@XZ 0040f040 f   WndLabeledButton.obj
 0001:0000e0b8       ?Clone@KWndLabeledButton@@QAEXPAV1@@Z 0040f0b8 f   WndLabeledButton.obj
 0001:0000e1ce       ?Init@KWndLabeledButton@@UAEHPAVKIniFile@@PBD@Z 0040f1ce f   WndLabeledButton.obj
 0001:0000e527       ?SetLabel@KWndLabeledButton@@QAEXPBD@Z 0040f527 f   WndLabeledButton.obj
 0001:0000e5ad       ?GetLabel@KWndLabeledButton@@QAEHPADH@Z 0040f5ad f   WndLabeledButton.obj
 0001:0000e630       ?SetLabelColor@KWndLabeledButton@@QAEXI@Z 0040f630 f   WndLabeledButton.obj
 0001:0000e650       ?PaintWindow@KWndLabeledButton@@UAEXXZ 0040f650 f   WndLabeledButton.obj
 0001:0000e7f6       ?Init@KWndRichLabeledButton@@UAEHPAVKIniFile@@PBD@Z 0040f7f6 f   WndLabeledButton.obj
 0001:0000e8ba       ?SetLabel@KWndRichLabeledButton@@QAEXPBDH@Z 0040f8ba f   WndLabeledButton.obj
 0001:0000e8ee       ?SetMoneyLabel@KWndRichLabeledButton@@QAEXK@Z 0040f8ee f   WndLabeledButton.obj
 0001:0000e9cd       ?SetLabelColor@KWndRichLabeledButton@@QAEXI@Z 0040f9cd f   WndLabeledButton.obj
 0001:0000e9fd       ?GetLabel@KWndRichLabeledButton@@QAEHPAD@Z 0040f9fd f   WndLabeledButton.obj
 0001:0000ea4b       ?PaintWindow@KWndRichLabeledButton@@UAEXXZ 0040fa4b f   WndLabeledButton.obj
 0001:0000eab0       ??_EKWndLabeledButton@@UAEPAXI@Z 0040fab0 f i WndLabeledButton.obj
 0001:0000eab0       ??_GKWndLabeledButton@@UAEPAXI@Z 0040fab0 f i WndLabeledButton.obj
 0001:0000eaf0       ??1KWndLabeledButton@@UAE@XZ 0040faf0 f i WndLabeledButton.obj
 0001:0000eb20       ??0KWndList@@QAE@XZ        0040fb20 f   WndList.obj
 0001:0000ec59       ?Clone@KWndList@@IAEXPAV1@@Z 0040fc59 f   WndList.obj
 0001:0000edcf       ??1KWndList@@UAE@XZ        0040fdcf f   WndList.obj
 0001:0000ee33       ?SetScrollbar@KWndList@@QAEXPAVKWndScrollBar@@@Z 0040fe33 f   WndList.obj
 0001:0000eeea       ?Init@KWndList@@UAEHPAVKIniFile@@PBD@Z 0040feea f   WndList.obj
 0001:0000f2d9       ?EnableMultiSel@KWndList@@QAEXH@Z 004102d9 f   WndList.obj
 0001:0000f446       ?SetCustomColorOffset@KWndList@@QAEXH@Z 00410446 f   WndList.obj
 0001:0000f475       ?WndProc@KWndList@@UAEHIIH@Z 00410475 f   WndList.obj
 0001:0000f610       ?GetIemIndexAtPoint@KWndList@@AAEHHH@Z 00410610 f   WndList.obj
 0001:0000f6f9       ?OnLButtonDown@KWndList@@AAEXHH@Z 004106f9 f   WndList.obj
 0001:0000f83d       ?IsItemSel@KWndList@@QAEHH@Z 0041083d f   WndList.obj
 0001:0000f8c2       ?OnRButtonDown@KWndList@@AAEXHH@Z 004108c2 f   WndList.obj
 0001:0000f934       ?OnLButtonDClick@KWndList@@AAEXHH@Z 00410934 f   WndList.obj
 0001:0000f9a6       ?SetCurSel@KWndList@@QAEHH@Z 004109a6 f   WndList.obj
 0001:0000fad3       ?UpdateData@KWndList@@EAEXXZ 00410ad3 f   WndList.obj
 0001:0000fb7f       ?OnMouseMove@KWndList@@AAEXHH@Z 00410b7f f   WndList.obj
 0001:0000fc02       ?PaintWindow@KWndList@@UAEXXZ 00410c02 f   WndList.obj
 0001:00010444       ?SetContent@KWndList@@QAEXPAEHHH@Z 00411444 f   WndList.obj
 0001:000105e8       ?FindString@KWndList@@QAEHHPBD@Z 004115e8 f   WndList.obj
 0001:00010674       ?GetItemDataInt@KWndList@@QAEHHH@Z 00411674 f   WndList.obj
 0001:000106c7       ?GetString@KWndList@@QAEXHPAD@Z 004116c7 f   WndList.obj
 0001:00010729       ?GetStrignLen@KWndList@@QAEHH@Z 00411729 f   WndList.obj
 0001:0001077d       ?SetTopItemIndex@KWndList@@QAEXH@Z 0041177d f   WndList.obj
 0001:000107ab       ?GetVisibleItemCount@KWndList@@QBEHXZ 004117ab f   WndList.obj
 0001:000107e6       ?SetImage@KWndList@@QAEXPBDFF@Z 004117e6 f   WndList.obj
 0001:00010850       ??_GKWndList@@UAEPAXI@Z    00411850 f i WndList.obj
 0001:00010850       ??_EKWndList@@UAEPAXI@Z    00411850 f i WndList.obj
 0001:00010890       ?GetStyle@KWndWindow@@QAEHXZ 00411890 f i WndList.obj
 0001:000108b0       ?SetStyle@KWndWindow@@QAEHI@Z 004118b0 f i WndList.obj
 0001:000108e0       ?GetScrollPos@KWndScrollBar@@QAEHXZ 004118e0 f i WndList.obj
 0001:00010900       ??0KWndList2@@QAE@XZ       00411900 f   WndList2.obj
 0001:000109ef       ??1KWndList2@@UAE@XZ       004119ef f   WndList2.obj
 0001:00010a51       ?Clone@KWndList2@@IAEXPAV1@@Z 00411a51 f   WndList2.obj
 0001:00010b0b       ?Init@KWndList2@@UAEHPAVKIniFile@@PBD@Z 00411b0b f   WndList2.obj
 0001:00010ebd       ?SetScrollbar@KWndList2@@QAEXPAVKWndScrollBar@@@Z 00411ebd f   WndList2.obj
 0001:00010f8c       ?WndProc@KWndList2@@UAEHIIH@Z 00411f8c f   WndList2.obj
 0001:000110b0       ?SetCurSel@KWndList2@@QAEHH@Z 004120b0 f   WndList2.obj
 0001:0001119a       ?IsItemSel@KWndList2@@QAEHH@Z 0041219a f   WndList2.obj
 0001:000111bc       ?OnLButtonDown@KWndList2@@AAEXHH@Z 004121bc f   WndList2.obj
 0001:00011263       ?OnMouseMove@KWndList2@@AAEXHH@Z 00412263 f   WndList2.obj
 0001:00011315       ?AddString@KWndList2@@QAEHHPBD00_N@Z 00412315 f   WndList2.obj
 0001:00011624       ?DeleteString@KWndList2@@QAEHH@Z 00412624 f   WndList2.obj
 0001:00011823       ?ResetContent@KWndList2@@QAEXXZ 00412823 f   WndList2.obj
 0001:000119a0       ?PaintWindow@KWndList2@@UAEXXZ 004129a0 f   WndList2.obj
 0001:00011e0e       ?FindString@KWndList2@@QAEHHPBD@Z 00412e0e f   WndList2.obj
 0001:00011ebd       ?SetItemData@KWndList2@@QAEHHH@Z 00412ebd f   WndList2.obj
 0001:00011efb       ?GetItemData@KWndList2@@QAEHH@Z 00412efb f   WndList2.obj
 0001:00011f34       ?GetString@KWndList2@@QAEHHPADI@Z 00412f34 f   WndList2.obj
 0001:00011fbe       ?SetTopItemIndex@KWndList2@@QAEXH@Z 00412fbe f   WndList2.obj
 0001:00011fec       ?GetVisibleLineCount@KWndList2@@QBEHXZ 00412fec f   WndList2.obj
 0001:00012020       ??_EKWndList2@@UAEPAXI@Z   00413020 f i WndList2.obj
 0001:00012020       ??_GKWndList2@@UAEPAXI@Z   00413020 f i WndList2.obj
 0001:00012060       ?GetCount@KWndList2@@QAEHXZ 00413060 f i WndList2.obj
 0001:00012080       ??0KWndListFilterItem@@QAE@XZ 00413080 f   WndListFilterItem.obj
 0001:00012127       ??1KWndListFilterItem@@UAE@XZ 00413127 f   WndListFilterItem.obj
 0001:00012189       ?Clone@KWndListFilterItem@@IAEXPAV1@@Z 00413189 f   WndListFilterItem.obj
 0001:00012209       ?Init@KWndListFilterItem@@UAEHPAVKIniFile@@PBD@Z 00413209 f   WndListFilterItem.obj
 0001:0001243b       ?SetScrollbar@KWndListFilterItem@@QAEXPAVKWndScrollBar@@@Z 0041343b f   WndListFilterItem.obj
 0001:0001250a       ?WndProc@KWndListFilterItem@@UAEHIIH@Z 0041350a f   WndListFilterItem.obj
 0001:0001262e       ?SetCurSel@KWndListFilterItem@@QAEHH@Z 0041362e f   WndListFilterItem.obj
 0001:00012718       ?OnLButtonDown@KWndListFilterItem@@AAEXHH@Z 00413718 f   WndListFilterItem.obj
 0001:000127bf       ?OnMouseMove@KWndListFilterItem@@AAEXHH@Z 004137bf f   WndListFilterItem.obj
 0001:00012871       ?AddString@KWndListFilterItem@@QAEHHPBDHHH@Z 00413871 f   WndListFilterItem.obj
 0001:00012b30       ?DeleteString@KWndListFilterItem@@QAEHH@Z 00413b30 f   WndListFilterItem.obj
 0001:00012d2f       ?ResetContent@KWndListFilterItem@@QAEXXZ 00413d2f f   WndListFilterItem.obj
 0001:00012eac       ?PaintWindow@KWndListFilterItem@@UAEXXZ 00413eac f   WndListFilterItem.obj
 0001:00013133       ?FindOptionIndex@KWndListFilterItem@@QAEHH@Z 00414133 f   WndListFilterItem.obj
 0001:00013197       ?SetItemValue@KWndListFilterItem@@QAEHHH@Z 00414197 f   WndListFilterItem.obj
 0001:000131d5       ?GetItemValue@KWndListFilterItem@@QAEHH@Z 004141d5 f   WndListFilterItem.obj
 0001:0001320e       ?GetItemOption@KWndListFilterItem@@QAEHH@Z 0041420e f   WndListFilterItem.obj
 0001:00013246       ?GetString@KWndListFilterItem@@QAEHHPADI@Z 00414246 f   WndListFilterItem.obj
 0001:000132e8       ?SetTopItemIndex@KWndListFilterItem@@QAEXH@Z 004142e8 f   WndListFilterItem.obj
 0001:00013316       ?GetVisibleLineCount@KWndListFilterItem@@QBEHXZ 00414316 f   WndListFilterItem.obj
 0001:00013340       ??_EKWndListFilterItem@@UAEPAXI@Z 00414340 f i WndListFilterItem.obj
 0001:00013340       ??_GKWndListFilterItem@@UAEPAXI@Z 00414340 f i WndListFilterItem.obj
 0001:00013380       ?GetCount@KWndListFilterItem@@QAEHXZ 00414380 f i WndListFilterItem.obj
 0001:000133a0       ??0KWndListPoint@@QAE@XZ   004143a0 f   WndListPoint.obj
 0001:00013447       ??1KWndListPoint@@UAE@XZ   00414447 f   WndListPoint.obj
 0001:000134a9       ?Clone@KWndListPoint@@IAEXPAV1@@Z 004144a9 f   WndListPoint.obj
 0001:00013529       ?Init@KWndListPoint@@UAEHPAVKIniFile@@PBD@Z 00414529 f   WndListPoint.obj
 0001:0001375b       ?SetScrollbar@KWndListPoint@@QAEXPAVKWndScrollBar@@@Z 0041475b f   WndListPoint.obj
 0001:0001382a       ?WndProc@KWndListPoint@@UAEHIIH@Z 0041482a f   WndListPoint.obj
 0001:0001394e       ?SetCurSel@KWndListPoint@@QAEHH@Z 0041494e f   WndListPoint.obj
 0001:00013a38       ?OnLButtonDown@KWndListPoint@@AAEXHH@Z 00414a38 f   WndListPoint.obj
 0001:00013adf       ?OnMouseMove@KWndListPoint@@AAEXHH@Z 00414adf f   WndListPoint.obj
 0001:00013b91       ?AddValue@KWndListPoint@@QAEHHHHH@Z 00414b91 f   WndListPoint.obj
 0001:00013e00       ?DeleteString@KWndListPoint@@QAEHH@Z 00414e00 f   WndListPoint.obj
 0001:00013fff       ?ResetContent@KWndListPoint@@QAEXXZ 00414fff f   WndListPoint.obj
 0001:0001417c       ?PaintWindow@KWndListPoint@@UAEXXZ 0041517c f   WndListPoint.obj
 0001:00014306       ?FindString@KWndListPoint@@QAEHHPBD@Z 00415306 f   WndListPoint.obj
 0001:0001431d       ?SetItemValue1@KWndListPoint@@QAEHHH@Z 0041531d f   WndListPoint.obj
 0001:0001435b       ?GetItemValue1@KWndListPoint@@QAEHH@Z 0041535b f   WndListPoint.obj
 0001:00014394       ?SetItemValue2@KWndListPoint@@QAEHHH@Z 00415394 f   WndListPoint.obj
 0001:000143d2       ?GetItemValue2@KWndListPoint@@QAEHH@Z 004153d2 f   WndListPoint.obj
 0001:0001440b       ?GetString@KWndListPoint@@QAEHHPAD0I@Z 0041540b f   WndListPoint.obj
 0001:00014422       ?SetTopItemIndex@KWndListPoint@@QAEXH@Z 00415422 f   WndListPoint.obj
 0001:00014450       ?GetVisibleLineCount@KWndListPoint@@QBEHXZ 00415450 f   WndListPoint.obj
 0001:00014480       ??_EKWndListPoint@@UAEPAXI@Z 00415480 f i WndListPoint.obj
 0001:00014480       ??_GKWndListPoint@@UAEPAXI@Z 00415480 f i WndListPoint.obj
 0001:000144c0       ?GetCount@KWndListPoint@@QAEHXZ 004154c0 f i WndListPoint.obj
 0001:000144e0       ??0KWndMessageListBox@@QAE@XZ 004154e0 f   WndMessageListBox.obj
 0001:000145cc       ??1KWndMessageListBox@@UAE@XZ 004155cc f   WndMessageListBox.obj
 0001:00014630       ?SetCapability@KWndMessageListBox@@QAEHH@Z 00415630 f   WndMessageListBox.obj
 0001:0001481e       ?SetScrollbar@KWndMessageListBox@@QAEXPAVKWndScrollBar@@@Z 0041581e f   WndMessageListBox.obj
 0001:00014861       ?AddOneMessage@KWndMessageListBox@@QAEHPBDH00HHHI@Z 00415861 f   WndMessageListBox.obj
 0001:00014b93       ?RemoveAMessage@KWndMessageListBox@@QAEXH@Z 00415b93 f   WndMessageListBox.obj
 0001:00014d33       ?Clear@KWndMessageListBox@@QAEXXZ 00415d33 f   WndMessageListBox.obj
 0001:00014dbe       ?Clone@KWndMessageListBox@@QAEXPAV1@@Z 00415dbe f   WndMessageListBox.obj
 0001:00014eb5       ?Init@KWndMessageListBox@@UAEHPAVKIniFile@@PBD@Z 00415eb5 f   WndMessageListBox.obj
 0001:000153da       ?SetSize@KWndMessageListBox@@UAEXHH@Z 004163da f   WndMessageListBox.obj
 0001:000155f1       ?SetFontSize@KWndMessageListBox@@QAEXH@Z 004165f1 f   WndMessageListBox.obj
 0001:00015657       ?UpdateData@KWndMessageListBox@@EAEXXZ 00416657 f   WndMessageListBox.obj
 0001:00015751       ?GetFirstShowLine@KWndMessageListBox@@QAEHXZ 00416751 f   WndMessageListBox.obj
 0001:000157b9       ?SetFirstShowLine@KWndMessageListBox@@QAEXH@Z 004167b9 f   WndMessageListBox.obj
 0001:00015952       ?GetItemLineCount@KWndMessageListBox@@QAEHH@Z 00416952 f   WndMessageListBox.obj
 0001:000159c8       ?PaintWindow@KWndMessageListBox@@EAEXXZ 004169c8 f   WndMessageListBox.obj
 0001:00015f24       ?WndProc@KWndMessageListBox@@EAEHIIH@Z 00416f24 f   WndMessageListBox.obj
 0001:000160b7       ?GetMsgAtPoint@KWndMessageListBox@@AAEHHH@Z 004170b7 f   WndMessageListBox.obj
 0001:000161bf       ?HitTextAtPoint@KWndMessageListBox@@QAEHHH@Z 004171bf f   WndMessageListBox.obj
 0001:000162fa       ?OnLButtonDown@KWndMessageListBox@@AAEXHH@Z 004172fa f   WndMessageListBox.obj
 0001:0001637e       ?OnLButtonDClick@KWndMessageListBox@@AAEXHH@Z 0041737e f   WndMessageListBox.obj
 0001:000163f0       ?SetCurSel@KWndMessageListBox@@QAEHH@Z 004173f0 f   WndMessageListBox.obj
 0001:00016471       ?OnMouseMove@KWndMessageListBox@@AAEXHH@Z 00417471 f   WndMessageListBox.obj
 0001:000164fd       ?GetOneMessage@KWndMessageListBox@@QAEHHPADH_N@Z 004174fd f   WndMessageListBox.obj
 0001:000165ce       ?SplitData@KWndMessageListBox@@QAEIXZ 004175ce f   WndMessageListBox.obj
 0001:0001672c       ?BindData@KWndMessageListBox@@QAEII@Z 0041772c f   WndMessageListBox.obj
 0001:0001691b       ?FreeData@KWndMessageListBox@@SAXI@Z 0041791b f   WndMessageListBox.obj
 0001:00016965       ?GetOffsetTextHeight@KWndMessageListBox@@AAEIXZ 00417965 f   WndMessageListBox.obj
 0001:000169b1       ?PtInWindow@KWndMessageListBox@@UAEHHH@Z 004179b1 f   WndMessageListBox.obj
 0001:00016a0a       ?ClearHideLine@KWndMessageListBox@@QAEXXZ 00417a0a f   WndMessageListBox.obj
 0001:00016a26       ?HideNextLine@KWndMessageListBox@@QAEXXZ 00417a26 f   WndMessageListBox.obj
 0001:00016b2c       ?HideAllLine@KWndMessageListBox@@QAEXXZ 00417b2c f   WndMessageListBox.obj
 0001:00016b4a       ?GetMinHeight@KWndMessageListBox@@QAEHXZ 00417b4a f   WndMessageListBox.obj
 0001:00016b8a       ?UpdateChatItem@KWndMessageListBox@@QAEXXZ 00417b8a f   WndMessageListBox.obj
 0001:00016c1e       ??0KScrollMessageListBox@@QAE@XZ 00417c1e f   WndMessageListBox.obj
 0001:00016cf0       ?Init@KScrollMessageListBox@@UAEHPAVKIniFile@@PBD@Z 00417cf0 f   WndMessageListBox.obj
 0001:00016ed4       ?WndProc@KScrollMessageListBox@@UAEHIIH@Z 00417ed4 f   WndMessageListBox.obj
 0001:000170c2       ?InitMinMaxLineCount@KScrollMessageListBox@@IAEXHH@Z 004180c2 f   WndMessageListBox.obj
 0001:00017130       ?HeightToLineHeight@KScrollMessageListBox@@QAEHH@Z 00418130 f   WndMessageListBox.obj
 0001:0001716b       ?WidthToCharWidth@KScrollMessageListBox@@QAEHH@Z 0041816b f   WndMessageListBox.obj
 0001:000171a6       ?GetMinHeight@KScrollMessageListBox@@QAEHXZ 004181a6 f   WndMessageListBox.obj
 0001:00017210       ?MsgListBox_LoadContent@@YA_NPAVKWndMessageListBox@@PAVKIniFile@@PBD@Z 00418210 f   WndMessageListBox.obj
 0001:00017390       ??_GKWndMessageListBox@@UAEPAXI@Z 00418390 f i WndMessageListBox.obj
 0001:00017390       ??_EKWndMessageListBox@@UAEPAXI@Z 00418390 f i WndMessageListBox.obj
 0001:000173d0       ??1KWndScrollBar@@UAE@XZ   004183d0 f i WndMessageListBox.obj
 0001:00017430       ??_GKScrollMessageListBox@@UAEPAXI@Z 00418430 f i WndMessageListBox.obj
 0001:00017430       ??_EKScrollMessageListBox@@UAEPAXI@Z 00418430 f i WndMessageListBox.obj
 0001:00017470       ??1KScrollMessageListBox@@UAE@XZ 00418470 f i WndMessageListBox.obj
 0001:000174e0       ?GetMaxShowLine@KWndMessageListBox@@QAEHXZ 004184e0 f i WndMessageListBox.obj
 0001:00017500       ??0KWndMovingImage@@QAE@XZ 00418500 f   WndMovingImage.obj
 0001:00017564       ?Clone@KWndMovingImage@@IAEXPAV1@@Z 00418564 f   WndMovingImage.obj
 0001:000175ec       ?Init@KWndMovingImage@@UAEHPAVKIniFile@@PBD@Z 004185ec f   WndMovingImage.obj
 0001:000176ef       ?SetMoveValue@KWndMovingImage@@QAEXHH@Z 004186ef f   WndMovingImage.obj
 0001:000177e0       ??_GKWndMovingImage@@UAEPAXI@Z 004187e0 f i WndMovingImage.obj
 0001:000177e0       ??_EKWndMovingImage@@UAEPAXI@Z 004187e0 f i WndMovingImage.obj
 0001:00017820       ?WndObjContainerInit@@YAXPAVKIniFile@@@Z 00418820 f   WndObjContainer.obj
 0001:00017a24       ??0KWndObjectBox@@QAE@XZ   00418a24 f   WndObjContainer.obj
 0001:00017ac4       ?SetContainerId@KWndObjectBox@@QAEXH@Z 00418ac4 f   WndObjContainer.obj
 0001:00017ae1       ?SetObjectGenre@KWndObjectBox@@QAEXI@Z 00418ae1 f   WndObjContainer.obj
 0001:00017afe       ?Clear@KWndObjectBox@@QAEXXZ 00418afe f   WndObjContainer.obj
 0001:00017b1a       ?GetObjectA@KWndObjectBox@@QBEHAAUKUiDraggedObject@@@Z 00418b1a f   WndObjContainer.obj
 0001:00017b5e       ?HoldObject@KWndObjectBox@@QAEXIIHH@Z 00418b5e f   WndObjContainer.obj
 0001:00017c14       ?PaintWindow@KWndObjectBox@@MAEXXZ 00418c14 f   WndObjContainer.obj
 0001:00017fb3       ?Clone@KWndObjectBox@@QAEXPAV1@@Z 00418fb3 f   WndObjContainer.obj
 0001:00017fef       ?Init@KWndObjectBox@@UAEHPAVKIniFile@@PBD@Z 00418fef f   WndObjContainer.obj
 0001:000180c7       ?EnablePickPut@KWndObjectBox@@QAEX_N@Z 004190c7 f   WndObjContainer.obj
 0001:00018107       ?WndProc@KWndObjectBox@@MAEHIIH@Z 00419107 f   WndObjContainer.obj
 0001:000185f6       ?DropObject@KWndObjectBox@@IAEH_N@Z 004195f6 f   WndObjContainer.obj
 0001:00018715       ??0KWndObjectMatrix@@QAE@XZ 00419715 f   WndObjContainer.obj
 0001:000187c8       ?SetContainerId@KWndObjectMatrix@@QAEXH@Z 004197c8 f   WndObjContainer.obj
 0001:000187e8       ??1KWndObjectMatrix@@UAE@XZ 004197e8 f   WndObjContainer.obj
 0001:0001884a       ?Clone@KWndObjectMatrix@@IAEXPAV1@@Z 0041984a f   WndObjContainer.obj
 0001:000188aa       ?Init@KWndObjectMatrix@@UAEHPAVKIniFile@@PBD@Z 004198aa f   WndObjContainer.obj
 0001:00018ab7       ?PaintWindow@KWndObjectMatrix@@EAEXXZ 00419ab7 f   WndObjContainer.obj
 0001:00019024       ?AddObject@KWndObjectMatrix@@QAEHPAUKUiDraggedObject@@H@Z 0041a024 f   WndObjContainer.obj
 0001:0001919d       ?RemoveObject@KWndObjectMatrix@@QAEHPAUKUiDraggedObject@@@Z 0041a19d f   WndObjContainer.obj
 0001:000192ba       ?GetObjectA@KWndObjectMatrix@@QBEHAAUKUiDraggedObject@@HH@Z 0041a2ba f   WndObjContainer.obj
 0001:0001933e       ?Clear@KWndObjectMatrix@@QAEXXZ 0041a33e f   WndObjContainer.obj
 0001:0001939c       ?WndProc@KWndObjectMatrix@@EAEHIIH@Z 0041a39c f   WndObjContainer.obj
 0001:0001997d       ?GetObjectAt@KWndObjectMatrix@@AAEHHH@Z 0041a97d f   WndObjContainer.obj
 0001:00019a3b       ?PickUpObjectAt@KWndObjectMatrix@@AAEHHH@Z 0041aa3b f   WndObjContainer.obj
 0001:00019add       ?DropObject@KWndObjectMatrix@@AAEHHH_N@Z 0041aadd f   WndObjContainer.obj
 0001:00019daf       ?TryDropObjAtPos@KWndObjectMatrix@@AAEHABUtagRECT@@AAPAUKUiDraggedObject@@@Z 0041adaf f   WndObjContainer.obj
 0001:00019e7a       ?DropObject@KWndObjectMatrix@@AAEXHHPAUKUiDraggedObject@@@Z 0041ae7a f   WndObjContainer.obj
 0001:00019f2d       ?EnableTracePutPos@KWndObjectMatrix@@QAEX_N@Z 0041af2d f   WndObjContainer.obj
 0001:00019f6d       ?EnablePickPut@KWndObjectMatrix@@QAEX_N@Z 0041af6d f   WndObjContainer.obj
 0001:00019fb0       ??_GKWndObjectBox@@UAEPAXI@Z 0041afb0 f i WndObjContainer.obj
 0001:00019fb0       ??_EKWndObjectBox@@UAEPAXI@Z 0041afb0 f i WndObjContainer.obj
 0001:00019ff0       ??1KWndObjectBox@@UAE@XZ   0041aff0 f i WndObjContainer.obj
 0001:0001a020       ??_GKWndObjectMatrix@@UAEPAXI@Z 0041b020 f i WndObjContainer.obj
 0001:0001a020       ??_EKWndObjectMatrix@@UAEPAXI@Z 0041b020 f i WndObjContainer.obj
 0001:0001a060       ?WndProc@KWndPage@@UAEHIIH@Z 0041b060 f   WndPage.obj
 0001:0001a0e9       ??0KWndPageSet@@QAE@XZ     0041b0e9 f   WndPage.obj
 0001:0001a140       ??1KWndPageSet@@UAE@XZ     0041b140 f   WndPage.obj
 0001:0001a1b1       ?WndProc@KWndPageSet@@UAEHIIH@Z 0041b1b1 f   WndPage.obj
 0001:0001a1fc       ?AddPage@KWndPageSet@@QAE_NPAVKWndPage@@PAVKWndButton@@@Z 0041b1fc f   WndPage.obj
 0001:0001a32f       ?ActivePage@KWndPageSet@@QAE_NH@Z 0041b32f f   WndPage.obj
 0001:0001a485       ?OnPageBtnClick@KWndPageSet@@AAEXPAVKWndWindow@@@Z 0041b485 f   WndPage.obj
 0001:0001a556       ?GetActivePage@KWndPageSet@@QAEPAVKWndPage@@XZ 0041b556 f   WndPage.obj
 0001:0001a590       ??_EKWndPageSet@@UAEPAXI@Z 0041b590 f i WndPage.obj
 0001:0001a590       ??_GKWndPageSet@@UAEPAXI@Z 0041b590 f i WndPage.obj
 0001:0001a5d0       ??1KWndShowAnimate@@UAE@XZ 0041b5d0 f i WndPage.obj
 0001:0001a600       ??0KWndPureTextBtn@@QAE@XZ 0041b600 f   WndPureTextBtn.obj
 0001:0001a6bf       ?Clone@KWndPureTextBtn@@QAEXPAV1@@Z 0041b6bf f   WndPureTextBtn.obj
 0001:0001a771       ?Init@KWndPureTextBtn@@UAEHPAVKIniFile@@PBD@Z 0041b771 f   WndPureTextBtn.obj
 0001:0001a9da       ?AdjustPosition@KWndPureTextBtn@@AAEXXZ 0041b9da f   WndPureTextBtn.obj
 0001:0001aa70       ?PaintWindow@KWndPureTextBtn@@UAEXXZ 0041ba70 f   WndPureTextBtn.obj
 0001:0001abd8       ?SetText@KWndPureTextBtn@@QAEXPBDH@Z 0041bbd8 f   WndPureTextBtn.obj
 0001:0001ac64       ?SetColor@KWndPureTextBtn@@QAEXIIIIII@Z 0041bc64 f   WndPureTextBtn.obj
 0001:0001acc0       ?CheckButton@KWndPureTextBtn@@QAEXH@Z 0041bcc0 f   WndPureTextBtn.obj
 0001:0001acfa       ?WndProc@KWndPureTextBtn@@UAEHIIH@Z 0041bcfa f   WndPureTextBtn.obj
 0001:0001ae7b       ?GenChatItem@KWndPureTextBtn@@AAEXPAD@Z 0041be7b f   WndPureTextBtn.obj
 0001:0001b850       ??_GKWndPureTextBtn@@UAEPAXI@Z 0041c850 f i WndPureTextBtn.obj
 0001:0001b850       ??_EKWndPureTextBtn@@UAEPAXI@Z 0041c850 f i WndPureTextBtn.obj
 0001:0001b890       ??1KWndPureTextBtn@@UAE@XZ 0041c890 f i WndPureTextBtn.obj
 0001:0001b91b       ?Wnd_Cleanup@@YAXXZ        0041c91b f   Wnds.obj
 0001:0001b990       ?Wnd_RenderWindows@@YAXXZ  0041c990 f   Wnds.obj
 0001:0001ba99       ?Wnd_Heartbeat@@YAXXZ      0041ca99 f   Wnds.obj
 0001:0001bad7       ?Wnd_AddWindow@@YAXPAVKWndWindow@@W4WND_LAYER_LIST@@@Z 0041cad7 f   Wnds.obj
 0001:0001bb1d       ?Wnd_SetGameSpaceWnd@@YAXPAVKWndWindow@@@Z 0041cb1d f   Wnds.obj
 0001:0001bb2a       ?Wnd_GameSpaceHandleInput@@YAX_N@Z 0041cb2a f   Wnds.obj
 0001:0001bb41       ?Wnd_ShowHideGameSpace@@YAX_N@Z 0041cb41 f   Wnds.obj
 0001:0001bb4e       ?Wnd_OnWindowDelete@@YAXPAVKWndWindow@@@Z 0041cb4e f   Wnds.obj
 0001:0001bc4c       ?Wnd_DragBegin@@YAHPBUKUiDraggedObject@@P6AHHHABU1@H@Z@Z 0041cc4c f   Wnds.obj
 0001:0001bc97       ?Wnd_GetDragObj@@YAHPAUKUiDraggedObject@@@Z 0041cc97 f   Wnds.obj
 0001:0001bcdc       ?Wnd_DragFinished@@YAXXZ   0041ccdc f   Wnds.obj
 0001:0001bceb       ?Wnd_ProcessInput@@YAXIIH@Z 0041cceb f   Wnds.obj
 0001:0001c4f5       ?Wnd_TransmitInputToGameSpace@@YAXIIH@Z 0041d4f5 f   Wnds.obj
 0001:0001c626       ?Wnd_ShowCursor@@YAXH@Z    0041d626 f   Wnds.obj
 0001:0001c640       ?Wnd_SetCursorPos@@YAXHH@Z 0041d640 f   Wnds.obj
 0001:0001c6c9       ?Wnd_GetCursorPos@@YAXPAH0@Z 0041d6c9 f   Wnds.obj
 0001:0001c719       ?Wnd_GetFocusWnd@@YAPAVKWndWindow@@XZ 0041d719 f   Wnds.obj
 0001:0001c723       ?Wnd_SetFocusWnd@@YAXPAVKWndWindow@@@Z 0041d723 f   Wnds.obj
 0001:0001c79a       ?Wnd_SetCapture@@YAXPAVKWndWindow@@@Z 0041d79a f   Wnds.obj
 0001:0001c7be       ?Wnd_ReleaseCapture@@YAXXZ 0041d7be f   Wnds.obj
 0001:0001c801       ?Wnd_SetExclusive@@YAXPAVKWndWindow@@@Z 0041d801 f   Wnds.obj
 0001:0001c8e6       ?Wnd_ReleaseExclusive@@YAXPAVKWndWindow@@@Z 0041d8e6 f   Wnds.obj
 0001:0001c964       ?Wnd_LoadCursor@@YAXHPBD@Z 0041d964 f   Wnds.obj
 0001:0001c982       ?Wnd_SwitchCursor@@YAHH@Z  0041d982 f   Wnds.obj
 0001:0001c99c       ?Wnd_SetScreenSize@@YAXHH@Z 0041d99c f   Wnds.obj
 0001:0001c9b2       ?Wnd_GetScreenSize@@YAXAAH0@Z 0041d9b2 f   Wnds.obj
 0001:0001c9cc       ?Wnd_RestoreCursor@@YAXXZ  0041d9cc f   Wnds.obj
 0001:0001c9f0       ??0KWndStation@@QAE@XZ     0041d9f0 f i Wnds.obj
 0001:0001cb80       ??1KWndStation@@QAE@XZ     0041db80 f i Wnds.obj
 0001:0001cc00       ?GetNextWnd@KWndWindow@@QBEPAV1@XZ 0041dc00 f i Wnds.obj
 0001:0001cc20       ?GetParent@KWndWindow@@QBEPAV1@XZ 0041dc20 f i Wnds.obj
 0001:0001cc40       ?GetPreWnd@KWndWindow@@QBEPAV1@XZ 0041dc40 f i Wnds.obj
 0001:0001cc60       ??0KWndScrollBar@@QAE@XZ   0041dc60 f   WndScrollBar.obj
 0001:0001cd48       ?Clone@KWndScrollBar@@QAEXPAV1@@Z 0041dd48 f   WndScrollBar.obj
 0001:0001ce3c       ?Init@KWndScrollBar@@UAEHPAVKIniFile@@PBD@Z 0041de3c f   WndScrollBar.obj
 0001:0001d0f6       ?SetSize@KWndScrollBar@@UAEXHH@Z 0041e0f6 f   WndScrollBar.obj
 0001:0001d19e       ?WndProc@KWndScrollBar@@UAEHIIH@Z 0041e19e f   WndScrollBar.obj
 0001:0001d345       ?PaintWindow@KWndScrollBar@@UAEXXZ 0041e345 f   WndScrollBar.obj
 0001:0001d45d       ?SetValueRange@KWndScrollBar@@QAEXHH@Z 0041e45d f   WndScrollBar.obj
 0001:0001d4ad       ?SetScrollPos@KWndScrollBar@@QAEXH@Z 0041e4ad f   WndScrollBar.obj
 0001:0001d56b       ?SetSlideBtnPos@KWndScrollBar@@AAEXXZ 0041e56b f   WndScrollBar.obj
 0001:0001d69d       ?OnLButtonDown@KWndScrollBar@@AAEXHH@Z 0041e69d f   WndScrollBar.obj
 0001:0001d79c       ?ScrollLine@KWndScrollBar@@QAEH_N@Z 0041e79c f   WndScrollBar.obj
 0001:0001d7f7       ?ScrollPage@KWndScrollBar@@QAEH_N@Z 0041e7f7 f   WndScrollBar.obj
 0001:0001d871       ?OnSlideBtnPressed@KWndScrollBar@@AAEXXZ 0041e871 f   WndScrollBar.obj
 0001:0001d8ae       ?OnDraggingSlide@KWndScrollBar@@AAEXHH@Z 0041e8ae f   WndScrollBar.obj
 0001:0001d9a5       ?GetMinHeight@KWndScrollBar@@QAEHXZ 0041e9a5 f   WndScrollBar.obj
 0001:0001da35       ?SetParentWnd@KWndScrollBar@@QAEXPAVKWndWindow@@@Z 0041ea35 f   WndScrollBar.obj
 0001:0001da60       ??_EKWndScrollBar@@UAEPAXI@Z 0041ea60 f i WndScrollBar.obj
 0001:0001da60       ??_GKWndScrollBar@@UAEPAXI@Z 0041ea60 f i WndScrollBar.obj
 0001:0001daa0       ?Clone@KWndShadow@@QAEXPAV1@@Z 0041eaa0 f   WndShadow.obj
 0001:0001dadc       ?Init@KWndShadow@@UAEHPAVKIniFile@@PBD@Z 0041eadc f   WndShadow.obj
 0001:0001dbd1       ?PaintWindow@KWndShadow@@MAEXXZ 0041ebd1 f   WndShadow.obj
 0001:0001dc7e       ?PtInWindow@KWndShadow@@UAEHHH@Z 0041ec7e f   WndShadow.obj
 0001:0001dc94       ?SetColor@KWndShadow@@QAEXI@Z 0041ec94 f   WndShadow.obj
 0001:0001dcc0       ??0KWndShowAnimate@@QAE@XZ 0041ecc0 f   WndShowAnimate.obj
 0001:0001dd0a       ?Clone@KWndShowAnimate@@QAEXPAV1@@Z 0041ed0a f   WndShowAnimate.obj
 0001:0001dd76       ?Init@KWndShowAnimate@@UAEHPAVKIniFile@@PBD@Z 0041ed76 f   WndShowAnimate.obj
 0001:0001de6e       ?Show@KWndShowAnimate@@UAEXXZ 0041ee6e f   WndShowAnimate.obj
 0001:0001df5f       ?Hide@KWndShowAnimate@@UAEXXZ 0041ef5f f   WndShowAnimate.obj
 0001:0001e021       ?SetMoveSpeed@KWndShowAnimate@@SAXHH@Z 0041f021 f   WndShowAnimate.obj
 0001:0001e073       ?SetInterval@KWndShowAnimate@@SAXI@Z 0041f073 f   WndShowAnimate.obj
 0001:0001e092       ?ShowCompleted@KWndShowAnimate@@UAEXXZ 0041f092 f   WndShowAnimate.obj
 0001:0001e0a4       ?PaintWindow@KWndShowAnimate@@MAEXXZ 0041f0a4 f   WndShowAnimate.obj
 0001:0001e1e0       ??_GKWndShowAnimate@@UAEPAXI@Z 0041f1e0 f i WndShowAnimate.obj
 0001:0001e1e0       ??_EKWndShowAnimate@@UAEPAXI@Z 0041f1e0 f i WndShowAnimate.obj
 0001:0001e220       ??0KWndText@@QAE@XZ        0041f220 f   WndText.obj
 0001:0001e296       ?SetText@KWndText@@QAEXPBDH@Z 0041f296 f   WndText.obj
 0001:0001e3ca       ?GetText@KWndText@@QAEHPADH@Z 0041f3ca f   WndText.obj
 0001:0001e44c       ?SetTopLine@KWndText@@QAEHH@Z 0041f44c f   WndText.obj
 0001:0001e47c       ?SetTextPtr@KWndText@@IAEXPADH@Z 0041f47c f   WndText.obj
 0001:0001e4c0       ?Clone@KWndText@@QAEXPAV1@@Z 0041f4c0 f   WndText.obj
 0001:0001e514       ?Init@KWndText@@UAEHPAVKIniFile@@PBD@Z 0041f514 f   WndText.obj
 0001:0001e8aa       ?PaintWindow@KWndText@@UAEXXZ 0041f8aa f   WndText.obj
 0001:0001ea85       ?SetTextColor@KWndText@@QAEXI@Z 0041fa85 f   WndText.obj
 0001:0001eaa2       ?SetIntText@KWndText@@QAEXHD@Z 0041faa2 f   WndText.obj
 0001:0001eb40       ?Set2IntText@KWndText@@QAEXHHD@Z 0041fb40 f   WndText.obj
 0001:0001ebb2       ?SetCharText@KWndText@@QAEXDD@Z 0041fbb2 f   WndText.obj
 0001:0001ec52       ?SetByteText@KWndText@@QAEXED@Z 0041fc52 f   WndText.obj
 0001:0001ecfb       ?SetShortText@KWndText@@QAEXFD@Z 0041fcfb f   WndText.obj
 0001:0001ed9b       ?Set2ShortText@KWndText@@QAEXFFD@Z 0041fd9b f   WndText.obj
 0001:0001ee0f       ?SetMoneyText@KWndText@@QAEXHD@Z 0041fe0f f   WndText.obj
 0001:0001ef6a       ?SetJbCoinText@KWndText@@QAEXHD@Z 0041ff6a f   WndText.obj
 0001:0001f08f       ?SetWorldRankText@KWndText@@QAEXHD@Z 0042008f f   WndText.obj
 0001:0001f180       ?SetTransLifeText@KWndText@@QAEXDD@Z 00420180 f   WndText.obj
 0001:0001f248       ?Set2UIntText@KWndText@@QAEXIID@Z 00420248 f   WndText.obj
 0001:0001f2ba       ?SetStackText@KWndText@@QAEXHD@Z 004202ba f   WndText.obj
 0001:0001f35b       ?SetDefText@KWndText@@QAEXH_N@Z 0042035b f   WndText.obj
 0001:0001f44b       ?Set2IntTextPlus@KWndText@@QAEXHHD@Z 0042044b f   WndText.obj
 0001:0001f573       ?Set3IntText@KWndText@@QAEXHHHDD@Z 00420573 f   WndText.obj
 0001:0001f5ee       ??0KWndText32@@QAE@XZ      004205ee f   WndText.obj
 0001:0001f66d       ??0KWndText80@@QAE@XZ      0042066d f   WndText.obj
 0001:0001f6ec       ??0KWndText128@@QAE@XZ     004206ec f   WndText.obj
 0001:0001f76b       ??0KWndText256@@QAE@XZ     0042076b f   WndText.obj
 0001:0001f7ed       ??0KWndText512@@QAE@XZ     004207ed f   WndText.obj
 0001:0001f870       ??_EKWndText@@UAEPAXI@Z    00420870 f i WndText.obj
 0001:0001f870       ??_GKWndText@@UAEPAXI@Z    00420870 f i WndText.obj
 0001:0001f8b0       ??_EKWndText32@@UAEPAXI@Z  004208b0 f i WndText.obj
 0001:0001f8b0       ??_GKWndText32@@UAEPAXI@Z  004208b0 f i WndText.obj
 0001:0001f8f0       ??_GKWndText80@@UAEPAXI@Z  004208f0 f i WndText.obj
 0001:0001f8f0       ??_EKWndText80@@UAEPAXI@Z  004208f0 f i WndText.obj
 0001:0001f930       ??1KWndText80@@UAE@XZ      00420930 f i WndText.obj
 0001:0001f960       ??_EKWndText128@@UAEPAXI@Z 00420960 f i WndText.obj
 0001:0001f960       ??_GKWndText128@@UAEPAXI@Z 00420960 f i WndText.obj
 0001:0001f9a0       ??1KWndText128@@UAE@XZ     004209a0 f i WndText.obj
 0001:0001f9d0       ??_GKWndText256@@UAEPAXI@Z 004209d0 f i WndText.obj
 0001:0001f9d0       ??_EKWndText256@@UAEPAXI@Z 004209d0 f i WndText.obj
 0001:0001fa10       ??1KWndText256@@UAE@XZ     00420a10 f i WndText.obj
 0001:0001fa40       ??_GKWndText512@@UAEPAXI@Z 00420a40 f i WndText.obj
 0001:0001fa40       ??_EKWndText512@@UAEPAXI@Z 00420a40 f i WndText.obj
 0001:0001fa80       ??1KWndText512@@UAE@XZ     00420a80 f i WndText.obj
 0001:0001fab0       ??0KWndToolBar@@QAE@XZ     00420ab0 f   WndToolBar.obj
 0001:0001fafa       ??1KWndToolBar@@UAE@XZ     00420afa f   WndToolBar.obj
 0001:0001fb5c       ?Clone@KWndToolBar@@QAEXPAV1@@Z 00420b5c f   WndToolBar.obj
 0001:0001fbae       ?Init@KWndToolBar@@UAEHPAVKIniFile@@PBD@Z 00420bae f   WndToolBar.obj
 0001:0001fc70       ?WndProc@KWndToolBar@@UAEHIIH@Z 00420c70 f   WndToolBar.obj
 0001:0001fcdb       ?PaintWindow@KWndToolBar@@UAEXXZ 00420cdb f   WndToolBar.obj
 0001:0001fcff       ?AddOneWindow@KWndToolBar@@IAEXPAVKIniFile@@PBD@Z 00420cff f   WndToolBar.obj
 0001:0001feae       ?FreeAllWindow@KWndToolBar@@IAEXXZ 00420eae f   WndToolBar.obj
 0001:0001ffaa       ?UpdateData@KWndToolBar@@UAEXXZ 00420faa f   WndToolBar.obj
 0001:00020040       ??_GKWndToolBar@@UAEPAXI@Z 00421040 f i WndToolBar.obj
 0001:00020040       ??_EKWndToolBar@@UAEPAXI@Z 00421040 f i WndToolBar.obj
 0001:00020080       ??0KWndValueImage@@QAE@XZ  00421080 f   WndValueImage.obj
 0001:000200ca       ?Clone@KWndValueImage@@QAEXPAV1@@Z 004210ca f   WndValueImage.obj
 0001:00020130       ?Init@KWndValueImage@@UAEHPAVKIniFile@@PBD@Z 00421130 f   WndValueImage.obj
 0001:000201f0       ?SetValue@KWndValueImage@@QAEXHH@Z 004211f0 f   WndValueImage.obj
 0001:00020280       ??_EKWndValueImage@@UAEPAXI@Z 00421280 f i WndValueImage.obj
 0001:00020280       ??_GKWndValueImage@@UAEPAXI@Z 00421280 f i WndValueImage.obj
 0001:000202c0       ??1KWndValueImage@@UAE@XZ  004212c0 f i WndValueImage.obj
 0001:000202f0       ??0KWndWindow@@QAE@XZ      004212f0 f   WndWindow.obj
 0001:000203a3       ??1KWndWindow@@UAE@XZ      004213a3 f   WndWindow.obj
 0001:000203ea       ?BringToTop@KWndWindow@@QAEXXZ 004213ea f   WndWindow.obj
 0001:0002049a       ?GetPosition@KWndWindow@@QAEXPAH0@Z 0042149a f   WndWindow.obj
 0001:000204d0       ?SetPosition@KWndWindow@@QAEXHH@Z 004214d0 f   WndWindow.obj
 0001:0002051c       ?GetAbsolutePos@KWndWindow@@QAEXPAH0@Z 0042151c f   WndWindow.obj
 0001:00020552       ?GetSize@KWndWindow@@QAEXPAH0@Z 00421552 f   WndWindow.obj
 0001:00020588       ?SetSize@KWndWindow@@UAEXHH@Z 00421588 f   WndWindow.obj
 0001:00020705       ?AbsoluteMove@KWndWindow@@AAEXHH@Z 00421705 f   WndWindow.obj
 0001:00020774       ?Show@KWndWindow@@UAEXXZ   00421774 f   WndWindow.obj
 0001:00020798       ?Hide@KWndWindow@@UAEXXZ   00421798 f   WndWindow.obj
 0001:00020818       ?IsVisible@KWndWindow@@QAEHXZ 00421818 f   WndWindow.obj
 0001:00020835       ?Enable@KWndWindow@@UAEXH@Z 00421835 f   WndWindow.obj
 0001:00020875       ?Destroy@KWndWindow@@QAEXXZ 00421875 f   WndWindow.obj
 0001:00020899       ?Clone@KWndWindow@@IAEXPAV1@@Z 00421899 f   WndWindow.obj
 0001:000208f7       ?Init@KWndWindow@@UAEHPAVKIniFile@@PBD@Z 004218f7 f   WndWindow.obj
 0001:00020bee       ?PtInWindow@KWndWindow@@UAEHHH@Z 00421bee f   WndWindow.obj
 0001:00020cda       ?Paint@KWndWindow@@QAEXXZ  00421cda f   WndWindow.obj
 0001:00020d44       ?LetMeBreathe@KWndWindow@@QAEXXZ 00421d44 f   WndWindow.obj
 0001:00020dee       ?AddChild@KWndWindow@@QAEXPAV1@@Z 00421dee f   WndWindow.obj
 0001:00020ea1       ?AddBrother@KWndWindow@@QAEXPAV1@@Z 00421ea1 f   WndWindow.obj
 0001:00020f6f       ?LeaveAlone@KWndWindow@@QAEXXZ 00421f6f f   WndWindow.obj
 0001:00020fba       ?SplitSmaleFamily@KWndWindow@@QAEXXZ 00421fba f   WndWindow.obj
 0001:0002105a       ?WndProc@KWndWindow@@UAEHIIH@Z 0042205a f   WndWindow.obj
 0001:000211ca       ?OnLBtnDown@KWndWindow@@AAEXHH@Z 004221ca f   WndWindow.obj
 0001:00021221       ?OnMoveWnd@KWndWindow@@AAEXXZ 00422221 f   WndWindow.obj
 0001:00021329       ?TopChildFromPoint@KWndWindow@@UAEPAV1@HH@Z 00422329 f   WndWindow.obj
 0001:000213fc       ?GetOwner@KWndWindow@@QAEPAV1@XZ 004223fc f   WndWindow.obj
 0001:00021434       ?SetCaption@KWndWindow@@QAEXPAD@Z 00422434 f   WndWindow.obj
 0001:00021479       ?PaintDebugInfo@KWndWindow@@QAEXXZ 00422479 f   WndWindow.obj
 0001:0002169f       ?PaintWindow@KWndWindow@@UAEXXZ 0042269f f   WndWindow.obj
 0001:0002194d       ?GetColor@@YAIPBD@Z        0042294d f   WndWindow.obj
 0001:00021b36       ?GetColorString@@YAPBDI@Z  00422b36 f   WndWindow.obj
 0001:00021b9c       ?SetCursorAbove@KWndWindow@@QAEXXZ 00422b9c f   WndWindow.obj
 0001:00021be8       ?GetAllChildLayoutRect@KWndWindow@@QAEXPAUtagRECT@@@Z 00422be8 f   WndWindow.obj
 0001:00021d70       ??_GKWndWindow@@UAEPAXI@Z  00422d70 f i WndWindow.obj
 0001:00021d70       ??_EKWndWindow@@UAEPAXI@Z  00422d70 f i WndWindow.obj
 0001:00021db0       ??0KUiConnectInfo@@AAE@XZ  00422db0 f   UiConnectInfo.obj
 0001:00021ec5       ?OpenWindow@KUiConnectInfo@@SAPAV1@W4LOGIN_BG_INFO_MSG_INDEX@@HH@Z 00422ec5 f   UiConnectInfo.obj
 0001:0002204e       ?CloseWindow@KUiConnectInfo@@SAX_N@Z 0042304e f   UiConnectInfo.obj
 0001:000220b0       ?Initialize@KUiConnectInfo@@AAEXXZ 004230b0 f   UiConnectInfo.obj
 0001:00022119       ?LoadScheme@KUiConnectInfo@@AAEXPBD@Z 00423119 f   UiConnectInfo.obj
 0001:0002254f       ?OnClickConfirmBtn@KUiConnectInfo@@AAEXXZ 0042354f f   UiConnectInfo.obj
 0001:000226c0       ?WndProc@KUiConnectInfo@@EAEHIIH@Z 004236c0 f   UiConnectInfo.obj
 0001:000227d7       ?OnDelRole@KUiConnectInfo@@AAE_NXZ 004237d7 f   UiConnectInfo.obj
 0001:000228f9       ?OnCancelDelRole@KUiConnectInfo@@AAEXXZ 004238f9 f   UiConnectInfo.obj
 0001:00022940       ?SetInfoMsg@KUiConnectInfo@@AAEXW4LOGIN_BG_INFO_MSG_INDEX@@@Z 00423940 f   UiConnectInfo.obj
 0001:00022b18       ?GotoNextStep@KUiConnectInfo@@AAEXXZ 00423b18 f   UiConnectInfo.obj
 0001:00022c46       ?Breathe@KUiConnectInfo@@EAEXXZ 00423c46 f   UiConnectInfo.obj
 0001:00022eea       ?PaintWindow@KUiConnectInfo@@EAEXXZ 00423eea f   UiConnectInfo.obj
 0001:000231a0       ??_GKUiConnectInfo@@EAEPAXI@Z 004241a0 f i UiConnectInfo.obj
 0001:000231a0       ??_EKUiConnectInfo@@EAEPAXI@Z 004241a0 f i UiConnectInfo.obj
 0001:000231e0       ??1KUiConnectInfo@@EAE@XZ  004241e0 f i UiConnectInfo.obj
 0001:00023290       ?GetStatus@KLogin@@QAE?AW4LOGIN_LOGIC_STATUS@@XZ 00424290 f i UiConnectInfo.obj
 0001:000232b0       ??0KUiLogin@@AAE@XZ        004242b0 f   UiLogin.obj
 0001:00023391       ??1KUiLogin@@EAE@XZ        00424391 f   UiLogin.obj
 0001:00023465       ?OpenWindow@KUiLogin@@SAPAV1@XZ 00424465 f   UiLogin.obj
 0001:00023545       ?CloseWindow@KUiLogin@@SAX_N@Z 00424545 f   UiLogin.obj
 0001:000235ce       ?Show@KUiLogin@@EAEXXZ     004245ce f   UiLogin.obj
 0001:0002369e       ?Initialize@KUiLogin@@AAEXXZ 0042469e f   UiLogin.obj
 0001:0002379b       ?LoadScheme@KUiLogin@@AAEXPBD@Z 0042479b f   UiLogin.obj
 0001:000239e1       ?WndProc@KUiLogin@@EAEHIIH@Z 004249e1 f   UiLogin.obj
 0001:00023d96       ?OnEnableAutoLogin@KUiLogin@@AAEXXZ 00424d96 f   UiLogin.obj
 0001:00023e2f       ?OnKeyDown@KUiLogin@@AAEXI@Z 00424e2f f   UiLogin.obj
 0001:0002409f       ?OnLogin@KUiLogin@@AAEXXZ  0042509f f   UiLogin.obj
 0001:0002415d       ?OnCancel@KUiLogin@@AAEXXZ 0042515d f   UiLogin.obj
 0001:00024192       ?GetInputInfo@KUiLogin@@AAEHPAD0@Z 00425192 f   UiLogin.obj
 0001:00024334       ?IsValidPassword@KUiLogin@@SA_NPBDH@Z 00425334 f   UiLogin.obj
 0001:000243dd       ?OnFocusAccount@KUiLogin@@AAEX_N@Z 004253dd f   UiLogin.obj
 0001:00024400       ??_GKUiLogin@@EAEPAXI@Z    00425400 f i UiLogin.obj
 0001:00024400       ??_EKUiLogin@@EAEPAXI@Z    00425400 f i UiLogin.obj
 0001:00024440       ?OpenWindow@KUiLoginBackGround@@SAPAV1@PBD@Z 00425440 f   UiLoginBg.obj
 0001:00024521       ?CloseWindow@KUiLoginBackGround@@SAX_N@Z 00425521 f   UiLoginBg.obj
 0001:00024575       ?Initialize@KUiLoginBackGround@@AAEXXZ 00425575 f   UiLoginBg.obj
 0001:0002461b       ?SetConfig@KUiLoginBackGround@@SAXPBD@Z 0042561b f   UiLoginBg.obj
 0001:00024772       ?LoadScheme@KUiLoginBackGround@@AAEXPAVKIniFile@@@Z 00425772 f   UiLoginBg.obj
 0001:0002497e       ?Breathe@KUiLoginBackGround@@EAEXXZ 0042597e f   UiLoginBg.obj
 0001:00024ad0       ??0KUiLoginBackGround@@AAE@XZ 00425ad0 f i UiLoginBg.obj
 0001:00024b50       ??_EKUiLoginBackGround@@EAEPAXI@Z 00425b50 f i UiLoginBg.obj
 0001:00024b50       ??_GKUiLoginBackGround@@EAEPAXI@Z 00425b50 f i UiLoginBg.obj
 0001:00024b90       ??1KUiLoginBackGround@@EAE@XZ 00425b90 f i UiLoginBg.obj
 0001:00024c10       ??0KUiSelServer@@AAE@XZ    00425c10 f   UiSelServer.obj
 0001:00024d10       ??1KUiSelServer@@EAE@XZ    00425d10 f   UiSelServer.obj
 0001:00024e6e       ?OpenWindow@KUiSelServer@@SAPAV1@XZ 00425e6e f   UiSelServer.obj
 0001:00024f6d       ?CloseWindow@KUiSelServer@@SAX_N@Z 00425f6d f   UiSelServer.obj
 0001:00024fc1       ?Initialize@KUiSelServer@@AAEXXZ 00425fc1 f   UiSelServer.obj
 0001:00025101       ?GetList@KUiSelServer@@AAEXXZ 00426101 f   UiSelServer.obj
 0001:00025343       ?LoadScheme@KUiSelServer@@AAEXPBD@Z 00426343 f   UiSelServer.obj
 0001:00025659       ?WndProc@KUiSelServer@@EAEHIIH@Z 00426659 f   UiSelServer.obj
 0001:0002578a       ?OnKeyDown@KUiSelServer@@AAEHI@Z 0042678a f   UiSelServer.obj
 0001:00025b29       ?OnClickButton@KUiSelServer@@AAEXPAVKWndButton@@@Z 00426b29 f   UiSelServer.obj
 0001:00025b74       ?OnSelRegion@KUiSelServer@@AAEXH@Z 00426b74 f   UiSelServer.obj
 0001:00025d14       ?OnLogin@KUiSelServer@@AAEXXZ 00426d14 f   UiSelServer.obj
 0001:00025db8       ?OnCancel@KUiSelServer@@AAEXXZ 00426db8 f   UiSelServer.obj
 0001:00025df0       ??_GKUiSelServer@@EAEPAXI@Z 00426df0 f i UiSelServer.obj
 0001:00025df0       ??_EKUiSelServer@@EAEPAXI@Z 00426df0 f i UiSelServer.obj
 0001:00025e30       ?GetTopItemIndex@KWndList@@QAEHXZ 00426e30 f i UiSelServer.obj
 0001:00025e50       ?GetCount@KWndList@@QAEHXZ 00426e50 f i UiSelServer.obj
 0001:00025e70       ?GetCurSel@KWndList@@QAEHXZ 00426e70 f i UiSelServer.obj
 0001:00025e90       ?GetIfVisible@KUiChooseFace@@SAPAV1@XZ 00426e90 f   UiChooseFace.obj
 0001:00025ebd       ?OpenWindow@KUiChooseFace@@SAPAV1@H@Z 00426ebd f   UiChooseFace.obj
 0001:00025fbc       ?CloseWindow@KUiChooseFace@@SAXXZ 00426fbc f   UiChooseFace.obj
 0001:00025ff0       ?Initialize@KUiChooseFace@@AAEXXZ 00426ff0 f   UiChooseFace.obj
 0001:0002635a       ?LoadScheme@KUiChooseFace@@AAEXPBD@Z 0042735a f   UiChooseFace.obj
 0001:00026a7d       ?ShowWindow@KUiChooseFace@@AAEXH@Z 00427a7d f   UiChooseFace.obj
 0001:0002725e       ?WndProc@KUiChooseFace@@EAEHIIH@Z 0042825e f   UiChooseFace.obj
 0001:00027669       ?OnOK@KUiChooseFace@@AAEXXZ 00428669 f   UiChooseFace.obj
 0001:0002771e       ?PaintWindow@KUiChooseFace@@EAEXXZ 0042871e f   UiChooseFace.obj
 0001:00028110       ??0KUiChooseFace@@QAE@XZ   00429110 f i UiChooseFace.obj
 0001:000283a0       ??_GKUiChooseFace@@UAEPAXI@Z 004293a0 f i UiChooseFace.obj
 0001:000283a0       ??_EKUiChooseFace@@UAEPAXI@Z 004293a0 f i UiChooseFace.obj
 0001:000283e0       ??1KUiChooseFace@@UAE@XZ   004293e0 f i UiChooseFace.obj
 0001:00028660       ??0KUiFaceSelector@@AAE@XZ 00429660 f   UiFaceSelector.obj
 0001:00028769       ?OpenWindow@KUiFaceSelector@@SAPAV1@PAVKWndWindow@@PAX@Z 00429769 f   UiFaceSelector.obj
 0001:00028871       ?CloseWindow@KUiFaceSelector@@SAX_N@Z 00429871 f   UiFaceSelector.obj
 0001:000288c2       ?GetIfVisible@KUiFaceSelector@@SAPAV1@XZ 004298c2 f   UiFaceSelector.obj
 0001:000288ef       ?ConvertFaceText@KUiFaceSelector@@SAHPADPBDH@Z 004298ef f   UiFaceSelector.obj
 0001:00028a7c       ?ConvertFace@KUiFaceSelector@@CAHPADAAHPBDH1@Z 00429a7c f   UiFaceSelector.obj
 0001:00028baa       ?Initialize@KUiFaceSelector@@AAEXXZ 00429baa f   UiFaceSelector.obj
 0001:00028c40       ?LoadFaceList@KUiFaceSelector@@SAXXZ 00429c40 f   UiFaceSelector.obj
 0001:00028e12       ?Clear@KUiFaceSelector@@SAXXZ 00429e12 f   UiFaceSelector.obj
 0001:00028e68       ?OnSelFace@KUiFaceSelector@@AAEXXZ 00429e68 f   UiFaceSelector.obj
 0001:00028efc       ?WndProc@KUiFaceSelector@@EAEHIIH@Z 00429efc f   UiFaceSelector.obj
 0001:00029095       ?OnExpandWnd@KUiFaceSelector@@AAEXXZ 0042a095 f   UiFaceSelector.obj
 0001:0002913e       ?OnUnExpandWnd@KUiFaceSelector@@AAEXXZ 0042a13e f   UiFaceSelector.obj
 0001:000291dc       ?LoadScheme@KUiFaceSelector@@QAEXPBD@Z 0042a1dc f   UiFaceSelector.obj
 0001:0002971e       ?UpdateFaceTip@KUiFaceSelector@@AAEXHH@Z 0042a71e f   UiFaceSelector.obj
 0001:00029808       ?PaintWindow@KUiFaceSelector@@EAEXXZ 0042a808 f   UiFaceSelector.obj
 0001:00029c70       ?Show@KUiFaceSelector@@EAEXXZ 0042ac70 f   UiFaceSelector.obj
 0001:00029ca0       ?Hide@KUiFaceSelector@@EAEXXZ 0042aca0 f   UiFaceSelector.obj
 0001:00029cc9       ?GetFaceAtPos@KUiFaceSelector@@AAEHHH@Z 0042acc9 f   UiFaceSelector.obj
 0001:00029dc0       ??_EKUiFaceSelector@@EAEPAXI@Z 0042adc0 f i UiFaceSelector.obj
 0001:00029dc0       ??_GKUiFaceSelector@@EAEPAXI@Z 0042adc0 f i UiFaceSelector.obj
 0001:00029e00       ??1KUiFaceSelector@@EAE@XZ 0042ae00 f i UiFaceSelector.obj
 0001:00029e80       ?CreateObject@GameWorld_DateTime@@SAPAVKWndWindow@@XZ 0042ae80 f i UiPlayerBar.obj
 0001:00029f10       ?GetFormatedTimeString@@YAHHPAD@Z 0042af10 f   UiPlayerBar.obj
 0001:00029f95       ?GetFormatedTimeString@@YAHPAUtm@@PAD@Z 0042af95 f   UiPlayerBar.obj
 0001:00029fea       ??0GameWorld_DateTime@@QAE@XZ 0042afea f   UiPlayerBar.obj
 0001:0002a069       ?OnButtonClick@GameWorld_DateTime@@EAEXXZ 0042b069 f   UiPlayerBar.obj
 0001:0002a0b4       ?Init@GameWorld_DateTime@@UAEHPAVKIniFile@@PBD@Z 0042b0b4 f   UiPlayerBar.obj
 0001:0002a320       ?UpdateData@GameWorld_DateTime@@UAEXXZ 0042b320 f   UiPlayerBar.obj
 0001:0002a557       ?UpdateNetStatus@GameWorld_DateTime@@AAEXXZ 0042b557 f   UiPlayerBar.obj
 0001:0002a745       ?Init@KImmediaItem@@UAEHPAVKIniFile@@PBD@Z 0042b745 f   UiPlayerBar.obj
 0001:0002a7d1       ?PaintWindow@KImmediaItem@@UAEXXZ 0042b7d1 f   UiPlayerBar.obj
 0001:0002a970       ??0KUiPlayerBar@@AAE@XZ    0042b970 f   UiPlayerBar.obj
 0001:0002ac3d       ??1KUiPlayerBar@@EAE@XZ    0042bc3d f   UiPlayerBar.obj
 0001:0002ae21       ?GetIfVisible@KUiPlayerBar@@SAPAV1@XZ 0042be21 f   UiPlayerBar.obj
 0001:0002ae4e       ?OpenWindow@KUiPlayerBar@@SAPAV1@XZ 0042be4e f   UiPlayerBar.obj
 0001:0002af67       ?UpdateData@KUiPlayerBar@@EAEXXZ 0042bf67 f   UiPlayerBar.obj
 0001:0002b0ce       ?CloseWindow@KUiPlayerBar@@SAX_N@Z 0042c0ce f   UiPlayerBar.obj
 0001:0002b17a       ?LoadScheme@KUiPlayerBar@@SAXPBD@Z 0042c17a f   UiPlayerBar.obj
 0001:0002b26b       ?LoadScheme@KUiPlayerBar@@AAEXPAVKIniFile@@PBD@Z 0042c26b f   UiPlayerBar.obj
 0001:0002bb85       ?Initialize@KUiPlayerBar@@AAEXXZ 0042cb85 f   UiPlayerBar.obj
 0001:0002bf39       ?WndProc@KUiPlayerBar@@EAEHIIH@Z 0042cf39 f   UiPlayerBar.obj
 0001:0002c981       ?PaintWindow@KUiPlayerBar@@EAEXXZ 0042d981 f   UiPlayerBar.obj
 0001:0002cada       ?PopupChannelMenu@KUiPlayerBar@@AAEXHH@Z 0042dada f   UiPlayerBar.obj
 0001:0002cf81       ?PopupPhraseMenu@KUiPlayerBar@@AAEXHH_N@Z 0042df81 f   UiPlayerBar.obj
 0001:0002d0da       ?OnSend@KUiPlayerBar@@AAEXH@Z 0042e0da f   UiPlayerBar.obj
 0001:0002d856       ?IsCanSendMessage@KUiPlayerBar@@SAHPBDHPADH@Z 0042e856 f   UiPlayerBar.obj
 0001:0002d92b       ?OnSendChannelMessage@KUiPlayerBar@@SAXKPBDH@Z 0042e92b f   UiPlayerBar.obj
 0001:0002da24       ?OnDirectSendChannelMessage@KUiPlayerBar@@AAEXKEPBDH@Z 0042ea24 f   UiPlayerBar.obj
 0001:0002db4f       ?OnSendSomeoneMessage@KUiPlayerBar@@SAXPBD0H@Z 0042eb4f f   UiPlayerBar.obj
 0001:0002dc88       ?InputRecentMsg@KUiPlayerBar@@AAEX_N@Z 0042ec88 f   UiPlayerBar.obj
 0001:0002dd71       ?OnObjPickedDropped@KUiPlayerBar@@AAEXPAUITEM_PICKDROP_PLACE@@0@Z 0042ed71 f   UiPlayerBar.obj
 0001:0002e0da       ?CanDragObj@KUiPlayerBar@@AAEHI@Z 0042f0da f   UiPlayerBar.obj
 0001:0002e1a4       ?OnUseItem@KUiPlayerBar@@SAXH@Z 0042f1a4 f   UiPlayerBar.obj
 0001:0002e2bf       ?GetChannelIndex@KUiPlayerBar@@AAEHPBD@Z 0042f2bf f   UiPlayerBar.obj
 0001:0002e38b       ?SetCurrentChannel@KUiPlayerBar@@SAXH@Z 0042f38b f   UiPlayerBar.obj
 0001:0002e515       ?InputCurrentChannel@KUiPlayerBar@@AAEXH_N@Z 0042f515 f   UiPlayerBar.obj
 0001:0002e5bc       ?SwitchChannel@KUiPlayerBar@@SAXH@Z 0042f5bc f   UiPlayerBar.obj
 0001:0002e661       ?GetCurChannel@KUiPlayerBar@@SAHXZ 0042f661 f   UiPlayerBar.obj
 0001:0002e67f       ?UpdateXXXNumber@KUiPlayerBar@@AAEXAAH0@Z 0042f67f f   UiPlayerBar.obj
 0001:0002e77a       ?UpdateRuntimeAttribute@KUiPlayerBar@@AAEXAAH0@Z 0042f77a f   UiPlayerBar.obj
 0001:0002e804       ?UpdateItem@KUiPlayerBar@@QAEXHII@Z 0042f804 f   UiPlayerBar.obj
 0001:0002e8d8       ?UpdateSkill@KUiPlayerBar@@QAEXHII@Z 0042f8d8 f   UiPlayerBar.obj
 0001:0002e926       ?Breathe@KUiPlayerBar@@EAEXXZ 0042f926 f   UiPlayerBar.obj
 0001:0002eeb5       ?IsHasCost@KUiPlayerBar@@AAEHEHHHHAAH00@Z 0042feb5 f   UiPlayerBar.obj
 0001:0002f09c       ?InputNameMsg@KUiPlayerBar@@SAXDPBD_N@Z 0043009c f   UiPlayerBar.obj
 0001:0002f395       ?FindRecentPlayer@KUiPlayerBar@@SAHPBD@Z 00430395 f   UiPlayerBar.obj
 0001:0002f42c       ?GetRecentPlayerName@KUiPlayerBar@@SAPADH@Z 0043042c f   UiPlayerBar.obj
 0001:0002f48f       ?AddRecentPlayer@KUiPlayerBar@@SAHPBD@Z 0043048f f   UiPlayerBar.obj
 0001:0002f61c       ?ReplaceSpecialName@KUiPlayerBar@@AAEXPADI0@Z 0043061c f   UiPlayerBar.obj
 0001:0002f64e       ?GetExp@KUiPlayerBar@@SA_NAAH00@Z 0043064e f   UiPlayerBar.obj
 0001:0002f695       ?LoadPrivateSetting@KUiPlayerBar@@SAHPAVKIniFile@@@Z 00430695 f   UiPlayerBar.obj
 0001:0002f90f       ?SavePrivateSetting@KUiPlayerBar@@SAHPAVKIniFile@@@Z 0043090f f   UiPlayerBar.obj
 0001:0002fb52       ?SetChatItemInfo@KUiPlayerBar@@SAXUKUiChatItemParam@@I@Z 00430b52 f   UiPlayerBar.obj
 0001:0003055c       ?SetChatItemInfo@KUiPlayerBar@@SAXFPAD0@Z 0043155c f   UiPlayerBar.obj
 0001:00030929       ?SetChatItemPosition@KUiPlayerBar@@SAXFFF_N@Z 00431929 f   UiPlayerBar.obj
 0001:00030a79       ?ClearChatItem@KUiPlayerBar@@SAXXZ 00431a79 f   UiPlayerBar.obj
 0001:00030b34       ?EncodeChatItemInfo@KUiPlayerBar@@SAXPBDIPAD1@Z 00431b34 f   UiPlayerBar.obj
 0001:000314d8       ?PopupPKMenu@KUiPlayerBar@@SAXFF@Z 004324d8 f   UiPlayerBar.obj
 0001:0003163b       ?OnChoosePKMenu@KUiPlayerBar@@AAEXE@Z 0043263b f   UiPlayerBar.obj
 0001:00031682       ?MyMessage@KUiPlayerBar@@SAXPAD@Z 00432682 f   UiPlayerBar.obj
 0001:00031760       ??_EGameWorld_DateTime@@UAEPAXI@Z 00432760 f i UiPlayerBar.obj
 0001:00031760       ??_GGameWorld_DateTime@@UAEPAXI@Z 00432760 f i UiPlayerBar.obj
 0001:000317a0       ??1GameWorld_DateTime@@UAE@XZ 004327a0 f i UiPlayerBar.obj
 0001:000317d0       ??0KImmediaItem@@QAE@XZ    004327d0 f i UiPlayerBar.obj
 0001:00031820       ??_EKImmediaItem@@UAEPAXI@Z 00432820 f i UiPlayerBar.obj
 0001:00031820       ??_GKImmediaItem@@UAEPAXI@Z 00432820 f i UiPlayerBar.obj
 0001:00031860       ??1KImmediaItem@@UAE@XZ    00432860 f i UiPlayerBar.obj
 0001:00031890       ??_GKUiPlayerBar@@EAEPAXI@Z 00432890 f i UiPlayerBar.obj
 0001:00031890       ??_EKUiPlayerBar@@EAEPAXI@Z 00432890 f i UiPlayerBar.obj
 0001:000318d0       ?GetFocusBkColor@KWndEdit@@QAEIXZ 004328d0 f i UiPlayerBar.obj
 0001:000318f0       ?GetMenuData@KPopupMenu@@SAPAUKPopupMenuData@@XZ 004328f0 f i UiPlayerBar.obj
 0001:00031900       ?IsSelfName@KUiPlayerBar@@SAHPAD@Z 00432900 f i UiPlayerBar.obj
 0001:00031950       ?SetFocusBkColor@KWndEdit@@QAEXI@Z 00432950 f i UiPlayerBar.obj
 0001:00031970       ?end@?$map@V?$basic_string@DU?$char_traits@D@std@@V?$allocator@D@2@@std@@UShortFuncInfo@@Ustring_iless@@V?$allocator@UShortFuncInfo@@@2@@std@@QAE?AViterator@?$_Tree@V?$basic_string@DU?$char_traits@D@std@@V?$allocator@D@2@@std@@U?$pair@$$CBV?$basic_string@DU?$char_traits@D@std@@V?$allocator@D@2@@std@@UShortFuncInfo@@@2@U_Kfn@?$map@V?$basic_string@DU?$char_traits@D@std@@V?$allocator@D@2@@std@@UShortFuncInfo@@Ustring_iless@@V?$allocator@UShortFuncInfo@@@2@@2@Ustring_iless@@V?$allocator@UShortFuncInfo@@@2@@2@XZ 00432970 f i UiPlayerBar.obj
 0001:000319b0       ?find@?$map@V?$basic_string@DU?$char_traits@D@std@@V?$allocator@D@2@@std@@UShortFuncInfo@@Ustring_iless@@V?$allocator@UShortFuncInfo@@@2@@std@@QAE?AViterator@?$_Tree@V?$basic_string@DU?$char_traits@D@std@@V?$allocator@D@2@@std@@U?$pair@$$CBV?$basic_string@DU?$char_traits@D@std@@V?$allocator@D@2@@std@@UShortFuncInfo@@@2@U_Kfn@?$map@V?$basic_string@DU?$char_traits@D@std@@V?$allocator@D@2@@std@@UShortFuncInfo@@Ustring_iless@@V?$allocator@UShortFuncInfo@@@2@@2@Ustring_iless@@V?$allocator@UShortFuncInfo@@@2@@2@ABV?$basic_string@DU?$char_traits@D@std@@V?$allocator@D@2@@2@@Z 004329b0 f i UiPlayerBar.obj
 0001:00031a00       ??9iterator@?$_Tree@V?$basic_string@DU?$char_traits@D@std@@V?$allocator@D@2@@std@@U?$pair@$$CBV?$basic_string@DU?$char_traits@D@std@@V?$allocator@D@2@@std@@UShortFuncInfo@@@2@U_Kfn@?$map@V?$basic_string@DU?$char_traits@D@std@@V?$allocator@D@2@@std@@UShortFuncInfo@@Ustring_iless@@V?$allocator@UShortFuncInfo@@@2@@2@Ustring_iless@@V?$allocator@UShortFuncInfo@@@2@@std@@QBE_NABV012@@Z 00432a00 f i UiPlayerBar.obj
 0001:00031a40       ?end@?$_Tree@V?$basic_string@DU?$char_traits@D@std@@V?$allocator@D@2@@std@@U?$pair@$$CBV?$basic_string@DU?$char_traits@D@std@@V?$allocator@D@2@@std@@UShortFuncInfo@@@2@U_Kfn@?$map@V?$basic_string@DU?$char_traits@D@std@@V?$allocator@D@2@@std@@UShortFuncInfo@@Ustring_iless@@V?$allocator@UShortFuncInfo@@@2@@2@Ustring_iless@@V?$allocator@UShortFuncInfo@@@2@@std@@QAE?AViterator@12@XZ 00432a40 f i UiPlayerBar.obj
 0001:00031a80       ?find@?$_Tree@V?$basic_string@DU?$char_traits@D@std@@V?$allocator@D@2@@std@@U?$pair@$$CBV?$basic_string@DU?$char_traits@D@std@@V?$allocator@D@2@@std@@UShortFuncInfo@@@2@U_Kfn@?$map@V?$basic_string@DU?$char_traits@D@std@@V?$allocator@D@2@@std@@UShortFuncInfo@@Ustring_iless@@V?$allocator@UShortFuncInfo@@@2@@2@Ustring_iless@@V?$allocator@UShortFuncInfo@@@2@@std@@QAE?AViterator@12@ABV?$basic_string@DU?$char_traits@D@std@@V?$allocator@D@2@@2@@Z 00432a80 f i UiPlayerBar.obj
 0001:00031b40       ??Rstring_iless@@QBE_NABV?$basic_string@DU?$char_traits@D@std@@V?$allocator@D@2@@std@@0@Z 00432b40 f i UiPlayerBar.obj
 0001:00031bf0       __tcsicmp                  00432bf0 f i UiPlayerBar.obj
 0001:00031c20       ??8iterator@?$_Tree@V?$basic_string@DU?$char_traits@D@std@@V?$allocator@D@2@@std@@U?$pair@$$CBV?$basic_string@DU?$char_traits@D@std@@V?$allocator@D@2@@std@@UShortFuncInfo@@@2@U_Kfn@?$map@V?$basic_string@DU?$char_traits@D@std@@V?$allocator@D@2@@std@@UShortFuncInfo@@Ustring_iless@@V?$allocator@UShortFuncInfo@@@2@@2@Ustring_iless@@V?$allocator@UShortFuncInfo@@@2@@std@@QBE_NABV012@@Z 00432c20 f i UiPlayerBar.obj
 0001:00031c50       ?_Key@?$_Tree@V?$basic_string@DU?$char_traits@D@std@@V?$allocator@D@2@@std@@U?$pair@$$CBV?$basic_string@DU?$char_traits@D@std@@V?$allocator@D@2@@std@@UShortFuncInfo@@@2@U_Kfn@?$map@V?$basic_string@DU?$char_traits@D@std@@V?$allocator@D@2@@std@@UShortFuncInfo@@Ustring_iless@@V?$allocator@UShortFuncInfo@@@2@@2@Ustring_iless@@V?$allocator@UShortFuncInfo@@@2@@std@@KAABV?$basic_string@DU?$char_traits@D@std@@V?$allocator@D@2@@2@PAU_Node@12@@Z 00432c50 f i UiPlayerBar.obj
 0001:00031c80       ?lower_bound@?$_Tree@V?$basic_string@DU?$char_traits@D@std@@V?$allocator@D@2@@std@@U?$pair@$$CBV?$basic_string@DU?$char_traits@D@std@@V?$allocator@D@2@@std@@UShortFuncInfo@@@2@U_Kfn@?$map@V?$basic_string@DU?$char_traits@D@std@@V?$allocator@D@2@@std@@UShortFuncInfo@@Ustring_iless@@V?$allocator@UShortFuncInfo@@@2@@2@Ustring_iless@@V?$allocator@UShortFuncInfo@@@2@@std@@QAE?AViterator@12@ABV?$basic_string@DU?$char_traits@D@std@@V?$allocator@D@2@@2@@Z 00432c80 f i UiPlayerBar.obj
 0001:00031cd0       ?_Mynode@const_iterator@?$_Tree@V?$basic_string@DU?$char_traits@D@std@@V?$allocator@D@2@@std@@U?$pair@$$CBV?$basic_string@DU?$char_traits@D@std@@V?$allocator@D@2@@std@@UShortFuncInfo@@@2@U_Kfn@?$map@V?$basic_string@DU?$char_traits@D@std@@V?$allocator@D@2@@std@@UShortFuncInfo@@Ustring_iless@@V?$allocator@UShortFuncInfo@@@2@@2@Ustring_iless@@V?$allocator@UShortFuncInfo@@@2@@std@@QBEPAU_Node@23@XZ 00432cd0 f i UiPlayerBar.obj
 0001:00031cf0       ??0iterator@?$_Tree@V?$basic_string@DU?$char_traits@D@std@@V?$allocator@D@2@@std@@U?$pair@$$CBV?$basic_string@DU?$char_traits@D@std@@V?$allocator@D@2@@std@@UShortFuncInfo@@@2@U_Kfn@?$map@V?$basic_string@DU?$char_traits@D@std@@V?$allocator@D@2@@std@@UShortFuncInfo@@Ustring_iless@@V?$allocator@UShortFuncInfo@@@2@@2@Ustring_iless@@V?$allocator@UShortFuncInfo@@@2@@std@@QAE@PAU_Node@12@@Z 00432cf0 f i UiPlayerBar.obj
 0001:00031d20       ??R_Kfn@?$map@V?$basic_string@DU?$char_traits@D@std@@V?$allocator@D@2@@std@@UShortFuncInfo@@Ustring_iless@@V?$allocator@UShortFuncInfo@@@2@@std@@QBEABV?$basic_string@DU?$char_traits@D@std@@V?$allocator@D@2@@2@ABU?$pair@$$CBV?$basic_string@DU?$char_traits@D@std@@V?$allocator@D@2@@std@@UShortFuncInfo@@@2@@Z 00432d20 f i UiPlayerBar.obj
 0001:00031d40       ?_Value@?$_Tree@V?$basic_string@DU?$char_traits@D@std@@V?$allocator@D@2@@std@@U?$pair@$$CBV?$basic_string@DU?$char_traits@D@std@@V?$allocator@D@2@@std@@UShortFuncInfo@@@2@U_Kfn@?$map@V?$basic_string@DU?$char_traits@D@std@@V?$allocator@D@2@@std@@UShortFuncInfo@@Ustring_iless@@V?$allocator@UShortFuncInfo@@@2@@2@Ustring_iless@@V?$allocator@UShortFuncInfo@@@2@@std@@KAAAU?$pair@$$CBV?$basic_string@DU?$char_traits@D@std@@V?$allocator@D@2@@std@@UShortFuncInfo@@@2@PAU_Node@12@@Z 00432d40 f i UiPlayerBar.obj
 0001:00031d50       ?_Lbound@?$_Tree@V?$basic_string@DU?$char_traits@D@std@@V?$allocator@D@2@@std@@U?$pair@$$CBV?$basic_string@DU?$char_traits@D@std@@V?$allocator@D@2@@std@@UShortFuncInfo@@@2@U_Kfn@?$map@V?$basic_string@DU?$char_traits@D@std@@V?$allocator@D@2@@std@@UShortFuncInfo@@Ustring_iless@@V?$allocator@UShortFuncInfo@@@2@@2@Ustring_iless@@V?$allocator@UShortFuncInfo@@@2@@std@@IBEPAU_Node@12@ABV?$basic_string@DU?$char_traits@D@std@@V?$allocator@D@2@@2@@Z 00432d50 f i UiPlayerBar.obj
 0001:00031e50       ??0const_iterator@?$_Tree@V?$basic_string@DU?$char_traits@D@std@@V?$allocator@D@2@@std@@U?$pair@$$CBV?$basic_string@DU?$char_traits@D@std@@V?$allocator@D@2@@std@@UShortFuncInfo@@@2@U_Kfn@?$map@V?$basic_string@DU?$char_traits@D@std@@V?$allocator@D@2@@std@@UShortFuncInfo@@Ustring_iless@@V?$allocator@UShortFuncInfo@@@2@@2@Ustring_iless@@V?$allocator@UShortFuncInfo@@@2@@std@@QAE@PAU_Node@12@@Z 00432e50 f i UiPlayerBar.obj
 0001:00031e70       ?_Left@?$_Tree@V?$basic_string@DU?$char_traits@D@std@@V?$allocator@D@2@@std@@U?$pair@$$CBV?$basic_string@DU?$char_traits@D@std@@V?$allocator@D@2@@std@@UShortFuncInfo@@@2@U_Kfn@?$map@V?$basic_string@DU?$char_traits@D@std@@V?$allocator@D@2@@std@@UShortFuncInfo@@Ustring_iless@@V?$allocator@UShortFuncInfo@@@2@@2@Ustring_iless@@V?$allocator@UShortFuncInfo@@@2@@std@@KAAAPAU_Node@12@PAU312@@Z 00432e70 f i UiPlayerBar.obj
 0001:00031e80       ?_Right@?$_Tree@V?$basic_string@DU?$char_traits@D@std@@V?$allocator@D@2@@std@@U?$pair@$$CBV?$basic_string@DU?$char_traits@D@std@@V?$allocator@D@2@@std@@UShortFuncInfo@@@2@U_Kfn@?$map@V?$basic_string@DU?$char_traits@D@std@@V?$allocator@D@2@@std@@UShortFuncInfo@@Ustring_iless@@V?$allocator@UShortFuncInfo@@@2@@2@Ustring_iless@@V?$allocator@UShortFuncInfo@@@2@@std@@KAAAPAU_Node@12@PAU312@@Z 00432e80 f i UiPlayerBar.obj
 0001:00031e90       ?_Root@?$_Tree@V?$basic_string@DU?$char_traits@D@std@@V?$allocator@D@2@@std@@U?$pair@$$CBV?$basic_string@DU?$char_traits@D@std@@V?$allocator@D@2@@std@@UShortFuncInfo@@@2@U_Kfn@?$map@V?$basic_string@DU?$char_traits@D@std@@V?$allocator@D@2@@std@@UShortFuncInfo@@Ustring_iless@@V?$allocator@UShortFuncInfo@@@2@@2@Ustring_iless@@V?$allocator@UShortFuncInfo@@@2@@std@@IBEAAPAU_Node@12@XZ 00432e90 f i UiPlayerBar.obj
 0001:00031ec0       ?_Parent@?$_Tree@V?$basic_string@DU?$char_traits@D@std@@V?$allocator@D@2@@std@@U?$pair@$$CBV?$basic_string@DU?$char_traits@D@std@@V?$allocator@D@2@@std@@UShortFuncInfo@@@2@U_Kfn@?$map@V?$basic_string@DU?$char_traits@D@std@@V?$allocator@D@2@@std@@UShortFuncInfo@@Ustring_iless@@V?$allocator@UShortFuncInfo@@@2@@2@Ustring_iless@@V?$allocator@UShortFuncInfo@@@2@@std@@KAAAPAU_Node@12@PAU312@@Z 00432ec0 f i UiPlayerBar.obj
 0001:00031ed0       ?GetIfVisible@KUiStatus@@SAPAV1@XZ 00432ed0 f   UiStatus.obj
 0001:00031efd       ?OpenWindow@KUiStatus@@SAPAV1@XZ 00432efd f   UiStatus.obj
 0001:00032017       ?CloseWindow@KUiStatus@@SAX_N@Z 00433017 f   UiStatus.obj
 0001:0003206b       ?Initialize@KUiStatus@@AAEXXZ 0043306b f   UiStatus.obj
 0001:0003252e       ?LoadScheme@KUiStatus@@SAXPBD@Z 0043352e f   UiStatus.obj
 0001:0003261b       ?LoadScheme@KUiStatus@@AAEXPAVKIniFile@@@Z 0043361b f   UiStatus.obj
 0001:00032d79       ?Breathe@KUiStatus@@EAEXXZ 00433d79 f   UiStatus.obj
 0001:00033617       ?WndProc@KUiStatus@@EAEHIIH@Z 00434617 f   UiStatus.obj
 0001:00033a25       ?UseRemainPoint@KUiStatus@@AAEXW4UI_PLAYER_ATTRIBUTE@@H@Z 00434a25 f   UiStatus.obj
 0001:00033b67       ?OnDirectAddPoint@KUiStatus@@AAEXH@Z 00434b67 f   UiStatus.obj
 0001:00033c88       ?UpdateBaseData@KUiStatus@@QAEXXZ 00434c88 f   UiStatus.obj
 0001:00033d2e       ?UpdateRuntimeInfo@KUiStatus@@QAEXPAUKUiPlayerRuntimeInfo@@@Z 00434d2e f   UiStatus.obj
 0001:00033dcb       ?UpdateClientDaTa@KUiStatus@@SAXXZ 00434dcb f   UiStatus.obj
 0001:00033dfb       ?UpdateData@KUiStatus@@UAEXXZ 00434dfb f   UiStatus.obj
 0001:00033eea       ?UpdateAllEquips@KUiStatus@@QAEXXZ 00434eea f   UiStatus.obj
 0001:00033fd3       ?UpdateRuntimeAttribute@KUiStatus@@QAEXPAUKUiPlayerAttribute@@@Z 00434fd3 f   UiStatus.obj
 0001:00034371       ?OnEquiptChanged@KUiStatus@@AAEXPAUITEM_PICKDROP_PLACE@@0@Z 00435371 f   UiStatus.obj
 0001:00034603       ?UpdateEquip@KUiStatus@@QAEXPAUKUiObjAtRegion@@H@Z 00435603 f   UiStatus.obj
 0001:000346bd       ?OnNpcTradeMode@KUiStatus@@QAEX_N@Z 004356bd f   UiStatus.obj
 0001:00034725       ?UpdateButton@KUiStatus@@SAX_N@Z 00435725 f   UiStatus.obj
 0001:000347e7       ?OnClickLockBtn@KUiStatus@@AAEXXZ 004357e7 f   UiStatus.obj
 0001:000348bd       ?OnClickUnLockBtn@KUiStatus@@AAEXXZ 004358bd f   UiStatus.obj
 0001:0003498c       ?OnClickBindBtn@KUiStatus@@AAEXXZ 0043598c f   UiStatus.obj
 0001:00034ad4       ?OnClickUnBindBtn@KUiStatus@@AAEXXZ 00435ad4 f   UiStatus.obj
 0001:00034c1c       ?OnBindItem@KUiStatus@@AAEXPAUKUiDraggedObject@@@Z 00435c1c f   UiStatus.obj
 0001:00034ce8       ?OnUnBindItem@KUiStatus@@AAEXPAUKUiDraggedObject@@@Z 00435ce8 f   UiStatus.obj
 0001:00034db4       ?OnRepairItem@KUiStatus@@AAEXPAUKUiDraggedObject@@@Z 00435db4 f   UiStatus.obj
 0001:00034e80       ??0KUiStatus@@AAE@XZ       00435e80 f i UiStatus.obj
 0001:000351f0       ??_GKUiStatus@@EAEPAXI@Z   004361f0 f i UiStatus.obj
 0001:000351f0       ??_EKUiStatus@@EAEPAXI@Z   004361f0 f i UiStatus.obj
 0001:00035230       ??1KUiStatus@@EAE@XZ       00436230 f i UiStatus.obj
 0001:000355a0       ??0KUiOptions@@AAE@XZ      004365a0 f   UiOptions.obj
 0001:0003583d       ?GetIfVisible@KUiOptions@@SAPAV1@XZ 0043683d f   UiOptions.obj
 0001:0003586a       ?OpenWindow@KUiOptions@@SAPAV1@PAVKWndWindow@@@Z 0043686a f   UiOptions.obj
 0001:00035970       ?CloseWindow@KUiOptions@@SAXXZ 00436970 f   UiOptions.obj
 0001:000359db       ?Initialize@KUiOptions@@AAEXXZ 004369db f   UiOptions.obj
 0001:00035bd8       ?LoadScheme@KUiOptions@@SAXPBD@Z 00436bd8 f   UiOptions.obj
 0001:00035cc1       ?LoadScheme@KUiOptions@@AAEXPAVKIniFile@@@Z 00436cc1 f   UiOptions.obj
 0001:0003635c       ?WndProc@KUiOptions@@EAEHIIH@Z 0043735c f   UiOptions.obj
 0001:0003654a       ?UpdateSettingSet@KUiOptions@@AAEXH_N@Z 0043754a f   UiOptions.obj
 0001:000366d6       ?PopupSeleteSetMenu@KUiOptions@@AAEXHH@Z 004376d6 f   UiOptions.obj
 0001:00036852       ?OnScrollBarPosChanged@KUiOptions@@AAEXPAVKWndWindow@@H@Z 00437852 f   UiOptions.obj
 0001:00036963       ?UpdateAllToggleBtn@KUiOptions@@AAEXXZ 00437963 f   UiOptions.obj
 0001:00036bba       ?UpdateAllStatusImg@KUiOptions@@AAEXXZ 00437bba f   UiOptions.obj
 0001:00036c92       ?LoadSetting@KUiOptions@@SAX_N0@Z 00437c92 f   UiOptions.obj
 0001:0003707f       ?StoreSetting@KUiOptions@@AAEXXZ 0043807f f   UiOptions.obj
 0001:000371bd       ?ToggleOption@KUiOptions@@QAEXH@Z 004381bd f   UiOptions.obj
 0001:0003730c       ?SetMusicValue@KUiOptions@@QAEXH@Z 0043830c f   UiOptions.obj
 0001:0003736d       ?SetSoundValue@KUiOptions@@QAEXH@Z 0043836d f   UiOptions.obj
 0001:000373ce       ?SetBrightness@KUiOptions@@QAEXH@Z 004383ce f   UiOptions.obj
 0001:00037440       ??_EKUiOptions@@EAEPAXI@Z  00438440 f i UiOptions.obj
 0001:00037440       ??_GKUiOptions@@EAEPAXI@Z  00438440 f i UiOptions.obj
 0001:00037480       ??1KUiOptions@@EAE@XZ      00438480 f i UiOptions.obj
 0001:00037610       ?OpenWindow@KUiInit@@SAPAV1@_N0@Z 00438610 f   UiInit.obj
 0001:00037780       ?CloseWindow@KUiInit@@SAXXZ 00438780 f   UiInit.obj
 0001:000377b4       ?PlayTitleMusic@KUiInit@@SAXXZ 004387b4 f   UiInit.obj
 0001:00037980       ?StopTitleMusic@KUiInit@@SAXXZ 00438980 f   UiInit.obj
 0001:000379c9       ?LoadScheme@KUiInit@@AAEXPBD@Z 004389c9 f   UiInit.obj
 0001:00037c6f       ?Initialize@KUiInit@@AAEXXZ 00438c6f f   UiInit.obj
 0001:00037da8       ?WndProc@KUiInit@@EAEHIIH@Z 00438da8 f   UiInit.obj
 0001:00037e3b       ?OnKeyDown@KUiInit@@AAEHI@Z 00438e3b f   UiInit.obj
 0001:00037fbb       ?OnClickButton@KUiInit@@AAEXPAVKWndButton@@@Z 00438fbb f   UiInit.obj
 0001:00038075       ?GetActiveBtn@KUiInit@@AAEPAVKWndButton@@XZ 00439075 f   UiInit.obj
 0001:00038120       ?ShowCompleted@KUiInit@@EAEXXZ 00439120 f   UiInit.obj
 0001:00038150       ??0KUiInit@@AAE@XZ         00439150 f i UiInit.obj
 0001:00038250       ??_GKUiInit@@EAEPAXI@Z     00439250 f i UiInit.obj
 0001:00038250       ??_EKUiInit@@EAEPAXI@Z     00439250 f i UiInit.obj
 0001:00038290       ??1KUiInit@@EAE@XZ         00439290 f i UiInit.obj
 0001:00038390       ??0KUiTeamBuild@@AAE@XZ    00439390 f   UiTeamBuild.obj
 0001:00038443       ?OpenWindow@KUiTeamBuild@@SAPAV1@XZ 00439443 f   UiTeamBuild.obj
 0001:00038519       ?CloseWindow@KUiTeamBuild@@SAX_N@Z 00439519 f   UiTeamBuild.obj
 0001:0003857b       ?Initialize@KUiTeamBuild@@AAEXXZ 0043957b f   UiTeamBuild.obj
 0001:0003865a       ?LoadScheme@KUiTeamBuild@@AAEXPBD@Z 0043965a f   UiTeamBuild.obj
 0001:0003887c       ?OnClickConfirmBtn@KUiTeamBuild@@AAEXXZ 0043987c f   UiTeamBuild.obj
 0001:000388bd       ?OnClickCancelBtn@KUiTeamBuild@@AAEXXZ 004398bd f   UiTeamBuild.obj
 0001:00038905       ?WndProc@KUiTeamBuild@@EAEHIIH@Z 00439905 f   UiTeamBuild.obj
 0001:000389e0       ??_EKUiTeamBuild@@EAEPAXI@Z 004399e0 f i UiTeamBuild.obj
 0001:000389e0       ??_GKUiTeamBuild@@EAEPAXI@Z 004399e0 f i UiTeamBuild.obj
 0001:00038a20       ??1KUiTeamBuild@@EAE@XZ    00439a20 f i UiTeamBuild.obj
 0001:00038ad0       ?GetIfVisible@KUiChaPW@@SAPAV1@XZ 00439ad0 f   UiChaPW.obj
 0001:00038afd       ?OpenWindow@KUiChaPW@@SAPAV1@XZ 00439afd f   UiChaPW.obj
 0001:00038bf2       ?CloseWindow@KUiChaPW@@SAXXZ 00439bf2 f   UiChaPW.obj
 0001:00038c26       ?Initialize@KUiChaPW@@AAEXXZ 00439c26 f   UiChaPW.obj
 0001:00038d4f       ?LoadScheme@KUiChaPW@@SAXPBD@Z 00439d4f f   UiChaPW.obj
 0001:00038fd4       ?WndProc@KUiChaPW@@EAEHIIH@Z 00439fd4 f   UiChaPW.obj
 0001:000391fb       ?OnOk@KUiChaPW@@AAEXXZ     0043a1fb f   UiChaPW.obj
 0001:00039262       ?OnCheckInput@KUiChaPW@@AAEHXZ 0043a262 f   UiChaPW.obj
 0001:000393e0       ??0KUiChaPW@@AAE@XZ        0043a3e0 f i UiChaPW.obj
 0001:000394d0       ??_GKUiChaPW@@EAEPAXI@Z    0043a4d0 f i UiChaPW.obj
 0001:000394d0       ??_EKUiChaPW@@EAEPAXI@Z    0043a4d0 f i UiChaPW.obj
 0001:00039510       ??1KUiChaPW@@EAE@XZ        0043a510 f i UiChaPW.obj
 0001:00039600       ?GetIfVisible@KUiCreatPW@@SAPAV1@XZ 0043a600 f   UiCreatPW.obj
 0001:0003962d       ?OpenWindow@KUiCreatPW@@SAPAV1@XZ 0043a62d f   UiCreatPW.obj
 0001:00039722       ?CloseWindow@KUiCreatPW@@SAXXZ 0043a722 f   UiCreatPW.obj
 0001:00039756       ?Initialize@KUiCreatPW@@AAEXXZ 0043a756 f   UiCreatPW.obj
 0001:00039850       ?LoadScheme@KUiCreatPW@@SAXPBD@Z 0043a850 f   UiCreatPW.obj
 0001:00039a75       ?WndProc@KUiCreatPW@@EAEHIIH@Z 0043aa75 f   UiCreatPW.obj
 0001:00039c0c       ?OnOk@KUiCreatPW@@AAEXXZ   0043ac0c f   UiCreatPW.obj
 0001:00039c6b       ?OnCheckInput@KUiCreatPW@@AAEHXZ 0043ac6b f   UiCreatPW.obj
 0001:00039db0       ??0KUiCreatPW@@AAE@XZ      0043adb0 f i UiCreatPW.obj
 0001:00039e80       ??_EKUiCreatPW@@EAEPAXI@Z  0043ae80 f i UiCreatPW.obj
 0001:00039e80       ??_GKUiCreatPW@@EAEPAXI@Z  0043ae80 f i UiCreatPW.obj
 0001:00039ec0       ??1KUiCreatPW@@EAE@XZ      0043aec0 f i UiCreatPW.obj
 0001:00039f90       ?GetIfVisible@KUiExpandItem@@SAPAV1@XZ 0043af90 f   UiExpandItem.obj
 0001:00039fbd       ?OpenWindow@KUiExpandItem@@SAPAV1@XZ 0043afbd f   UiExpandItem.obj
 0001:0003a0c2       ?CloseWindow@KUiExpandItem@@SAXXZ 0043b0c2 f   UiExpandItem.obj
 0001:0003a0fc       ?Initialize@KUiExpandItem@@AAEXXZ 0043b0fc f   UiExpandItem.obj
 0001:0003a1aa       ?UpdateData@KUiExpandItem@@EAEXXZ 0043b1aa f   UiExpandItem.obj
 0001:0003a2aa       ?UpdateItem@KUiExpandItem@@QAEXPAUKUiObjAtRegion@@H@Z 0043b2aa f   UiExpandItem.obj
 0001:0003a36c       ?LoadScheme@KUiExpandItem@@SAXPBD@Z 0043b36c f   UiExpandItem.obj
 0001:0003a4e4       ?WndProc@KUiExpandItem@@EAEHIIH@Z 0043b4e4 f   UiExpandItem.obj
 0001:0003a57b       ?PaintWindow@KUiExpandItem@@EAEXXZ 0043b57b f   UiExpandItem.obj
 0001:0003a652       ?OnClickItem@KUiExpandItem@@AAEXPAUKUiDraggedObject@@@Z 0043b652 f   UiExpandItem.obj
 0001:0003a6cb       ?OnItemPickDrop@KUiExpandItem@@AAEXPAUITEM_PICKDROP_PLACE@@0@Z 0043b6cb f   UiExpandItem.obj
 0001:0003a810       ??0KUiExpandItem@@AAE@XZ   0043b810 f i UiExpandItem.obj
 0001:0003a890       ??_GKUiExpandItem@@EAEPAXI@Z 0043b890 f i UiExpandItem.obj
 0001:0003a890       ??_EKUiExpandItem@@EAEPAXI@Z 0043b890 f i UiExpandItem.obj
 0001:0003a8d0       ??1KUiExpandItem@@EAE@XZ   0043b8d0 f i UiExpandItem.obj
 0001:0003a950       ??0KUiGetMoney@@AAE@XZ     0043b950 f   UiGetMoney.obj
 0001:0003aa0b       ?OpenWindow@KUiGetMoney@@SAPAV1@HHPAVKWndWindow@@I0@Z 0043ba0b f   UiGetMoney.obj
 0001:0003ab42       ?CloseWindow@KUiGetMoney@@SAX_N@Z 0043bb42 f   UiGetMoney.obj
 0001:0003aba6       ?GetIfVisible@KUiGetMoney@@SAPAV1@XZ 0043bba6 f   UiGetMoney.obj
 0001:0003abd3       ?Show@KUiGetMoney@@AAEXPAVKWndWindow@@@Z 0043bbd3 f   UiGetMoney.obj
 0001:0003acad       ?Hide@KUiGetMoney@@EAEXXZ  0043bcad f   UiGetMoney.obj
 0001:0003acdd       ?Initialize@KUiGetMoney@@AAEHXZ 0043bcdd f   UiGetMoney.obj
 0001:0003adac       ?LoadScheme@KUiGetMoney@@SAXPBD@Z 0043bdac f   UiGetMoney.obj
 0001:0003af71       ?WndProc@KUiGetMoney@@EAEHIIH@Z 0043bf71 f   UiGetMoney.obj
 0001:0003b08d       ?OnOk@KUiGetMoney@@AAEXXZ  0043c08d f   UiGetMoney.obj
 0001:0003b116       ?OnCheckInput@KUiGetMoney@@AAEXXZ 0043c116 f   UiGetMoney.obj
 0001:0003b1d4       ?OnCancel@KUiGetMoney@@AAEXXZ 0043c1d4 f   UiGetMoney.obj
 0001:0003b240       ??_GKUiGetMoney@@EAEPAXI@Z 0043c240 f i UiGetMoney.obj
 0001:0003b240       ??_EKUiGetMoney@@EAEPAXI@Z 0043c240 f i UiGetMoney.obj
 0001:0003b280       ??1KUiGetMoney@@EAE@XZ     0043c280 f i UiGetMoney.obj
 0001:0003b320       ??0KUiGiveBox@@AAE@XZ      0043c320 f   UiGiveBox.obj
 0001:0003b3e5       ?OpenWindow@KUiGiveBox@@SAPAV1@PBD0PAD@Z 0043c3e5 f   UiGiveBox.obj
 0001:0003b57e       ?CloseWindow@KUiGiveBox@@SAX_N@Z 0043c57e f   UiGiveBox.obj
 0001:0003b5e7       ?GetIfVisible@KUiGiveBox@@SAPAV1@XZ 0043c5e7 f   UiGiveBox.obj
 0001:0003b614       ?Initialize@KUiGiveBox@@AAEXXZ 0043c614 f   UiGiveBox.obj
 0001:0003b73e       ?LoadScheme@KUiGiveBox@@SAXPBD@Z 0043c73e f   UiGiveBox.obj
 0001:0003b989       ?WndProc@KUiGiveBox@@EAEHIIH@Z 0043c989 f   UiGiveBox.obj
 0001:0003baaa       ?OnOk@KUiGiveBox@@AAEXXZ   0043caaa f   UiGiveBox.obj
 0001:0003bafa       ?OnCancel@KUiGiveBox@@AAEXXZ 0043cafa f   UiGiveBox.obj
 0001:0003bb71       ?UpdateItem@KUiGiveBox@@QAEXPAUKUiObjAtRegion@@H@Z 0043cb71 f   UiGiveBox.obj
 0001:0003bc3d       ?UpdateData@KUiGiveBox@@UAEXXZ 0043cc3d f   UiGiveBox.obj
 0001:0003bd3d       ?OnItemPickDrop@KUiGiveBox@@QAEXPAUITEM_PICKDROP_PLACE@@0@Z 0043cd3d f   UiGiveBox.obj
 0001:0003be70       ??_GKUiGiveBox@@EAEPAXI@Z  0043ce70 f i UiGiveBox.obj
 0001:0003be70       ??_EKUiGiveBox@@EAEPAXI@Z  0043ce70 f i UiGiveBox.obj
 0001:0003beb0       ??1KUiGiveBox@@EAE@XZ      0043ceb0 f i UiGiveBox.obj
 0001:0003bf80       ?GetIfVisible@KUiItem@@SAPAV1@XZ 0043cf80 f   UiItem.obj
 0001:0003bfad       ?OpenWindow@KUiItem@@SAPAV1@XZ 0043cfad f   UiItem.obj
 0001:0003c0b2       ?CloseWindow@KUiItem@@SAX_N@Z 0043d0b2 f   UiItem.obj
 0001:0003c10b       ?Initialize@KUiItem@@AAEXXZ 0043d10b f   UiItem.obj
 0001:0003c286       ?Breathe@KUiItem@@UAEXXZ   0043d286 f   UiItem.obj
 0001:0003c315       ?OnNpcTradeMode@KUiItem@@SAX_N@Z 0043d315 f   UiItem.obj
 0001:0003c349       ?UpdateData@KUiItem@@EAEXXZ 0043d349 f   UiItem.obj
 0001:0003c4f2       ?UpdateItem@KUiItem@@QAEXPAUKUiObjAtRegion@@H@Z 0043d4f2 f   UiItem.obj
 0001:0003c5b6       ?LoadScheme@KUiItem@@SAXPBD@Z 0043d5b6 f   UiItem.obj
 0001:0003c8ae       ?OnClickItem@KUiItem@@AAEXPAUKUiDraggedObject@@_N@Z 0043d8ae f   UiItem.obj
 0001:0003cb77       ?OnRepairItem@KUiItem@@AAEXPAUKUiDraggedObject@@@Z 0043db77 f   UiItem.obj
 0001:0003cc4d       ?OnBindItem@KUiItem@@AAEXPAUKUiDraggedObject@@@Z 0043dc4d f   UiItem.obj
 0001:0003cd19       ?OnUnBindItem@KUiItem@@AAEXPAUKUiDraggedObject@@@Z 0043dd19 f   UiItem.obj
 0001:0003cde5       ?WndProc@KUiItem@@EAEHIIH@Z 0043dde5 f   UiItem.obj
 0001:0003d0c2       ?OnGetMoney@KUiItem@@AAEXH@Z 0043e0c2 f   UiItem.obj
 0001:0003d113       ?OnClickMarkPriceBtn@KUiItem@@AAEXXZ 0043e113 f   UiItem.obj
 0001:0003d265       ?OnClickMakeAdvBtn@KUiItem@@AAEXXZ 0043e265 f   UiItem.obj
 0001:0003d301       ?OnClickMakeStallBtn@KUiItem@@AAEXXZ 0043e301 f   UiItem.obj
 0001:0003d508       ?OnMarkPriceItem@KUiItem@@AAEXPAUKUiDraggedObject@@@Z 0043e508 f   UiItem.obj
 0001:0003d5d1       ?OnItemPickDrop@KUiItem@@AAEXPAUITEM_PICKDROP_PLACE@@0@Z 0043e5d1 f   UiItem.obj
 0001:0003d7e0       ??0KUiItem@@AAE@XZ         0043e7e0 f i UiItem.obj
 0001:0003d920       ??_GKUiItem@@EAEPAXI@Z     0043e920 f i UiItem.obj
 0001:0003d920       ??_EKUiItem@@EAEPAXI@Z     0043e920 f i UiItem.obj
 0001:0003d960       ??1KUiItem@@EAE@XZ         0043e960 f i UiItem.obj
 0001:0003db76       ??0KUiKeyBoard@@AAE@XZ     0043eb76 f   UiKeyBoard.obj
 0001:0003dc47       ?GetIfVisible@KUiKeyBoard@@SAPAV1@XZ 0043ec47 f   UiKeyBoard.obj
 0001:0003dc74       ?OpenWindow@KUiKeyBoard@@SAPAV1@PAVKWndWindow@@I@Z 0043ec74 f   UiKeyBoard.obj
 0001:0003dd86       ?CloseWindow@KUiKeyBoard@@SAXXZ 0043ed86 f   UiKeyBoard.obj
 0001:0003ddc9       ?Initialize@KUiKeyBoard@@AAEXXZ 0043edc9 f   UiKeyBoard.obj
 0001:0003decf       ?LoadScheme@KUiKeyBoard@@SAXPBD@Z 0043eecf f   UiKeyBoard.obj
 0001:0003e664       ?WndProc@KUiKeyBoard@@EAEHIIH@Z 0043f664 f   UiKeyBoard.obj
 0001:0003ea9d       ?OnOk@KUiKeyBoard@@AAEXXZ  0043fa9d f   UiKeyBoard.obj
 0001:0003eb0d       ?OnCancel@KUiKeyBoard@@AAEXXZ 0043fb0d f   UiKeyBoard.obj
 0001:0003eb6d       ?OnCheckInput@KUiKeyBoard@@AAEXXZ 0043fb6d f   UiKeyBoard.obj
 0001:0003ecd0       ??_GKUiKeyBoard@@UAEPAXI@Z 0043fcd0 f i UiKeyBoard.obj
 0001:0003ecd0       ??_EKUiKeyBoard@@UAEPAXI@Z 0043fcd0 f i UiKeyBoard.obj
 0001:0003ed10       ??1KUiKeyBoard@@UAE@XZ     0043fd10 f i UiKeyBoard.obj
 0001:0003edd0       ?GetIfVisible@KUiLoginPW@@SAPAV1@XZ 0043fdd0 f   UiLoginPW.obj
 0001:0003edfd       ?OpenWindow@KUiLoginPW@@SAPAV1@XZ 0043fdfd f   UiLoginPW.obj
 0001:0003eef2       ?CloseWindow@KUiLoginPW@@SAXXZ 0043fef2 f   UiLoginPW.obj
 0001:0003ef26       ?Initialize@KUiLoginPW@@AAEXXZ 0043ff26 f   UiLoginPW.obj
 0001:0003eff0       ?LoadScheme@KUiLoginPW@@SAXPBD@Z 0043fff0 f   UiLoginPW.obj
 0001:0003f1b5       ?WndProc@KUiLoginPW@@EAEHIIH@Z 004401b5 f   UiLoginPW.obj
 0001:0003f2c2       ?OnOk@KUiLoginPW@@AAEXXZ   004402c2 f   UiLoginPW.obj
 0001:0003f321       ?OnCheckInput@KUiLoginPW@@AAEHXZ 00440321 f   UiLoginPW.obj
 0001:0003f3e0       ??0KUiLoginPW@@AAE@XZ      004403e0 f i UiLoginPW.obj
 0001:0003f490       ??_EKUiLoginPW@@EAEPAXI@Z  00440490 f i UiLoginPW.obj
 0001:0003f490       ??_GKUiLoginPW@@EAEPAXI@Z  00440490 f i UiLoginPW.obj
 0001:0003f4d0       ??1KUiLoginPW@@EAE@XZ      004404d0 f i UiLoginPW.obj
 0001:0003f570       ?OpenWindow@KUiReWard@@SAPAV1@PBD000@Z 00440570 f   UiReWard.obj
 0001:0003f6cf       ?GetIfVisible@KUiReWard@@SAPAV1@XZ 004406cf f   UiReWard.obj
 0001:0003f6fc       ?CloseWindow@KUiReWard@@SAX_N@Z 004406fc f   UiReWard.obj
 0001:0003f750       ?Initialize@KUiReWard@@AAEXXZ 00440750 f   UiReWard.obj
 0001:0003f835       ?LoadScheme@KUiReWard@@AAEXPBD@Z 00440835 f   UiReWard.obj
 0001:0003fda8       ?ShowButton@KUiReWard@@AAEXXZ 00440da8 f   UiReWard.obj
 0001:0004071f       ?WndProc@KUiReWard@@EAEHIIH@Z 0044171f f   UiReWard.obj
 0001:00040870       ??0KUiReWard@@QAE@XZ       00441870 f i UiReWard.obj
 0001:00040930       ??_GKUiReWard@@UAEPAXI@Z   00441930 f i UiReWard.obj
 0001:00040930       ??_EKUiReWard@@UAEPAXI@Z   00441930 f i UiReWard.obj
 0001:00040970       ??1KUiReWard@@UAE@XZ       00441970 f i UiReWard.obj
 0001:00040a20       ??0KUiFightSkillSubPage@@QAE@XZ 00441a20 f   UiSkills.obj
 0001:00040ae2       ?Initialize@KUiFightSkillSubPage@@QAEXXZ 00441ae2 f   UiSkills.obj
 0001:00040b8b       ?LoadScheme@KUiFightSkillSubPage@@QAEXPBD@Z 00441b8b f   UiSkills.obj
 0001:00040ead       ?UpdateRemainPoint@KUiFightSkillSubPage@@QAEXH@Z 00441ead f   UiSkills.obj
 0001:00040fb5       ?UpdateSkill@KUiFightSkillSubPage@@QAEXPAUKUiSkillData@@H@Z 00441fb5 f   UiSkills.obj
 0001:0004106a       ?UpdateData@KUiFightSkillSubPage@@QAEXPAUKUiSkillData@@@Z 0044206a f   UiSkills.obj
 0001:00041206       ?WndProc@KUiFightSkillSubPage@@EAEHIIH@Z 00442206 f   UiSkills.obj
 0001:00041412       ?PaintWindow@KUiFightSkillSubPage@@EAEXXZ 00442412 f   UiSkills.obj
 0001:0004162b       ?Initialize@KUiFightSkillSub@@QAEXXZ 0044262b f   UiSkills.obj
 0001:000416b2       ?LoadScheme@KUiFightSkillSub@@QAEXPBD@Z 004426b2 f   UiSkills.obj
 0001:000418a9       ?UpdateRemainPoint@KUiFightSkillSub@@QAEXH@Z 004428a9 f   UiSkills.obj
 0001:00041906       ?UpdateSkill@KUiFightSkillSub@@QAEXPAUKUiSkillData@@H@Z 00442906 f   UiSkills.obj
 0001:000419dd       ?UpdateData@KUiFightSkillSub@@UAEXXZ 004429dd f   UiSkills.obj
 0001:00041a92       ?Initialize@KUiFightSkill@@QAEXXZ 00442a92 f   UiSkills.obj
 0001:00041adf       ?LoadScheme@KUiFightSkill@@QAEXPBD@Z 00442adf f   UiSkills.obj
 0001:00041c0e       ?UpdateData@KUiFightSkill@@UAEXXZ 00442c0e f   UiSkills.obj
 0001:00041c9e       ?UpdateSkill@KUiFightSkill@@QAEXPAUKUiSkillData@@H@Z 00442c9e f   UiSkills.obj
 0001:00041cd2       ?UpdateRemainPoint@KUiFightSkill@@QAEXH@Z 00442cd2 f   UiSkills.obj
 0001:00041d16       ??0KUiLiveSkill@@QAE@XZ    00442d16 f   UiSkills.obj
 0001:00041db1       ?Initialize@KUiLiveSkill@@QAEXXZ 00442db1 f   UiSkills.obj
 0001:00041e4f       ?LoadScheme@KUiLiveSkill@@QAEXPBD@Z 00442e4f f   UiSkills.obj
 0001:000420de       ?WndProc@KUiLiveSkill@@EAEHIIH@Z 004430de f   UiSkills.obj
 0001:00042185       ?PaintWindow@KUiLiveSkill@@EAEXXZ 00443185 f   UiSkills.obj
 0001:0004233e       ?UpdateBaseData@KUiLiveSkill@@QAEXXZ 0044333e f   UiSkills.obj
 0001:000423aa       ?UpdateSkill@KUiLiveSkill@@QAEXPAUKUiSkillData@@H@Z 004433aa f   UiSkills.obj
 0001:00042408       ?UpdateData@KUiLiveSkill@@UAEXXZ 00443408 f   UiSkills.obj
 0001:000424e9       ?OpenWindow@KUiSkills@@SAPAV1@XZ 004434e9 f   UiSkills.obj
 0001:0004261c       ?GetIfVisible@KUiSkills@@SAPAV1@XZ 0044361c f   UiSkills.obj
 0001:00042649       ?CloseWindow@KUiSkills@@SAX_N@Z 00443649 f   UiSkills.obj
 0001:0004269d       ?Initialize@KUiSkills@@AAEXXZ 0044369d f   UiSkills.obj
 0001:0004278b       ?LoadScheme@KUiSkills@@SAXPBD@Z 0044378b f   UiSkills.obj
 0001:0004294a       ?UpdateSkill@KUiSkills@@SAXPAUKUiSkillData@@H@Z 0044394a f   UiSkills.obj
 0001:00042ab8       ?UpdateFightRemainPoint@KUiSkills@@QAEXH@Z 00443ab8 f   UiSkills.obj
 0001:00042ae8       ?UpdateLiveBaseData@KUiSkills@@QAEXXZ 00443ae8 f   UiSkills.obj
 0001:00042b12       ?WndProc@KUiSkills@@EAEHIIH@Z 00443b12 f   UiSkills.obj
 0001:00042b80       ?MyBreathe@KWndPage@@UAEXXZ 00443b80 f i UiSkills.obj
 0001:00042ba0       ??0KWndPage@@QAE@XZ        00443ba0 f i UiSkills.obj
 0001:00042bd0       ??1KWndPage@@UAE@XZ        00443bd0 f i UiSkills.obj
 0001:00042c00       ??_EKWndPage@@UAEPAXI@Z    00443c00 f i UiSkills.obj
 0001:00042c00       ??_GKWndPage@@UAEPAXI@Z    00443c00 f i UiSkills.obj
 0001:00042c40       ??_EKUiFightSkillSubPage@@UAEPAXI@Z 00443c40 f i UiSkills.obj
 0001:00042c40       ??_GKUiFightSkillSubPage@@UAEPAXI@Z 00443c40 f i UiSkills.obj
 0001:00042c80       ??1KUiFightSkillSubPage@@UAE@XZ 00443c80 f i UiSkills.obj
 0001:00042d10       ??_EKUiLiveSkill@@UAEPAXI@Z 00443d10 f i UiSkills.obj
 0001:00042d10       ??_GKUiLiveSkill@@UAEPAXI@Z 00443d10 f i UiSkills.obj
 0001:00042d50       ??1KUiLiveSkill@@UAE@XZ    00443d50 f i UiSkills.obj
 0001:00042dd0       ??0KUiSkills@@AAE@XZ       00443dd0 f i UiSkills.obj
 0001:00042e90       ??_EKUiSkills@@EAEPAXI@Z   00443e90 f i UiSkills.obj
 0001:00042e90       ??_GKUiSkills@@EAEPAXI@Z   00443e90 f i UiSkills.obj
 0001:00042ed0       ??1KUiSkills@@EAE@XZ       00443ed0 f i UiSkills.obj
 0001:00042f80       ??0KUiFightSkill@@QAE@XZ   00443f80 f i UiSkills.obj
 0001:00043000       ??1KUiFightSkill@@UAE@XZ   00444000 f i UiSkills.obj
 0001:00043080       ??_EKUiFightSkill@@UAEPAXI@Z 00444080 f i UiSkills.obj
 0001:00043080       ??_GKUiFightSkill@@UAEPAXI@Z 00444080 f i UiSkills.obj
 0001:000430c0       ??0KUiFightSkillSub@@QAE@XZ 004440c0 f i UiSkills.obj
 0001:00043160       ??1KUiFightSkillSub@@UAE@XZ 00444160 f i UiSkills.obj
 0001:000431f0       ??_GKUiFightSkillSub@@UAEPAXI@Z 004441f0 f i UiSkills.obj
 0001:000431f0       ??_EKUiFightSkillSub@@UAEPAXI@Z 004441f0 f i UiSkills.obj
 0001:00043230       ??0KUiSkillTree@@AAE@XZ    00444230 f   UiSkillTree.obj
 0001:00043286       ?GetIfVisible@KUiSkillTree@@SAPAV1@XZ 00444286 f   UiSkillTree.obj
 0001:000432b3       ?OpenWindow@KUiSkillTree@@SAPAV1@H@Z 004442b3 f   UiSkillTree.obj
 0001:000433dc       ?CloseWindow@KUiSkillTree@@SAX_N@Z 004443dc f   UiSkillTree.obj
 0001:0004342d       ?Hide@KUiSkillTree@@EAEXXZ 0044442d f   UiSkillTree.obj
 0001:00043456       ?LoadConfig@KUiSkillTree@@SAXPAVKIniFile@@@Z 00444456 f   UiSkillTree.obj
 0001:000437f9       ?SaveConfig@KUiSkillTree@@SAXPAVKIniFile@@@Z 004447f9 f   UiSkillTree.obj
 0001:00043978       ?Initialize@KUiSkillTree@@AAEXXZ 00444978 f   UiSkillTree.obj
 0001:000439e4       ?UpdateWndRect@KUiSkillTree@@AAEXXZ 004449e4 f   UiSkillTree.obj
 0001:00043b13       ?UpdateData@KUiSkillTree@@EAEXXZ 00444b13 f   UiSkillTree.obj
 0001:00043c65       ?PtInWindow@KUiSkillTree@@EAEHHH@Z 00444c65 f   UiSkillTree.obj
 0001:00043cb6       ?GetSkillAtPos@KUiSkillTree@@AAEHFF@Z 00444cb6 f   UiSkillTree.obj
 0001:00043db9       ?LoadScheme@KUiSkillTree@@SAXPBD@Z 00444db9 f   UiSkillTree.obj
 0001:0004402d       ?WndProc@KUiSkillTree@@EAEHIIH@Z 0044502d f   UiSkillTree.obj
 0001:000443b7       ?HandleShortcutKey@KUiSkillTree@@SAXH@Z 004453b7 f   UiSkillTree.obj
 0001:00044567       ?DirectHandleShortcutKey@KUiSkillTree@@SAXH@Z 00445567 f   UiSkillTree.obj
 0001:00044702       ?PaintWindow@KUiSkillTree@@EAEXXZ 00445702 f   UiSkillTree.obj
 0001:000449d0       ??_EKUiSkillTree@@EAEPAXI@Z 004459d0 f i UiSkillTree.obj
 0001:000449d0       ??_GKUiSkillTree@@EAEPAXI@Z 004459d0 f i UiSkillTree.obj
 0001:00044a10       ??1KUiSkillTree@@EAE@XZ    00445a10 f i UiSkillTree.obj
 0001:00044a40       ?GetIfVisible@KUiStoreBox@@SAPAV1@XZ 00445a40 f   UiStoreBox.obj
 0001:00044a6d       ?OpenWindow@KUiStoreBox@@SAPAV1@H@Z 00445a6d f   UiStoreBox.obj
 0001:00044b7e       ?CloseWindow@KUiStoreBox@@SAXXZ 00445b7e f   UiStoreBox.obj
 0001:00044bb2       ?Initialize@KUiStoreBox@@AAEXXZ 00445bb2 f   UiStoreBox.obj
 0001:00044d56       ?UpdateClientData@KUiStoreBox@@SAXXZ 00445d56 f   UiStoreBox.obj
 0001:00044d78       ?UpdateData@KUiStoreBox@@AAEXH@Z 00445d78 f   UiStoreBox.obj
 0001:0004516b       ?UpdateItem@KUiStoreBox@@QAEXHPAUKUiObjAtRegion@@H@Z 0044616b f   UiStoreBox.obj
 0001:0004527d       ?LoadScheme@KUiStoreBox@@SAXPBD@Z 0044627d f   UiStoreBox.obj
 0001:000455a5       ?WndProc@KUiStoreBox@@EAEHIIH@Z 004465a5 f   UiStoreBox.obj
 0001:000459d0       ?OnGetMoney@KUiStoreBox@@AAEXH@Z 004469d0 f   UiStoreBox.obj
 0001:00045a18       ?OnClickItem@KUiStoreBox@@AAEXPAUKUiDraggedObject@@@Z 00446a18 f   UiStoreBox.obj
 0001:00045a91       ?OnItemPickDrop@KUiStoreBox@@AAEXPAUITEM_PICKDROP_PLACE@@0@Z 00446a91 f   UiStoreBox.obj
 0001:00045c9f       ?PaintWindow@KUiStoreBox@@EAEXXZ 00446c9f f   UiStoreBox.obj
 0001:00045d70       ??0KUiStoreBox@@AAE@XZ     00446d70 f i UiStoreBox.obj
 0001:00045e90       ??_GKUiStoreBox@@EAEPAXI@Z 00446e90 f i UiStoreBox.obj
 0001:00045e90       ??_EKUiStoreBox@@EAEPAXI@Z 00446e90 f i UiStoreBox.obj
 0001:00045ed0       ??1KUiStoreBox@@EAE@XZ     00446ed0 f i UiStoreBox.obj
 0001:00045ff0       ?OpenWindow@KUiTimeBox@@SAPAV1@PBDHPADH@Z 00446ff0 f   UiTimeBox.obj
 0001:0004614b       ?Show@KUiTimeBox@@EAEXXZ   0044714b f   UiTimeBox.obj
 0001:0004617b       ?CloseWindow@KUiTimeBox@@SAX_N@Z 0044717b f   UiTimeBox.obj
 0001:000461cf       ?GetIfVisible@KUiTimeBox@@SAPAV1@XZ 004471cf f   UiTimeBox.obj
 0001:000461fc       ?Initialize@KUiTimeBox@@AAEXXZ 004471fc f   UiTimeBox.obj
 0001:000462af       ?LoadScheme@KUiTimeBox@@SAXPBD@Z 004472af f   UiTimeBox.obj
 0001:00046444       ?OnOk@KUiTimeBox@@SAXXZ    00447444 f   UiTimeBox.obj
 0001:00046490       ?WndProc@KUiTimeBox@@EAEHIIH@Z 00447490 f   UiTimeBox.obj
 0001:00046503       ?Breathe@KUiTimeBox@@EAEXXZ 00447503 f   UiTimeBox.obj
 0001:00046600       ??0KUiTimeBox@@AAE@XZ      00447600 f i UiTimeBox.obj
 0001:00046690       ??_EKUiTimeBox@@EAEPAXI@Z  00447690 f i UiTimeBox.obj
 0001:00046690       ??_GKUiTimeBox@@EAEPAXI@Z  00447690 f i UiTimeBox.obj
 0001:000466d0       ??1KUiTimeBox@@EAE@XZ      004476d0 f i UiTimeBox.obj
 0001:00046760       ?OpenWindow@KUiESCDlg@@SAPAV1@XZ 00447760 f   UiESCDlg.obj
 0001:0004684b       ??1KUiESCDlg@@EAE@XZ       0044784b f   UiESCDlg.obj
 0001:00046907       ?CloseWindow@KUiESCDlg@@SAX_N@Z 00447907 f   UiESCDlg.obj
 0001:0004695b       ?GetIfVisible@KUiESCDlg@@SAPAV1@XZ 0044795b f   UiESCDlg.obj
 0001:00046988       ?Show@KUiESCDlg@@EAEXXZ    00447988 f   UiESCDlg.obj
 0001:000469b8       ?Hide@KUiESCDlg@@EAEXXZ    004479b8 f   UiESCDlg.obj
 0001:000469e8       ??0KUiESCDlg@@AAE@XZ       004479e8 f   UiESCDlg.obj
 0001:00046aa8       ?Initialize@KUiESCDlg@@AAEHXZ 00447aa8 f   UiESCDlg.obj
 0001:00046b92       ?LoadScheme@KUiESCDlg@@AAEXPBD@Z 00447b92 f   UiESCDlg.obj
 0001:00046d84       ?WndProc@KUiESCDlg@@EAEHIIH@Z 00447d84 f   UiESCDlg.obj
 0001:00046e0c       ?OnKeyDown@KUiESCDlg@@AAEHI@Z 00447e0c f   UiESCDlg.obj
 0001:0004704e       ?OnClickButton@KUiESCDlg@@AAEXPAVKWndWindow@@@Z 0044804e f   UiESCDlg.obj
 0001:000471e1       ?LixianOut@KUiESCDlg@@SAXXZ 004481e1 f   UiESCDlg.obj
 0001:0004720a       ?Breathe@KUiESCDlg@@EAEXXZ 0044820a f   UiESCDlg.obj
 0001:000472c4       ?GetActiveBtn@KUiESCDlg@@AAEPAVKWndButton@@XZ 004482c4 f   UiESCDlg.obj
 0001:00047390       ??_GKUiESCDlg@@EAEPAXI@Z   00448390 f i UiESCDlg.obj
 0001:00047390       ??_EKUiESCDlg@@EAEPAXI@Z   00448390 f i UiESCDlg.obj
 0001:000473d0       ??0KUiGetNumber@@AAE@XZ    004483d0 f   UiGetNumber.obj
 0001:0004748b       ?OpenWindow@KUiGetNumber@@SAPAV1@PBDHHPAVKWndWindow@@I@Z 0044848b f   UiGetNumber.obj
 0001:000475f2       ?CloseWindow@KUiGetNumber@@SAX_N@Z 004485f2 f   UiGetNumber.obj
 0001:00047656       ?GetIfVisible@KUiGetNumber@@SAPAV1@XZ 00448656 f   UiGetNumber.obj
 0001:00047683       ?Show@KUiGetNumber@@EAEXXZ 00448683 f   UiGetNumber.obj
 0001:00047707       ?Hide@KUiGetNumber@@EAEXXZ 00448707 f   UiGetNumber.obj
 0001:00047741       ?Initialize@KUiGetNumber@@AAEXXZ 00448741 f   UiGetNumber.obj
 0001:0004780b       ?LoadScheme@KUiGetNumber@@SAXPBD@Z 0044880b f   UiGetNumber.obj
 0001:000479d0       ?WndProc@KUiGetNumber@@EAEHIIH@Z 004489d0 f   UiGetNumber.obj
 0001:00047aea       ?OnOk@KUiGetNumber@@AAEXXZ 00448aea f   UiGetNumber.obj
 0001:00047bc5       ?OnCancel@KUiGetNumber@@AAEXXZ 00448bc5 f   UiGetNumber.obj
 0001:00047c2a       ?OnCheckInput@KUiGetNumber@@AAEXXZ 00448c2a f   UiGetNumber.obj
 0001:00047cf0       ??_GKUiGetNumber@@EAEPAXI@Z 00448cf0 f i UiGetNumber.obj
 0001:00047cf0       ??_EKUiGetNumber@@EAEPAXI@Z 00448cf0 f i UiGetNumber.obj
 0001:00047d30       ??1KUiGetNumber@@EAE@XZ    00448d30 f i UiGetNumber.obj
 0001:00047dd0       ??0KUiGetString@@AAE@XZ    00448dd0 f   UiGetString.obj
 0001:00047e7e       ?OpenWindow@KUiGetString@@SAPAV1@PBD0PAVKWndWindow@@IHH@Z 00448e7e f   UiGetString.obj
 0001:00048012       ?CloseWindow@KUiGetString@@SAX_N@Z 00449012 f   UiGetString.obj
 0001:00048076       ?GetIfVisible@KUiGetString@@SAPAV1@XZ 00449076 f   UiGetString.obj
 0001:000480a3       ?Show@KUiGetString@@EAEXXZ 004490a3 f   UiGetString.obj
 0001:00048127       ?Hide@KUiGetString@@EAEXXZ 00449127 f   UiGetString.obj
 0001:00048161       ?Initialize@KUiGetString@@AAEXXZ 00449161 f   UiGetString.obj
 0001:0004822b       ?LoadScheme@KUiGetString@@SAXPBD@Z 0044922b f   UiGetString.obj
 0001:000483f0       ?WndProc@KUiGetString@@EAEHIIH@Z 004493f0 f   UiGetString.obj
 0001:000484e5       ?OnOk@KUiGetString@@AAEXXZ 004494e5 f   UiGetString.obj
 0001:000485ed       ?OnCancel@KUiGetString@@AAEXXZ 004495ed f   UiGetString.obj
 0001:00048660       ??_GKUiGetString@@EAEPAXI@Z 00449660 f i UiGetString.obj
 0001:00048660       ??_EKUiGetString@@EAEPAXI@Z 00449660 f i UiGetString.obj
 0001:000486a0       ??1KUiGetString@@EAE@XZ    004496a0 f i UiGetString.obj
 0001:00048740       ?OpenWindow@KUiMsgSel@@SAPAV1@PAUKUiQuestionAndAnswer@@@Z 00449740 f   UiMsgSel.obj
 0001:0004881e       ?CloseWindow@KUiMsgSel@@SAX_N@Z 0044981e f   UiMsgSel.obj
 0001:0004889a       ?Initialize@KUiMsgSel@@AAEHXZ 0044989a f   UiMsgSel.obj
 0001:00048951       ?LoadScheme@KUiMsgSel@@SAXPBD@Z 00449951 f   UiMsgSel.obj
 0001:00048ab2       ?WndProc@KUiMsgSel@@EAEHIIH@Z 00449ab2 f   UiMsgSel.obj
 0001:00048ccd       ?OnClickMsg@KUiMsgSel@@AAEXH@Z 00449ccd f   UiMsgSel.obj
 0001:00048d2e       ?ChangeCurSel@KUiMsgSel@@AAEX_N@Z 00449d2e f   UiMsgSel.obj
 0001:00048dd6       ?Show@KUiMsgSel@@AAEXPAUKUiQuestionAndAnswer@@@Z 00449dd6 f   UiMsgSel.obj
 0001:00048f58       ?Breathe@KUiMsgSel@@EAEXXZ 00449f58 f   UiMsgSel.obj
 0001:00049000       ??0KUiMsgSel@@AAE@XZ       0044a000 f i UiMsgSel.obj
 0001:00049080       ??_GKUiMsgSel@@EAEPAXI@Z   0044a080 f i UiMsgSel.obj
 0001:00049080       ??_EKUiMsgSel@@EAEPAXI@Z   0044a080 f i UiMsgSel.obj
 0001:000490c0       ??1KUiMsgSel@@EAE@XZ       0044a0c0 f i UiMsgSel.obj
 0001:00049140       ?GetMessageListBox@KScrollMessageListBox@@QAEPAVKWndMessageListBox@@XZ 0044a140 f i UiMsgSel.obj
 0001:00049160       ?GetCurSel@KWndMessageListBox@@QAEHXZ 0044a160 f i UiMsgSel.obj
 0001:00049180       ?GetMsgCount@KWndMessageListBox@@QAEHXZ 0044a180 f i UiMsgSel.obj
 0001:000491a0       ?OpenWindow@KUiMsgSel2@@SAPAV1@PAUKUiQuestionAndAnswer@@@Z 0044a1a0 f   UiMsgSel2.obj
 0001:0004927e       ?CloseWindow@KUiMsgSel2@@SAX_N@Z 0044a27e f   UiMsgSel2.obj
 0001:000492fa       ?Initialize@KUiMsgSel2@@AAEHXZ 0044a2fa f   UiMsgSel2.obj
 0001:000493fe       ?LoadScheme@KUiMsgSel2@@SAXPBD@Z 0044a3fe f   UiMsgSel2.obj
 0001:000495e5       ?WndProc@KUiMsgSel2@@EAEHIIH@Z 0044a5e5 f   UiMsgSel2.obj
 0001:0004983d       ?OnClickMsg@KUiMsgSel2@@AAEXH@Z 0044a83d f   UiMsgSel2.obj
 0001:0004989e       ?ChangeCurSel@KUiMsgSel2@@AAEX_N@Z 0044a89e f   UiMsgSel2.obj
 0001:00049946       ?Show@KUiMsgSel2@@AAEXPAUKUiQuestionAndAnswer@@@Z 0044a946 f   UiMsgSel2.obj
 0001:00049b16       ?Breathe@KUiMsgSel2@@EAEXXZ 0044ab16 f   UiMsgSel2.obj
 0001:00049bff       ?InitImage@KUiMsgSel2@@AAEXPBD@Z 0044abff f   UiMsgSel2.obj
 0001:00049e30       ??0KUiMsgSel2@@AAE@XZ      0044ae30 f i UiMsgSel2.obj
 0001:00049ee0       ??_GKUiMsgSel2@@EAEPAXI@Z  0044aee0 f i UiMsgSel2.obj
 0001:00049ee0       ??_EKUiMsgSel2@@EAEPAXI@Z  0044aee0 f i UiMsgSel2.obj
 0001:00049f20       ??1KUiMsgSel2@@EAE@XZ      0044af20 f i UiMsgSel2.obj
 0001:00049fc0       ?GetIfVisible@KUiParadeItem@@SAPAV1@XZ 0044afc0 f   UiParadeItem.obj
 0001:00049fed       ?OpenWindow@KUiParadeItem@@SAPAV1@PAUKUiPlayerItem@@@Z 0044afed f   UiParadeItem.obj
 0001:0004a0e6       ?Show@KUiParadeItem@@EAEXXZ 0044b0e6 f   UiParadeItem.obj
 0001:0004a114       ?CloseWindow@KUiParadeItem@@SAX_N@Z 0044b114 f   UiParadeItem.obj
 0001:0004a190       ?Initialize@KUiParadeItem@@AAEXXZ 0044b190 f   UiParadeItem.obj
 0001:0004a2ad       ?LoadScheme@KUiParadeItem@@SAXPBD@Z 0044b2ad f   UiParadeItem.obj
 0001:0004a39a       ?LoadScheme@KUiParadeItem@@AAEXPAVKIniFile@@@Z 0044b39a f   UiParadeItem.obj
 0001:0004a44c       ?WndProc@KUiParadeItem@@EAEHIIH@Z 0044b44c f   UiParadeItem.obj
 0001:0004a505       ?ShowPage@KUiParadeItem@@AAEXD@Z 0044b505 f   UiParadeItem.obj
 0001:0004a5f9       ?UpdateData@KUiParadeItem@@QAEXPAUKUiPlayerItem@@@Z 0044b5f9 f   UiParadeItem.obj
 0001:0004a6a2       ?UpdateEquip@KUiParadeItem@@AAEXPAUKUiObjAtRegion@@H@Z 0044b6a2 f   UiParadeItem.obj
 0001:0004a6dc       ??0KUiParadeItemAttrib@@QAE@XZ 0044b6dc f   UiParadeItem.obj
 0001:0004a975       ?Initialize@KUiParadeItemAttrib@@QAEXXZ 0044b975 f   UiParadeItem.obj
 0001:0004acd9       ?LoadScheme@KUiParadeItemAttrib@@AAEXPBD@Z 0044bcd9 f   UiParadeItem.obj
 0001:0004b3db       ?UpdateBaseData@KUiParadeItemAttrib@@QAEXPAUKUiPlayerItem@@@Z 0044c3db f   UiParadeItem.obj
 0001:0004b863       ?UpdateRuntimeInfo@KUiParadeItemAttrib@@QAEXPAUKUiPlayerItem@@@Z 0044c863 f   UiParadeItem.obj
 0001:0004b929       ?UpdateRuntimeAttribute@KUiParadeItemAttrib@@QAEXPAUKUiPlayerItem@@@Z 0044c929 f   UiParadeItem.obj
 0001:0004bbbb       ??0KUiParadeItemEquip@@QAE@XZ 0044cbbb f   UiParadeItem.obj
 0001:0004bca3       ?Initialize@KUiParadeItemEquip@@QAEXXZ 0044cca3 f   UiParadeItem.obj
 0001:0004bdaa       ?Show@KUiParadeItemEquip@@QAEXPAUKUiPlayerItem@@@Z 0044cdaa f   UiParadeItem.obj
 0001:0004be19       ?LoadScheme@KUiParadeItemEquip@@AAEXPBDPAUKUiPlayerItem@@@Z 0044ce19 f   UiParadeItem.obj
 0001:0004c105       ?UpdateBaseData@KUiParadeItemEquip@@QAEXPAUKUiPlayerItem@@@Z 0044d105 f   UiParadeItem.obj
 0001:0004c1f5       ?UpdateRuntimeAttribute@KUiParadeItemEquip@@QAEXPAUKUiPlayerItem@@@Z 0044d1f5 f   UiParadeItem.obj
 0001:0004c288       ?UpdateAllEquips@KUiParadeItemEquip@@QAEXPAUKUiPlayerItem@@@Z 0044d288 f   UiParadeItem.obj
 0001:0004c373       ?UpdateEquip@KUiParadeItemEquip@@QAEXPAUKUiObjAtRegion@@H@Z 0044d373 f   UiParadeItem.obj
 0001:0004c430       ??0KUiParadeItem@@AAE@XZ   0044d430 f i UiParadeItem.obj
 0001:0004c4f0       ??_GKUiParadeItem@@EAEPAXI@Z 0044d4f0 f i UiParadeItem.obj
 0001:0004c4f0       ??_EKUiParadeItem@@EAEPAXI@Z 0044d4f0 f i UiParadeItem.obj
 0001:0004c530       ??1KUiParadeItem@@EAE@XZ   0044d530 f i UiParadeItem.obj
 0001:0004c5e0       ??1KUiParadeItemAttrib@@UAE@XZ 0044d5e0 f i UiParadeItem.obj
 0001:0004c870       ??1KUiParadeItemEquip@@UAE@XZ 0044d870 f i UiParadeItem.obj
 0001:0004c950       ??_EKUiParadeItemAttrib@@UAEPAXI@Z 0044d950 f i UiParadeItem.obj
 0001:0004c950       ??_GKUiParadeItemAttrib@@UAEPAXI@Z 0044d950 f i UiParadeItem.obj
 0001:0004c990       ??_GKUiParadeItemEquip@@UAEPAXI@Z 0044d990 f i UiParadeItem.obj
 0001:0004c990       ??_EKUiParadeItemEquip@@UAEPAXI@Z 0044d990 f i UiParadeItem.obj
 0001:0004c9d0       ?OpenWindow@KUiSelPlayerNearby@@SAPAV1@XZ 0044d9d0 f   UiSelPlayerNearby.obj
 0001:0004cad5       ??0KUiSelPlayerNearby@@AAE@XZ 0044dad5 f   UiSelPlayerNearby.obj
 0001:0004cbd2       ?DoesHaveVisibleWnd@KUiSelPlayerNearby@@SAHXZ 0044dbd2 f   UiSelPlayerNearby.obj
 0001:0004cbff       ?Initialize@KUiSelPlayerNearby@@AAEXXZ 0044dbff f   UiSelPlayerNearby.obj
 0001:0004cd8f       ?LoadActionList@KUiSelPlayerNearby@@AAEXPAVKIniFile@@@Z 0044dd8f f   UiSelPlayerNearby.obj
 0001:0004cf91       ?CloseWindow@KUiSelPlayerNearby@@SAX_N@Z 0044df91 f   UiSelPlayerNearby.obj
 0001:0004cff0       ?LoadScheme@KUiSelPlayerNearby@@SAXPBD@Z 0044dff0 f   UiSelPlayerNearby.obj
 0001:0004d0dd       ?LoadScheme@KUiSelPlayerNearby@@AAEXPAVKIniFile@@@Z 0044e0dd f   UiSelPlayerNearby.obj
 0001:0004d278       ?WndProc@KUiSelPlayerNearby@@EAEHIIH@Z 0044e278 f   UiSelPlayerNearby.obj
 0001:0004d425       ?OnClickXButton@KUiSelPlayerNearby@@AAEXH@Z 0044e425 f   UiSelPlayerNearby.obj
 0001:0004d5bf       ?UpdateData@KUiSelPlayerNearby@@EAEXXZ 0044e5bf f   UiSelPlayerNearby.obj
 0001:0004d6ee       ?Clear@KUiSelPlayerNearby@@AAEXXZ 0044e6ee f   UiSelPlayerNearby.obj
 0001:0004d770       ??_EKUiSelPlayerNearby@@EAEPAXI@Z 0044e770 f i UiSelPlayerNearby.obj
 0001:0004d770       ??_GKUiSelPlayerNearby@@EAEPAXI@Z 0044e770 f i UiSelPlayerNearby.obj
 0001:0004d7b0       ??1KUiSelPlayerNearby@@EAE@XZ 0044e7b0 f i UiSelPlayerNearby.obj
 0001:0004d880       ?PROP_GetTitleString@@YAPBDW4OBJ_ATTRIBYTE_TYPE@@@Z 0044e880 f   UiNewPlayer.obj
 0001:0004d8d3       ??0KUiNewPlayer@@AAE@XZ    0044e8d3 f   UiNewPlayer.obj
 0001:0004daa9       ?OpenWindow@KUiNewPlayer@@SAPAV1@H@Z 0044eaa9 f   UiNewPlayer.obj
 0001:0004dbba       ??1KUiNewPlayer@@EAE@XZ    0044ebba f   UiNewPlayer.obj
 0001:0004dd22       ?CloseWindow@KUiNewPlayer@@SAX_N@Z 0044ed22 f   UiNewPlayer.obj
 0001:0004dd89       ?Initialize@KUiNewPlayer@@AAEXXZ 0044ed89 f   UiNewPlayer.obj
 0001:0004e145       ?SelGender@KUiNewPlayer@@AAEXXZ 0044f145 f   UiNewPlayer.obj
 0001:0004e335       ?LoadScheme@KUiNewPlayer@@AAEXPBD@Z 0044f335 f   UiNewPlayer.obj
 0001:0004e73d       ?WndProc@KUiNewPlayer@@EAEHIIH@Z 0044f73d f   UiNewPlayer.obj
 0001:0004e7e2       ?OnClickButton@KUiNewPlayer@@AAEXPAVKWndWindow@@@Z 0044f7e2 f   UiNewPlayer.obj
 0001:0004e8f5       ?UpdateProperty@KUiNewPlayer@@AAEXXZ 0044f8f5 f   UiNewPlayer.obj
 0001:0004eacb       ?OnOk@KUiNewPlayer@@AAEXXZ 0044facb f   UiNewPlayer.obj
 0001:0004eb29       ?OnCancel@KUiNewPlayer@@AAEXXZ 0044fb29 f   UiNewPlayer.obj
 0001:0004eb64       ?GetInputInfo@KUiNewPlayer@@AAEHXZ 0044fb64 f   UiNewPlayer.obj
 0001:0004eca4       ?Breathe@KUiNewPlayer@@EAEXXZ 0044fca4 f   UiNewPlayer.obj
 0001:0004edf0       ??_EKUiNewPlayer@@EAEPAXI@Z 0044fdf0 f i UiNewPlayer.obj
 0001:0004edf0       ??_GKUiNewPlayer@@EAEPAXI@Z 0044fdf0 f i UiNewPlayer.obj
 0001:0004ee30       ??0KUiSelNativePlace@@AAE@XZ 0044fe30 f   UiSelNativePlace.obj
 0001:0004ef07       ??1KUiSelNativePlace@@EAE@XZ 0044ff07 f   UiSelNativePlace.obj
 0001:0004f008       ?OpenWindow@KUiSelNativePlace@@SAPAV1@H@Z 00450008 f   UiSelNativePlace.obj
 0001:0004f123       ?CloseWindow@KUiSelNativePlace@@SAX_N@Z 00450123 f   UiSelNativePlace.obj
 0001:0004f177       ?Initialize@KUiSelNativePlace@@AAEXXZ 00450177 f   UiSelNativePlace.obj
 0001:0004f25c       ?LoadList@KUiSelNativePlace@@AAEXH@Z 0045025c f   UiSelNativePlace.obj
 0001:0004f80b       ?LoadScheme@KUiSelNativePlace@@AAEXPBD@Z 0045080b f   UiSelNativePlace.obj
 0001:0004fa21       ?WndProc@KUiSelNativePlace@@EAEHIIH@Z 00450a21 f   UiSelNativePlace.obj
 0001:0004fc3e       ?OnOk@KUiSelNativePlace@@AAEXXZ 00450c3e f   UiSelNativePlace.obj
 0001:0004fcb5       ?OnCancel@KUiSelNativePlace@@AAEXXZ 00450cb5 f   UiSelNativePlace.obj
 0001:0004fce0       ?UpdateData@KUiSelNativePlace@@EAEXXZ 00450ce0 f   UiSelNativePlace.obj
 0001:0004fd90       ??_GKUiSelNativePlace@@EAEPAXI@Z 00450d90 f i UiSelNativePlace.obj
 0001:0004fd90       ??_EKUiSelNativePlace@@EAEPAXI@Z 00450d90 f i UiSelNativePlace.obj
 0001:0004fdd0       ??0KUiSelPlayer@@AAE@XZ    00450dd0 f   UiSelPlayer.obj
 0001:0004ff8e       ?OpenWindow@KUiSelPlayer@@SAPAV1@XZ 00450f8e f   UiSelPlayer.obj
 0001:0005009d       ?CloseWindow@KUiSelPlayer@@SAXXZ 0045109d f   UiSelPlayer.obj
 0001:000500d6       ?Hide@KUiSelPlayer@@EAEXXZ 004510d6 f   UiSelPlayer.obj
 0001:00050109       ?Initialize@KUiSelPlayer@@AAEXXZ 00451109 f   UiSelPlayer.obj
 0001:000501e8       ?LoadScheme@KUiSelPlayer@@AAEXPBD@Z 004511e8 f   UiSelPlayer.obj
 0001:00050775       ?PaintWindow@KUiSelPlayer@@EAEXXZ 00451775 f   UiSelPlayer.obj
 0001:00050915       ?UpdateData@KUiSelPlayer@@EAEXXZ 00451915 f   UiSelPlayer.obj
 0001:000519e6       ?GetRoleImageName@KUiSelPlayer@@SAXPADPBDEEH@Z 004529e6 f   UiSelPlayer.obj
 0001:00051aab       ?WndProc@KUiSelPlayer@@EAEHIIH@Z 00452aab f   UiSelPlayer.obj
 0001:00051b4e       ?OnKeyDown@KUiSelPlayer@@AAEHI@Z 00452b4e f   UiSelPlayer.obj
 0001:00051e6e       ?OnSelectPlayer@KUiSelPlayer@@AAEXH_N@Z 00452e6e f   UiSelPlayer.obj
 0001:00052096       ?OnClickButton@KUiSelPlayer@@AAEXPAVKWndButton@@_N@Z 00453096 f   UiSelPlayer.obj
 0001:00052185       ?OnEnterGame@KUiSelPlayer@@AAEXXZ 00453185 f   UiSelPlayer.obj
 0001:000521ec       ?OnNew@KUiSelPlayer@@AAEXXZ 004531ec f   UiSelPlayer.obj
 0001:00052244       ?OnDel@KUiSelPlayer@@AAEXXZ 00453244 f   UiSelPlayer.obj
 0001:0005229e       ?OnCancel@KUiSelPlayer@@AAEXXZ 0045329e f   UiSelPlayer.obj
 0001:000522df       ?GetActiveBtn@KUiSelPlayer@@AAEPAVKWndButton@@XZ 004532df f   UiSelPlayer.obj
 0001:00052390       ??_GKUiSelPlayer@@EAEPAXI@Z 00453390 f i UiSelPlayer.obj
 0001:00052390       ??_EKUiSelPlayer@@EAEPAXI@Z 00453390 f i UiSelPlayer.obj
 0001:000523d0       ??1KUiSelPlayer@@EAE@XZ    004533d0 f i UiSelPlayer.obj
 0001:00052510       ?GetAccountLifeTime@KLogin@@QAEKXZ 00453510 f i UiSelPlayer.obj
 0001:00052530       ??0KUiChannelSubscibe@@QAE@XZ 00453530 f   UiChannelSubscibe.obj
 0001:00052545       ??1KUiChannelSubscibe@@QAE@XZ 00453545 f   UiChannelSubscibe.obj
 0001:00052587       ?CreateUnit@ServerNotify@@UAEHPBD@Z 00453587 f   UiChatCentre.obj
 0001:000525bf       ?RenameUnitGroup@ServerNotify@@UAEHPBD00ABV?$list@V?$basic_string@DU?$char_traits@D@std@@V?$allocator@D@2@@std@@V?$allocator@V?$basic_string@DU?$char_traits@D@std@@V?$allocator@D@2@@std@@@2@@std@@@Z 004535bf f   UiChatCentre.obj
 0001:00052697       ?DeleteUnitGroup@ServerNotify@@UAEHPBD0ABV?$list@V?$basic_string@DU?$char_traits@D@std@@V?$allocator@D@2@@std@@V?$allocator@V?$basic_string@DU?$char_traits@D@std@@V?$allocator@D@2@@std@@@2@@std@@@Z 00453697 f   UiChatCentre.obj
 0001:0005275d       ?MoveUnitGroup@ServerNotify@@UAEHPBD00ABV?$list@V?$basic_string@DU?$char_traits@D@std@@V?$allocator@D@2@@std@@V?$allocator@V?$basic_string@DU?$char_traits@D@std@@V?$allocator@D@2@@std@@@2@@std@@@Z 0045375d f   UiChatCentre.obj
 0001:00052835       ?DeleteUnitMember@ServerNotify@@UAEHPBD0@Z 00453835 f   UiChatCentre.obj
 0001:00052875       ?MoveUnitMember@ServerNotify@@UAEHPBD00@Z 00453875 f   UiChatCentre.obj
 0001:0005299a       ?SendSyncData@ServerNotify@@QAEXPBD@Z 0045399a f   UiChatCentre.obj
 0001:00052a84       ?SendNotifyGroupFriend@ServerNotify@@QAEXPBDABV?$basic_string@DU?$char_traits@D@std@@V?$allocator@D@2@@std@@ABV?$list@V?$basic_string@DU?$char_traits@D@std@@V?$allocator@D@2@@std@@V?$allocator@V?$basic_string@DU?$char_traits@D@std@@V?$allocator@D@2@@std@@@2@@3@@Z 00453a84 f   UiChatCentre.obj
 0001:00052db5       ?SendNotifyDeleteFriend@ServerNotify@@QAEXPBD0@Z 00453db5 f   UiChatCentre.obj
 0001:00052ea2       ??0KUiChatCentre@@AAE@XZ   00453ea2 f   UiChatCentre.obj
 0001:000532c7       ?GetIfVisible@KUiChatCentre@@SAPAV1@XZ 004542c7 f   UiChatCentre.obj
 0001:000532f4       ?OpenWindow@KUiChatCentre@@SAPAV1@_N@Z 004542f4 f   UiChatCentre.obj
 0001:0005341e       ?Initialize@KUiChatCentre@@AAEXXZ 0045441e f   UiChatCentre.obj
 0001:000535cb       ?CloseWindow@KUiChatCentre@@SAX_N@Z 004545cb f   UiChatCentre.obj
 0001:0005362a       ?LoadScheme@KUiChatCentre@@SAXPBD@Z 0045462a f   UiChatCentre.obj
 0001:00053712       ?LoadScheme@KUiChatCentre@@AAEXPAVKIniFile@@@Z 00454712 f   UiChatCentre.obj
 0001:00053c8a       ?CreateSeverUnit@KUiChatCentre@@SAXXZ 00454c8a f   UiChatCentre.obj
 0001:00053d7c       ?LoadPrivateSetting@KUiChatCentre@@SAHPAVKIniFile@@@Z 00454d7c f   UiChatCentre.obj
 0001:00053ec9       ?SavePrivateSetting@KUiChatCentre@@SAHPAVKIniFile@@@Z 00454ec9 f   UiChatCentre.obj
 0001:00054013       ?WndProc@KUiChatCentre@@EAEHIIH@Z 00455013 f   UiChatCentre.obj
 0001:00054318       ?OnMoveFriendToGroup@KUiChatCentre@@AAEXHH@Z 00455318 f   UiChatCentre.obj
 0001:00054419       ?OnSelGroupMenu@KUiChatCentre@@AAEXHH@Z 00455419 f   UiChatCentre.obj
 0001:0005454f       ?DragWndSize@KUiChatCentre@@AAEXH@Z 0045554f f   UiChatCentre.obj
 0001:000546f1       ?OnSelFriendMenu@KUiChatCentre@@AAEXHH@Z 004556f1 f   UiChatCentre.obj
 0001:000547ae       ?OnClickGroupBtn@KUiChatCentre@@AAE_NPAVKWndWindow@@_N@Z 004557ae f   UiChatCentre.obj
 0001:00054873       ?SendFriendMsg@KUiChatCentre@@AAEXH_N@Z 00455873 f   UiChatCentre.obj
 0001:000548d1       ?UpdateData@KUiChatCentre@@SAXW4UICHATCENTRE_UPDATE@@IH@Z 004558d1 f   UiChatCentre.obj
 0001:0005498a       ?IsMyFriend@KUiChatCentre@@SA_NPAD@Z 0045598a f   UiChatCentre.obj
 0001:00054aca       ?AddFriendInfo@KUiChatCentre@@SA_NHPAD0@Z 00455aca f   UiChatCentre.obj
 0001:00054fb6       ?FriendStatus@KUiChatCentre@@SA_NHPADE@Z 00455fb6 f   UiChatCentre.obj
 0001:0005524a       ?NewGroup@KUiChatCentre@@SAXHPBD@Z 0045624a f   UiChatCentre.obj
 0001:000554e1       ?ReplaceGroupName@KUiChatCentre@@SAXHPBD0@Z 004564e1 f   UiChatCentre.obj
 0001:00055919       ?MoveFriendToGroup@KUiChatCentre@@SAXHPBD0@Z 00456919 f   UiChatCentre.obj
 0001:00055c1b       ?MoveGroupToGroup@KUiChatCentre@@SAXHPBD0_N@Z 00456c1b f   UiChatCentre.obj
 0001:0005608c       ?FindUnitIndex@KUiChatCentre@@SAHPBD@Z 0045708c f   UiChatCentre.obj
 0001:00056124       ?FindUnitIndexByRoleNameAtServerUnit@KUiChatCentre@@SAHPAD@Z 00457124 f   UiChatCentre.obj
 0001:0005627a       ?FindAddinUnitIndex@KUiChatCentre@@SAHPBD@Z 0045727a f   UiChatCentre.obj
 0001:0005632e       ?AddAddinUnit@KUiChatCentre@@SAHPBDPAUFriendNotify@@@Z 0045732e f   UiChatCentre.obj
 0001:00056449       ?RemoveAddinUnit@KUiChatCentre@@SAHPBD@Z 00457449 f   UiChatCentre.obj
 0001:000565f1       ?DeleteFriend@KUiChatCentre@@SAXHPAD_N@Z 004575f1 f   UiChatCentre.obj
 0001:00056842       ?OnClickButton@KUiChatCentre@@AAEXPAVKWndWindow@@@Z 00457842 f   UiChatCentre.obj
 0001:0005693d       ?OnSelUnit@KUiChatCentre@@AAEXH@Z 0045793d f   UiChatCentre.obj
 0001:000569a2       ?OnScrollList@KUiChatCentre@@AAEX_N@Z 004579a2 f   UiChatCentre.obj
 0001:00056a14       ?CancelMenu@KUiChatCentre@@AAEXXZ 00457a14 f   UiChatCentre.obj
 0001:00056a85       ?PopupupGroupMenu@KUiChatCentre@@AAEXH@Z 00457a85 f   UiChatCentre.obj
 0001:00056b21       ?PopupFriendMenu@KUiChatCentre@@AAEXH@Z 00457b21 f   UiChatCentre.obj
 0001:00056bd0       ?PopupSelGroupMenu@KUiChatCentre@@AAEXH@Z 00457bd0 f   UiChatCentre.obj
 0001:00056da7       ?PopupSelUnitMenu@KUiChatCentre@@AAEXXZ 00457da7 f   UiChatCentre.obj
 0001:00056efd       ?ClearInterface@KUiChatCentre@@AAEXXZ 00457efd f   UiChatCentre.obj
 0001:00056f80       ?ClearFriendList@KUiChatCentre@@AAEXXZ 00457f80 f   UiChatCentre.obj
 0001:00056ff6       ?ClearUnitData@KUiChatCentre@@AAEXH@Z 00457ff6 f   UiChatCentre.obj
 0001:000570d4       ?UpdateAll@KUiChatCentre@@AAEXH@Z 004580d4 f   UiChatCentre.obj
 0001:0005735b       ?UpdateGroup@KUiChatCentre@@AAEXH@Z 0045835b f   UiChatCentre.obj
 0001:0005797b       ?UpdateFriend@KUiChatCentre@@AAEXPAUKUiPlayerItem@@H@Z 0045897b f   UiChatCentre.obj
 0001:000579d4       ?FindGroupIndex@FriendUnit@KUiChatCentre@@QAEHABV?$basic_string@DU?$char_traits@D@std@@V?$allocator@D@2@@std@@@Z 004589d4 f   UiChatCentre.obj
 0001:00057a95       ?UpdateInterface@KUiChatCentre@@AAEXXZ 00458a95 f   UiChatCentre.obj
 0001:000580ec       ?PaintWindow@KUiChatCentre@@EAEXXZ 004590ec f   UiChatCentre.obj
 0001:000581b1       ?AdjustSize@KUiChatCentre@@AAEXH@Z 004591b1 f   UiChatCentre.obj
 0001:0005835d       ?PtInWindow@KUiChatCentre@@EAEHHH@Z 0045935d f   UiChatCentre.obj
 0001:00058470       ??0ServerNotify@@QAE@XZ    00459470 f i UiChatCentre.obj
 0001:000584a0       ??0AddinNotify@@QAE@XZ     004594a0 f i UiChatCentre.obj
 0001:000584d0       ??0FriendNotify@@QAE@XZ    004594d0 f i UiChatCentre.obj
 0001:000584f0       ??_GKUiChatCentre@@EAEPAXI@Z 004594f0 f i UiChatCentre.obj
 0001:000584f0       ??_EKUiChatCentre@@EAEPAXI@Z 004594f0 f i UiChatCentre.obj
 0001:00058530       ??1KUiChatCentre@@EAE@XZ   00459530 f i UiChatCentre.obj
 0001:00058680       ??1FriendUnit@KUiChatCentre@@QAE@XZ 00459680 f i UiChatCentre.obj
 0001:00058710       ??1?$map@V?$basic_string@DU?$char_traits@D@std@@V?$allocator@D@2@@std@@V12@U?$less@V?$basic_string@DU?$char_traits@D@std@@V?$allocator@D@2@@std@@@2@V?$allocator@V?$basic_string@DU?$char_traits@D@std@@V?$allocator@D@2@@std@@@2@@std@@QAE@XZ 00459710 f i UiChatCentre.obj
 0001:00058740       ??1?$map@V?$basic_string@DU?$char_traits@D@std@@V?$allocator@D@2@@std@@EU?$less@V?$basic_string@DU?$char_traits@D@std@@V?$allocator@D@2@@std@@@2@V?$allocator@E@2@@std@@QAE@XZ 00459740 f i UiChatCentre.obj
 0001:00058770       ??1GROUPINFO@KUiChatCentre@@QAE@XZ 00459770 f i UiChatCentre.obj
 0001:000587a0       ??0FriendUnit@KUiChatCentre@@QAE@XZ 004597a0 f i UiChatCentre.obj
 0001:00058860       ??0GROUPINFO@KUiChatCentre@@QAE@XZ 00459860 f i UiChatCentre.obj
 0001:000588a0       ??4GROUPINFO@KUiChatCentre@@QAEAAU01@ABU01@@Z 004598a0 f i UiChatCentre.obj
 0001:000588f0       ??4FriendUnit@KUiChatCentre@@QAEAAU01@ABU01@@Z 004598f0 f i UiChatCentre.obj
 0001:000589c0       ??0?$map@V?$basic_string@DU?$char_traits@D@std@@V?$allocator@D@2@@std@@V12@U?$less@V?$basic_string@DU?$char_traits@D@std@@V?$allocator@D@2@@std@@@2@V?$allocator@V?$basic_string@DU?$char_traits@D@std@@V?$allocator@D@2@@std@@@2@@std@@QAE@ABU?$less@V?$basic_string@DU?$char_traits@D@std@@V?$allocator@D@2@@std@@@1@ABV?$allocator@V?$basic_string@DU?$char_traits@D@std@@V?$allocator@D@2@@std@@@1@@Z 004599c0 f i UiChatCentre.obj
 0001:00058a00       ??4?$map@V?$basic_string@DU?$char_traits@D@std@@V?$allocator@D@2@@std@@V12@U?$less@V?$basic_string@DU?$char_traits@D@std@@V?$allocator@D@2@@std@@@2@V?$allocator@V?$basic_string@DU?$char_traits@D@std@@V?$allocator@D@2@@std@@@2@@std@@QAEAAV01@ABV01@@Z 00459a00 f i UiChatCentre.obj
 0001:00058a30       ?begin@?$map@V?$basic_string@DU?$char_traits@D@std@@V?$allocator@D@2@@std@@V12@U?$less@V?$basic_string@DU?$char_traits@D@std@@V?$allocator@D@2@@std@@@2@V?$allocator@V?$basic_string@DU?$char_traits@D@std@@V?$allocator@D@2@@std@@@2@@std@@QAE?AViterator@?$_Tree@V?$basic_string@DU?$char_traits@D@std@@V?$allocator@D@2@@std@@U?$pair@$$CBV?$basic_string@DU?$char_traits@D@std@@V?$allocator@D@2@@std@@V12@@2@U_Kfn@?$map@V?$basic_string@DU?$char_traits@D@std@@V?$allocator@D@2@@std@@V12@U?$less@V?$basic_string@DU?$char_traits@D@std@@V?$allocator@D@2@@std@@@2@V?$allocator@V?$basic_string@DU?$char_traits@D@std@@V?$allocator@D@2@@std@@@2@@2@U?$less@V?$basic_string@DU?$char_traits@D@std@@V?$allocator@D@2@@std@@@2@V?$allocator@V?$basic_string@DU?$char_traits@D@std@@V?$allocator@D@2@@std@@@2@@2@XZ 00459a30 f i UiChatCentre.obj
 0001:00058a70       ?end@?$map@V?$basic_string@DU?$char_traits@D@std@@V?$allocator@D@2@@std@@V12@U?$less@V?$basic_string@DU?$char_traits@D@std@@V?$allocator@D@2@@std@@@2@V?$allocator@V?$basic_string@DU?$char_traits@D@std@@V?$allocator@D@2@@std@@@2@@std@@QAE?AViterator@?$_Tree@V?$basic_string@DU?$char_traits@D@std@@V?$allocator@D@2@@std@@U?$pair@$$CBV?$basic_string@DU?$char_traits@D@std@@V?$allocator@D@2@@std@@V12@@2@U_Kfn@?$map@V?$basic_string@DU?$char_traits@D@std@@V?$allocator@D@2@@std@@V12@U?$less@V?$basic_string@DU?$char_traits@D@std@@V?$allocator@D@2@@std@@@2@V?$allocator@V?$basic_string@DU?$char_traits@D@std@@V?$allocator@D@2@@std@@@2@@2@U?$less@V?$basic_string@DU?$char_traits@D@std@@V?$allocator@D@2@@std@@@2@V?$allocator@V?$basic_string@DU?$char_traits@D@std@@V?$allocator@D@2@@std@@@2@@2@XZ 00459a70 f i UiChatCentre.obj
 0001:00058ab0       ??A?$map@V?$basic_string@DU?$char_traits@D@std@@V?$allocator@D@2@@std@@V12@U?$less@V?$basic_string@DU?$char_traits@D@std@@V?$allocator@D@2@@std@@@2@V?$allocator@V?$basic_string@DU?$char_traits@D@std@@V?$allocator@D@2@@std@@@2@@std@@QAEAAV?$basic_string@DU?$char_traits@D@std@@V?$allocator@D@2@@1@ABV21@@Z 00459ab0 f i UiChatCentre.obj
 0001:00058b90       ?erase@?$map@V?$basic_string@DU?$char_traits@D@std@@V?$allocator@D@2@@std@@V12@U?$less@V?$basic_string@DU?$char_traits@D@std@@V?$allocator@D@2@@std@@@2@V?$allocator@V?$basic_string@DU?$char_traits@D@std@@V?$allocator@D@2@@std@@@2@@std@@QAE?AViterator@?$_Tree@V?$basic_string@DU?$char_traits@D@std@@V?$allocator@D@2@@std@@U?$pair@$$CBV?$basic_string@DU?$char_traits@D@std@@V?$allocator@D@2@@std@@V12@@2@U_Kfn@?$map@V?$basic_string@DU?$char_traits@D@std@@V?$allocator@D@2@@std@@V12@U?$less@V?$basic_string@DU?$char_traits@D@std@@V?$allocator@D@2@@std@@@2@V?$allocator@V?$basic_string@DU?$char_traits@D@std@@V?$allocator@D@2@@std@@@2@@2@U?$less@V?$basic_string@DU?$char_traits@D@std@@V?$allocator@D@2@@std@@@2@V?$allocator@V?$basic_string@DU?$char_traits@D@std@@V?$allocator@D@2@@std@@@2@@2@V342@@Z 00459b90 f i UiChatCentre.obj
 0001:00058be0       ?clear@?$map@V?$basic_string@DU?$char_traits@D@std@@V?$allocator@D@2@@std@@V12@U?$less@V?$basic_string@DU?$char_traits@D@std@@V?$allocator@D@2@@std@@@2@V?$allocator@V?$basic_string@DU?$char_traits@D@std@@V?$allocator@D@2@@std@@@2@@std@@QAEXXZ 00459be0 f i UiChatCentre.obj
 0001:00058c10       ?find@?$map@V?$basic_string@DU?$char_traits@D@std@@V?$allocator@D@2@@std@@V12@U?$less@V?$basic_string@DU?$char_traits@D@std@@V?$allocator@D@2@@std@@@2@V?$allocator@V?$basic_string@DU?$char_traits@D@std@@V?$allocator@D@2@@std@@@2@@std@@QAE?AViterator@?$_Tree@V?$basic_string@DU?$char_traits@D@std@@V?$allocator@D@2@@std@@U?$pair@$$CBV?$basic_string@DU?$char_traits@D@std@@V?$allocator@D@2@@std@@V12@@2@U_Kfn@?$map@V?$basic_string@DU?$char_traits@D@std@@V?$allocator@D@2@@std@@V12@U?$less@V?$basic_string@DU?$char_traits@D@std@@V?$allocator@D@2@@std@@@2@V?$allocator@V?$basic_string@DU?$char_traits@D@std@@V?$allocator@D@2@@std@@@2@@2@U?$less@V?$basic_string@DU?$char_traits@D@std@@V?$allocator@D@2@@std@@@2@V?$allocator@V?$basic_string@DU?$char_traits@D@std@@V?$allocator@D@2@@std@@@2@@2@ABV?$basic_string@DU?$char_traits@D@std@@V?$allocator@D@2@@2@@Z 00459c10 f i UiChatCentre.obj
 0001:00058c60       ??1?$_Tree@V?$basic_string@DU?$char_traits@D@std@@V?$allocator@D@2@@std@@U?$pair@$$CBV?$basic_string@DU?$char_traits@D@std@@V?$allocator@D@2@@std@@V12@@2@U_Kfn@?$map@V?$basic_string@DU?$char_traits@D@std@@V?$allocator@D@2@@std@@V12@U?$less@V?$basic_string@DU?$char_traits@D@std@@V?$allocator@D@2@@std@@@2@V?$allocator@V?$basic_string@DU?$char_traits@D@std@@V?$allocator@D@2@@std@@@2@@2@U?$less@V?$basic_string@DU?$char_traits@D@std@@V?$allocator@D@2@@std@@@2@V?$allocator@V?$basic_string@DU?$char_traits@D@std@@V?$allocator@D@2@@std@@@2@@std@@QAE@XZ 00459c60 f i UiChatCentre.obj
 0001:00058d60       ??Citerator@?$_Tree@V?$basic_string@DU?$char_traits@D@std@@V?$allocator@D@2@@std@@U?$pair@$$CBV?$basic_string@DU?$char_traits@D@std@@V?$allocator@D@2@@std@@V12@@2@U_Kfn@?$map@V?$basic_string@DU?$char_traits@D@std@@V?$allocator@D@2@@std@@V12@U?$less@V?$basic_string@DU?$char_traits@D@std@@V?$allocator@D@2@@std@@@2@V?$allocator@V?$basic_string@DU?$char_traits@D@std@@V?$allocator@D@2@@std@@@2@@2@U?$less@V?$basic_string@DU?$char_traits@D@std@@V?$allocator@D@2@@std@@@2@V?$allocator@V?$basic_string@DU?$char_traits@D@std@@V?$allocator@D@2@@std@@@2@@std@@QBEPAU?$pair@$$CBV?$basic_string@DU?$char_traits@D@std@@V?$allocator@D@2@@std@@V12@@2@XZ 00459d60 f i UiChatCentre.obj
 0001:00058d90       ??Eiterator@?$_Tree@V?$basic_string@DU?$char_traits@D@std@@V?$allocator@D@2@@std@@U?$pair@$$CBV?$basic_string@DU?$char_traits@D@std@@V?$allocator@D@2@@std@@V12@@2@U_Kfn@?$map@V?$basic_string@DU?$char_traits@D@std@@V?$allocator@D@2@@std@@V12@U?$less@V?$basic_string@DU?$char_traits@D@std@@V?$allocator@D@2@@std@@@2@V?$allocator@V?$basic_string@DU?$char_traits@D@std@@V?$allocator@D@2@@std@@@2@@2@U?$less@V?$basic_string@DU?$char_traits@D@std@@V?$allocator@D@2@@std@@@2@V?$allocator@V?$basic_string@DU?$char_traits@D@std@@V?$allocator@D@2@@std@@@2@@std@@QAE?AV012@H@Z 00459d90 f i UiChatCentre.obj
 0001:00058de0       ??9iterator@?$_Tree@V?$basic_string@DU?$char_traits@D@std@@V?$allocator@D@2@@std@@U?$pair@$$CBV?$basic_string@DU?$char_traits@D@std@@V?$allocator@D@2@@std@@V12@@2@U_Kfn@?$map@V?$basic_string@DU?$char_traits@D@std@@V?$allocator@D@2@@std@@V12@U?$less@V?$basic_string@DU?$char_traits@D@std@@V?$allocator@D@2@@std@@@2@V?$allocator@V?$basic_string@DU?$char_traits@D@std@@V?$allocator@D@2@@std@@@2@@2@U?$less@V?$basic_string@DU?$char_traits@D@std@@V?$allocator@D@2@@std@@@2@V?$allocator@V?$basic_string@DU?$char_traits@D@std@@V?$allocator@D@2@@std@@@2@@std@@QBE_NABV012@@Z 00459de0 f i UiChatCentre.obj
 0001:00058e20       ??0?$map@V?$basic_string@DU?$char_traits@D@std@@V?$allocator@D@2@@std@@EU?$less@V?$basic_string@DU?$char_traits@D@std@@V?$allocator@D@2@@std@@@2@V?$allocator@E@2@@std@@QAE@ABU?$less@V?$basic_string@DU?$char_traits@D@std@@V?$allocator@D@2@@std@@@1@ABV?$allocator@E@1@@Z 00459e20 f i UiChatCentre.obj
 0001:00058e60       ??4?$map@V?$basic_string@DU?$char_traits@D@std@@V?$allocator@D@2@@std@@EU?$less@V?$basic_string@DU?$char_traits@D@std@@V?$allocator@D@2@@std@@@2@V?$allocator@E@2@@std@@QAEAAV01@ABV01@@Z 00459e60 f i UiChatCentre.obj
 0001:00058e90       ?end@?$map@V?$basic_string@DU?$char_traits@D@std@@V?$allocator@D@2@@std@@EU?$less@V?$basic_string@DU?$char_traits@D@std@@V?$allocator@D@2@@std@@@2@V?$allocator@E@2@@std@@QAE?AViterator@?$_Tree@V?$basic_string@DU?$char_traits@D@std@@V?$allocator@D@2@@std@@U?$pair@$$CBV?$basic_string@DU?$char_traits@D@std@@V?$allocator@D@2@@std@@E@2@U_Kfn@?$map@V?$basic_string@DU?$char_traits@D@std@@V?$allocator@D@2@@std@@EU?$less@V?$basic_string@DU?$char_traits@D@std@@V?$allocator@D@2@@std@@@2@V?$allocator@E@2@@2@U?$less@V?$basic_string@DU?$char_traits@D@std@@V?$allocator@D@2@@std@@@2@V?$allocator@E@2@@2@XZ 00459e90 f i UiChatCentre.obj
 0001:00058ed0       ??A?$map@V?$basic_string@DU?$char_traits@D@std@@V?$allocator@D@2@@std@@EU?$less@V?$basic_string@DU?$char_traits@D@std@@V?$allocator@D@2@@std@@@2@V?$allocator@E@2@@std@@QAEAAEABV?$basic_string@DU?$char_traits@D@std@@V?$allocator@D@2@@1@@Z 00459ed0 f i UiChatCentre.obj
 0001:00058f70       ?clear@?$map@V?$basic_string@DU?$char_traits@D@std@@V?$allocator@D@2@@std@@EU?$less@V?$basic_string@DU?$char_traits@D@std@@V?$allocator@D@2@@std@@@2@V?$allocator@E@2@@std@@QAEXXZ 00459f70 f i UiChatCentre.obj
 0001:00058fa0       ?find@?$map@V?$basic_string@DU?$char_traits@D@std@@V?$allocator@D@2@@std@@EU?$less@V?$basic_string@DU?$char_traits@D@std@@V?$allocator@D@2@@std@@@2@V?$allocator@E@2@@std@@QAE?AViterator@?$_Tree@V?$basic_string@DU?$char_traits@D@std@@V?$allocator@D@2@@std@@U?$pair@$$CBV?$basic_string@DU?$char_traits@D@std@@V?$allocator@D@2@@std@@E@2@U_Kfn@?$map@V?$basic_string@DU?$char_traits@D@std@@V?$allocator@D@2@@std@@EU?$less@V?$basic_string@DU?$char_traits@D@std@@V?$allocator@D@2@@std@@@2@V?$allocator@E@2@@2@U?$less@V?$basic_string@DU?$char_traits@D@std@@V?$allocator@D@2@@std@@@2@V?$allocator@E@2@@2@ABV?$basic_string@DU?$char_traits@D@std@@V?$allocator@D@2@@2@@Z 00459fa0 f i UiChatCentre.obj
 0001:00058ff0       ??1?$_Tree@V?$basic_string@DU?$char_traits@D@std@@V?$allocator@D@2@@std@@U?$pair@$$CBV?$basic_string@DU?$char_traits@D@std@@V?$allocator@D@2@@std@@E@2@U_Kfn@?$map@V?$basic_string@DU?$char_traits@D@std@@V?$allocator@D@2@@std@@EU?$less@V?$basic_string@DU?$char_traits@D@std@@V?$allocator@D@2@@std@@@2@V?$allocator@E@2@@2@U?$less@V?$basic_string@DU?$char_traits@D@std@@V?$allocator@D@2@@std@@@2@V?$allocator@E@2@@std@@QAE@XZ 00459ff0 f i UiChatCentre.obj
 0001:000590f0       ??9iterator@?$_Tree@V?$basic_string@DU?$char_traits@D@std@@V?$allocator@D@2@@std@@U?$pair@$$CBV?$basic_string@DU?$char_traits@D@std@@V?$allocator@D@2@@std@@E@2@U_Kfn@?$map@V?$basic_string@DU?$char_traits@D@std@@V?$allocator@D@2@@std@@EU?$less@V?$basic_string@DU?$char_traits@D@std@@V?$allocator@D@2@@std@@@2@V?$allocator@E@2@@2@U?$less@V?$basic_string@DU?$char_traits@D@std@@V?$allocator@D@2@@std@@@2@V?$allocator@E@2@@std@@QBE_NABV012@@Z 0045a0f0 f i UiChatCentre.obj
 0001:00059130       ??0?$list@V?$basic_string@DU?$char_traits@D@std@@V?$allocator@D@2@@std@@V?$allocator@V?$basic_string@DU?$char_traits@D@std@@V?$allocator@D@2@@std@@@2@@std@@QAE@ABV?$allocator@V?$basic_string@DU?$char_traits@D@std@@V?$allocator@D@2@@std@@@1@@Z 0045a130 f i UiChatCentre.obj
 0001:00059180       ??1?$list@V?$basic_string@DU?$char_traits@D@std@@V?$allocator@D@2@@std@@V?$allocator@V?$basic_string@DU?$char_traits@D@std@@V?$allocator@D@2@@std@@@2@@std@@QAE@XZ 0045a180 f i UiChatCentre.obj
 0001:00059200       ?begin@?$list@V?$basic_string@DU?$char_traits@D@std@@V?$allocator@D@2@@std@@V?$allocator@V?$basic_string@DU?$char_traits@D@std@@V?$allocator@D@2@@std@@@2@@std@@QBE?AVconst_iterator@12@XZ 0045a200 f i UiChatCentre.obj
 0001:00059250       ?end@?$list@V?$basic_string@DU?$char_traits@D@std@@V?$allocator@D@2@@std@@V?$allocator@V?$basic_string@DU?$char_traits@D@std@@V?$allocator@D@2@@std@@@2@@std@@QBE?AVconst_iterator@12@XZ 0045a250 f i UiChatCentre.obj
 0001:00059290       ?empty@?$list@V?$basic_string@DU?$char_traits@D@std@@V?$allocator@D@2@@std@@V?$allocator@V?$basic_string@DU?$char_traits@D@std@@V?$allocator@D@2@@std@@@2@@std@@QBE_NXZ 0045a290 f i UiChatCentre.obj
 0001:000592c0       ?push_back@?$list@V?$basic_string@DU?$char_traits@D@std@@V?$allocator@D@2@@std@@V?$allocator@V?$basic_string@DU?$char_traits@D@std@@V?$allocator@D@2@@std@@@2@@std@@QAEXABV?$basic_string@DU?$char_traits@D@std@@V?$allocator@D@2@@2@@Z 0045a2c0 f i UiChatCentre.obj
 0001:00059310       ??Dconst_iterator@?$list@V?$basic_string@DU?$char_traits@D@std@@V?$allocator@D@2@@std@@V?$allocator@V?$basic_string@DU?$char_traits@D@std@@V?$allocator@D@2@@std@@@2@@std@@QBEABV?$basic_string@DU?$char_traits@D@std@@V?$allocator@D@2@@2@XZ 0045a310 f i UiChatCentre.obj
 0001:00059340       ??Econst_iterator@?$list@V?$basic_string@DU?$char_traits@D@std@@V?$allocator@D@2@@std@@V?$allocator@V?$basic_string@DU?$char_traits@D@std@@V?$allocator@D@2@@std@@@2@@std@@QAE?AV012@H@Z 0045a340 f i UiChatCentre.obj
 0001:00059390       ??9const_iterator@?$list@V?$basic_string@DU?$char_traits@D@std@@V?$allocator@D@2@@std@@V?$allocator@V?$basic_string@DU?$char_traits@D@std@@V?$allocator@D@2@@std@@@2@@std@@QBE_NABV012@@Z 0045a390 f i UiChatCentre.obj
 0001:000593d0       ??1?$pair@$$CBV?$basic_string@DU?$char_traits@D@std@@V?$allocator@D@2@@std@@V12@@std@@QAE@XZ 0045a3d0 f i UiChatCentre.obj
 0001:00059450       ??1?$pair@$$CBV?$basic_string@DU?$char_traits@D@std@@V?$allocator@D@2@@std@@E@std@@QAE@XZ 0045a450 f i UiChatCentre.obj
 0001:00059480       ?insert@?$map@V?$basic_string@DU?$char_traits@D@std@@V?$allocator@D@2@@std@@V12@U?$less@V?$basic_string@DU?$char_traits@D@std@@V?$allocator@D@2@@std@@@2@V?$allocator@V?$basic_string@DU?$char_traits@D@std@@V?$allocator@D@2@@std@@@2@@std@@QAE?AU?$pair@Viterator@?$_Tree@V?$basic_string@DU?$char_traits@D@std@@V?$allocator@D@2@@std@@U?$pair@$$CBV?$basic_string@DU?$char_traits@D@std@@V?$allocator@D@2@@std@@V12@@2@U_Kfn@?$map@V?$basic_string@DU?$char_traits@D@std@@V?$allocator@D@2@@std@@V12@U?$less@V?$basic_string@DU?$char_traits@D@std@@V?$allocator@D@2@@std@@@2@V?$allocator@V?$basic_string@DU?$char_traits@D@std@@V?$allocator@D@2@@std@@@2@@2@U?$less@V?$basic_string@DU?$char_traits@D@std@@V?$allocator@D@2@@std@@@2@V?$allocator@V?$basic_string@DU?$char_traits@D@std@@V?$allocator@D@2@@std@@@2@@std@@_N@2@ABU?$pair@$$CBV?$basic_string@DU?$char_traits@D@std@@V?$allocator@D@2@@std@@V12@@2@@Z 0045a480 f i UiChatCentre.obj
 0001:000594f0       ??0?$_Tree@V?$basic_string@DU?$char_traits@D@std@@V?$allocator@D@2@@std@@U?$pair@$$CBV?$basic_string@DU?$char_traits@D@std@@V?$allocator@D@2@@std@@V12@@2@U_Kfn@?$map@V?$basic_string@DU?$char_traits@D@std@@V?$allocator@D@2@@std@@V12@U?$less@V?$basic_string@DU?$char_traits@D@std@@V?$allocator@D@2@@std@@@2@V?$allocator@V?$basic_string@DU?$char_traits@D@std@@V?$allocator@D@2@@std@@@2@@2@U?$less@V?$basic_string@DU?$char_traits@D@std@@V?$allocator@D@2@@std@@@2@V?$allocator@V?$basic_string@DU?$char_traits@D@std@@V?$allocator@D@2@@std@@@2@@std@@QAE@ABU?$less@V?$basic_string@DU?$char_traits@D@std@@V?$allocator@D@2@@std@@@1@_NABV?$allocator@V?$basic_string@DU?$char_traits@D@std@@V?$allocator@D@2@@std@@@1@@Z 0045a4f0 f i UiChatCentre.obj
 0001:00059540       ??4?$_Tree@V?$basic_string@DU?$char_traits@D@std@@V?$allocator@D@2@@std@@U?$pair@$$CBV?$basic_string@DU?$char_traits@D@std@@V?$allocator@D@2@@std@@V12@@2@U_Kfn@?$map@V?$basic_string@DU?$char_traits@D@std@@V?$allocator@D@2@@std@@V12@U?$less@V?$basic_string@DU?$char_traits@D@std@@V?$allocator@D@2@@std@@@2@V?$allocator@V?$basic_string@DU?$char_traits@D@std@@V?$allocator@D@2@@std@@@2@@2@U?$less@V?$basic_string@DU?$char_traits@D@std@@V?$allocator@D@2@@std@@@2@V?$allocator@V?$basic_string@DU?$char_traits@D@std@@V?$allocator@D@2@@std@@@2@@std@@QAEAAV01@ABV01@@Z 0045a540 f i UiChatCentre.obj
 0001:000595c0       ?begin@?$_Tree@V?$basic_string@DU?$char_traits@D@std@@V?$allocator@D@2@@std@@U?$pair@$$CBV?$basic_string@DU?$char_traits@D@std@@V?$allocator@D@2@@std@@V12@@2@U_Kfn@?$map@V?$basic_string@DU?$char_traits@D@std@@V?$allocator@D@2@@std@@V12@U?$less@V?$basic_string@DU?$char_traits@D@std@@V?$allocator@D@2@@std@@@2@V?$allocator@V?$basic_string@DU?$char_traits@D@std@@V?$allocator@D@2@@std@@@2@@2@U?$less@V?$basic_string@DU?$char_traits@D@std@@V?$allocator@D@2@@std@@@2@V?$allocator@V?$basic_string@DU?$char_traits@D@std@@V?$allocator@D@2@@std@@@2@@std@@QAE?AViterator@12@XZ 0045a5c0 f i UiChatCentre.obj
 0001:00059610       ?end@?$_Tree@V?$basic_string@DU?$char_traits@D@std@@V?$allocator@D@2@@std@@U?$pair@$$CBV?$basic_string@DU?$char_traits@D@std@@V?$allocator@D@2@@std@@V12@@2@U_Kfn@?$map@V?$basic_string@DU?$char_traits@D@std@@V?$allocator@D@2@@std@@V12@U?$less@V?$basic_string@DU?$char_traits@D@std@@V?$allocator@D@2@@std@@@2@V?$allocator@V?$basic_string@DU?$char_traits@D@std@@V?$allocator@D@2@@std@@@2@@2@U?$less@V?$basic_string@DU?$char_traits@D@std@@V?$allocator@D@2@@std@@@2@V?$allocator@V?$basic_string@DU?$char_traits@D@std@@V?$allocator@D@2@@std@@@2@@std@@QAE?AViterator@12@XZ 0045a610 f i UiChatCentre.obj
 0001:00059650       ?erase@?$_Tree@V?$basic_string@DU?$char_traits@D@std@@V?$allocator@D@2@@std@@U?$pair@$$CBV?$basic_string@DU?$char_traits@D@std@@V?$allocator@D@2@@std@@V12@@2@U_Kfn@?$map@V?$basic_string@DU?$char_traits@D@std@@V?$allocator@D@2@@std@@V12@U?$less@V?$basic_string@DU?$char_traits@D@std@@V?$allocator@D@2@@std@@@2@V?$allocator@V?$basic_string@DU?$char_traits@D@std@@V?$allocator@D@2@@std@@@2@@2@U?$less@V?$basic_string@DU?$char_traits@D@std@@V?$allocator@D@2@@std@@@2@V?$allocator@V?$basic_string@DU?$char_traits@D@std@@V?$allocator@D@2@@std@@@2@@std@@QAE?AViterator@12@V312@@Z 0045a650 f i UiChatCentre.obj
 0001:00059ee0       ?erase@?$_Tree@V?$basic_string@DU?$char_traits@D@std@@V?$allocator@D@2@@std@@U?$pair@$$CBV?$basic_string@DU?$char_traits@D@std@@V?$allocator@D@2@@std@@V12@@2@U_Kfn@?$map@V?$basic_string@DU?$char_traits@D@std@@V?$allocator@D@2@@std@@V12@U?$less@V?$basic_string@DU?$char_traits@D@std@@V?$allocator@D@2@@std@@@2@V?$allocator@V?$basic_string@DU?$char_traits@D@std@@V?$allocator@D@2@@std@@@2@@2@U?$less@V?$basic_string@DU?$char_traits@D@std@@V?$allocator@D@2@@std@@@2@V?$allocator@V?$basic_string@DU?$char_traits@D@std@@V?$allocator@D@2@@std@@@2@@std@@QAE?AViterator@12@V312@0@Z 0045aee0 f i UiChatCentre.obj
 0001:0005a060       ?clear@?$_Tree@V?$basic_string@DU?$char_traits@D@std@@V?$allocator@D@2@@std@@U?$pair@$$CBV?$basic_string@DU?$char_traits@D@std@@V?$allocator@D@2@@std@@V12@@2@U_Kfn@?$map@V?$basic_string@DU?$char_traits@D@std@@V?$allocator@D@2@@std@@V12@U?$less@V?$basic_string@DU?$char_traits@D@std@@V?$allocator@D@2@@std@@@2@V?$allocator@V?$basic_string@DU?$char_traits@D@std@@V?$allocator@D@2@@std@@@2@@2@U?$less@V?$basic_string@DU?$char_traits@D@std@@V?$allocator@D@2@@std@@@2@V?$allocator@V?$basic_string@DU?$char_traits@D@std@@V?$allocator@D@2@@std@@@2@@std@@QAEXXZ 0045b060 f i UiChatCentre.obj
 0001:0005a0c0       ?find@?$_Tree@V?$basic_string@DU?$char_traits@D@std@@V?$allocator@D@2@@std@@U?$pair@$$CBV?$basic_string@DU?$char_traits@D@std@@V?$allocator@D@2@@std@@V12@@2@U_Kfn@?$map@V?$basic_string@DU?$char_traits@D@std@@V?$allocator@D@2@@std@@V12@U?$less@V?$basic_string@DU?$char_traits@D@std@@V?$allocator@D@2@@std@@@2@V?$allocator@V?$basic_string@DU?$char_traits@D@std@@V?$allocator@D@2@@std@@@2@@2@U?$less@V?$basic_string@DU?$char_traits@D@std@@V?$allocator@D@2@@std@@@2@V?$allocator@V?$basic_string@DU?$char_traits@D@std@@V?$allocator@D@2@@std@@@2@@std@@QAE?AViterator@12@ABV?$basic_string@DU?$char_traits@D@std@@V?$allocator@D@2@@2@@Z 0045b0c0 f i UiChatCentre.obj
 0001:0005a180       ?_Freenode@?$_Tree@V?$basic_string@DU?$char_traits@D@std@@V?$allocator@D@2@@std@@U?$pair@$$CBV?$basic_string@DU?$char_traits@D@std@@V?$allocator@D@2@@std@@V12@@2@U_Kfn@?$map@V?$basic_string@DU?$char_traits@D@std@@V?$allocator@D@2@@std@@V12@U?$less@V?$basic_string@DU?$char_traits@D@std@@V?$allocator@D@2@@std@@@2@V?$allocator@V?$basic_string@DU?$char_traits@D@std@@V?$allocator@D@2@@std@@@2@@2@U?$less@V?$basic_string@DU?$char_traits@D@std@@V?$allocator@D@2@@std@@@2@V?$allocator@V?$basic_string@DU?$char_traits@D@std@@V?$allocator@D@2@@std@@@2@@std@@IAEXPAU_Node@12@@Z 0045b180 f i UiChatCentre.obj
 0001:0005a1b0       ??0?$pair@$$CBV?$basic_string@DU?$char_traits@D@std@@V?$allocator@D@2@@std@@V12@@std@@QAE@ABV?$basic_string@DU?$char_traits@D@std@@V?$allocator@D@2@@1@0@Z 0045b1b0 f i UiChatCentre.obj
 0001:0005a230       ??Diterator@?$_Tree@V?$basic_string@DU?$char_traits@D@std@@V?$allocator@D@2@@std@@U?$pair@$$CBV?$basic_string@DU?$char_traits@D@std@@V?$allocator@D@2@@std@@V12@@2@U_Kfn@?$map@V?$basic_string@DU?$char_traits@D@std@@V?$allocator@D@2@@std@@V12@U?$less@V?$basic_string@DU?$char_traits@D@std@@V?$allocator@D@2@@std@@@2@V?$allocator@V?$basic_string@DU?$char_traits@D@std@@V?$allocator@D@2@@std@@@2@@2@U?$less@V?$basic_string@DU?$char_traits@D@std@@V?$allocator@D@2@@std@@@2@V?$allocator@V?$basic_string@DU?$char_traits@D@std@@V?$allocator@D@2@@std@@@2@@std@@QBEAAU?$pair@$$CBV?$basic_string@DU?$char_traits@D@std@@V?$allocator@D@2@@std@@V12@@2@XZ 0045b230 f i UiChatCentre.obj
 0001:0005a260       ??Eiterator@?$_Tree@V?$basic_string@DU?$char_traits@D@std@@V?$allocator@D@2@@std@@U?$pair@$$CBV?$basic_string@DU?$char_traits@D@std@@V?$allocator@D@2@@std@@V12@@2@U_Kfn@?$map@V?$basic_string@DU?$char_traits@D@std@@V?$allocator@D@2@@std@@V12@U?$less@V?$basic_string@DU?$char_traits@D@std@@V?$allocator@D@2@@std@@@2@V?$allocator@V?$basic_string@DU?$char_traits@D@std@@V?$allocator@D@2@@std@@@2@@2@U?$less@V?$basic_string@DU?$char_traits@D@std@@V?$allocator@D@2@@std@@@2@V?$allocator@V?$basic_string@DU?$char_traits@D@std@@V?$allocator@D@2@@std@@@2@@std@@QAEAAV012@XZ 0045b260 f i UiChatCentre.obj
 0001:0005a290       ??8iterator@?$_Tree@V?$basic_string@DU?$char_traits@D@std@@V?$allocator@D@2@@std@@U?$pair@$$CBV?$basic_string@DU?$char_traits@D@std@@V?$allocator@D@2@@std@@V12@@2@U_Kfn@?$map@V?$basic_string@DU?$char_traits@D@std@@V?$allocator@D@2@@std@@V12@U?$less@V?$basic_string@DU?$char_traits@D@std@@V?$allocator@D@2@@std@@@2@V?$allocator@V?$basic_string@DU?$char_traits@D@std@@V?$allocator@D@2@@std@@@2@@2@U?$less@V?$basic_string@DU?$char_traits@D@std@@V?$allocator@D@2@@std@@@2@V?$allocator@V?$basic_string@DU?$char_traits@D@std@@V?$allocator@D@2@@std@@@2@@std@@QBE_NABV012@@Z 0045b290 f i UiChatCentre.obj
 0001:0005a2c0       ?insert@?$map@V?$basic_string@DU?$char_traits@D@std@@V?$allocator@D@2@@std@@EU?$less@V?$basic_string@DU?$char_traits@D@std@@V?$allocator@D@2@@std@@@2@V?$allocator@E@2@@std@@QAE?AU?$pair@Viterator@?$_Tree@V?$basic_string@DU?$char_traits@D@std@@V?$allocator@D@2@@std@@U?$pair@$$CBV?$basic_string@DU?$char_traits@D@std@@V?$allocator@D@2@@std@@E@2@U_Kfn@?$map@V?$basic_string@DU?$char_traits@D@std@@V?$allocator@D@2@@std@@EU?$less@V?$basic_string@DU?$char_traits@D@std@@V?$allocator@D@2@@std@@@2@V?$allocator@E@2@@2@U?$less@V?$basic_string@DU?$char_traits@D@std@@V?$allocator@D@2@@std@@@2@V?$allocator@E@2@@std@@_N@2@ABU?$pair@$$CBV?$basic_string@DU?$char_traits@D@std@@V?$allocator@D@2@@std@@E@2@@Z 0045b2c0 f i UiChatCentre.obj
 0001:0005a330       ??0?$_Tree@V?$basic_string@DU?$char_traits@D@std@@V?$allocator@D@2@@std@@U?$pair@$$CBV?$basic_string@DU?$char_traits@D@std@@V?$allocator@D@2@@std@@E@2@U_Kfn@?$map@V?$basic_string@DU?$char_traits@D@std@@V?$allocator@D@2@@std@@EU?$less@V?$basic_string@DU?$char_traits@D@std@@V?$allocator@D@2@@std@@@2@V?$allocator@E@2@@2@U?$less@V?$basic_string@DU?$char_traits@D@std@@V?$allocator@D@2@@std@@@2@V?$allocator@E@2@@std@@QAE@ABU?$less@V?$basic_string@DU?$char_traits@D@std@@V?$allocator@D@2@@std@@@1@_NABV?$allocator@E@1@@Z 0045b330 f i UiChatCentre.obj
 0001:0005a380       ??4?$_Tree@V?$basic_string@DU?$char_traits@D@std@@V?$allocator@D@2@@std@@U?$pair@$$CBV?$basic_string@DU?$char_traits@D@std@@V?$allocator@D@2@@std@@E@2@U_Kfn@?$map@V?$basic_string@DU?$char_traits@D@std@@V?$allocator@D@2@@std@@EU?$less@V?$basic_string@DU?$char_traits@D@std@@V?$allocator@D@2@@std@@@2@V?$allocator@E@2@@2@U?$less@V?$basic_string@DU?$char_traits@D@std@@V?$allocator@D@2@@std@@@2@V?$allocator@E@2@@std@@QAEAAV01@ABV01@@Z 0045b380 f i UiChatCentre.obj
 0001:0005a400       ?begin@?$_Tree@V?$basic_string@DU?$char_traits@D@std@@V?$allocator@D@2@@std@@U?$pair@$$CBV?$basic_string@DU?$char_traits@D@std@@V?$allocator@D@2@@std@@E@2@U_Kfn@?$map@V?$basic_string@DU?$char_traits@D@std@@V?$allocator@D@2@@std@@EU?$less@V?$basic_string@DU?$char_traits@D@std@@V?$allocator@D@2@@std@@@2@V?$allocator@E@2@@2@U?$less@V?$basic_string@DU?$char_traits@D@std@@V?$allocator@D@2@@std@@@2@V?$allocator@E@2@@std@@QAE?AViterator@12@XZ 0045b400 f i UiChatCentre.obj
 0001:0005a450       ?end@?$_Tree@V?$basic_string@DU?$char_traits@D@std@@V?$allocator@D@2@@std@@U?$pair@$$CBV?$basic_string@DU?$char_traits@D@std@@V?$allocator@D@2@@std@@E@2@U_Kfn@?$map@V?$basic_string@DU?$char_traits@D@std@@V?$allocator@D@2@@std@@EU?$less@V?$basic_string@DU?$char_traits@D@std@@V?$allocator@D@2@@std@@@2@V?$allocator@E@2@@2@U?$less@V?$basic_string@DU?$char_traits@D@std@@V?$allocator@D@2@@std@@@2@V?$allocator@E@2@@std@@QAE?AViterator@12@XZ 0045b450 f i UiChatCentre.obj
 0001:0005a490       ?erase@?$_Tree@V?$basic_string@DU?$char_traits@D@std@@V?$allocator@D@2@@std@@U?$pair@$$CBV?$basic_string@DU?$char_traits@D@std@@V?$allocator@D@2@@std@@E@2@U_Kfn@?$map@V?$basic_string@DU?$char_traits@D@std@@V?$allocator@D@2@@std@@EU?$less@V?$basic_string@DU?$char_traits@D@std@@V?$allocator@D@2@@std@@@2@V?$allocator@E@2@@2@U?$less@V?$basic_string@DU?$char_traits@D@std@@V?$allocator@D@2@@std@@@2@V?$allocator@E@2@@std@@QAE?AViterator@12@V312@0@Z 0045b490 f i UiChatCentre.obj
 0001:0005a610       ?clear@?$_Tree@V?$basic_string@DU?$char_traits@D@std@@V?$allocator@D@2@@std@@U?$pair@$$CBV?$basic_string@DU?$char_traits@D@std@@V?$allocator@D@2@@std@@E@2@U_Kfn@?$map@V?$basic_string@DU?$char_traits@D@std@@V?$allocator@D@2@@std@@EU?$less@V?$basic_string@DU?$char_traits@D@std@@V?$allocator@D@2@@std@@@2@V?$allocator@E@2@@2@U?$less@V?$basic_string@DU?$char_traits@D@std@@V?$allocator@D@2@@std@@@2@V?$allocator@E@2@@std@@QAEXXZ 0045b610 f i UiChatCentre.obj
 0001:0005a670       ?find@?$_Tree@V?$basic_string@DU?$char_traits@D@std@@V?$allocator@D@2@@std@@U?$pair@$$CBV?$basic_string@DU?$char_traits@D@std@@V?$allocator@D@2@@std@@E@2@U_Kfn@?$map@V?$basic_string@DU?$char_traits@D@std@@V?$allocator@D@2@@std@@EU?$less@V?$basic_string@DU?$char_traits@D@std@@V?$allocator@D@2@@std@@@2@V?$allocator@E@2@@2@U?$less@V?$basic_string@DU?$char_traits@D@std@@V?$allocator@D@2@@std@@@2@V?$allocator@E@2@@std@@QAE?AViterator@12@ABV?$basic_string@DU?$char_traits@D@std@@V?$allocator@D@2@@2@@Z 0045b670 f i UiChatCentre.obj
 0001:0005a730       ?_Freenode@?$_Tree@V?$basic_string@DU?$char_traits@D@std@@V?$allocator@D@2@@std@@U?$pair@$$CBV?$basic_string@DU?$char_traits@D@std@@V?$allocator@D@2@@std@@E@2@U_Kfn@?$map@V?$basic_string@DU?$char_traits@D@std@@V?$allocator@D@2@@std@@EU?$less@V?$basic_string@DU?$char_traits@D@std@@V?$allocator@D@2@@std@@@2@V?$allocator@E@2@@2@U?$less@V?$basic_string@DU?$char_traits@D@std@@V?$allocator@D@2@@std@@@2@V?$allocator@E@2@@std@@IAEXPAU_Node@12@@Z 0045b730 f i UiChatCentre.obj
 0001:0005a760       ??0?$pair@$$CBV?$basic_string@DU?$char_traits@D@std@@V?$allocator@D@2@@std@@E@std@@QAE@ABV?$basic_string@DU?$char_traits@D@std@@V?$allocator@D@2@@1@ABE@Z 0045b760 f i UiChatCentre.obj
 0001:0005a7b0       ??Diterator@?$_Tree@V?$basic_string@DU?$char_traits@D@std@@V?$allocator@D@2@@std@@U?$pair@$$CBV?$basic_string@DU?$char_traits@D@std@@V?$allocator@D@2@@std@@E@2@U_Kfn@?$map@V?$basic_string@DU?$char_traits@D@std@@V?$allocator@D@2@@std@@EU?$less@V?$basic_string@DU?$char_traits@D@std@@V?$allocator@D@2@@std@@@2@V?$allocator@E@2@@2@U?$less@V?$basic_string@DU?$char_traits@D@std@@V?$allocator@D@2@@std@@@2@V?$allocator@E@2@@std@@QBEAAU?$pair@$$CBV?$basic_string@DU?$char_traits@D@std@@V?$allocator@D@2@@std@@E@2@XZ 0045b7b0 f i UiChatCentre.obj
 0001:0005a7e0       ??8iterator@?$_Tree@V?$basic_string@DU?$char_traits@D@std@@V?$allocator@D@2@@std@@U?$pair@$$CBV?$basic_string@DU?$char_traits@D@std@@V?$allocator@D@2@@std@@E@2@U_Kfn@?$map@V?$basic_string@DU?$char_traits@D@std@@V?$allocator@D@2@@std@@EU?$less@V?$basic_string@DU?$char_traits@D@std@@V?$allocator@D@2@@std@@@2@V?$allocator@E@2@@2@U?$less@V?$basic_string@DU?$char_traits@D@std@@V?$allocator@D@2@@std@@@2@V?$allocator@E@2@@std@@QBE_NABV012@@Z 0045b7e0 f i UiChatCentre.obj
 0001:0005a810       ?begin@?$list@V?$basic_string@DU?$char_traits@D@std@@V?$allocator@D@2@@std@@V?$allocator@V?$basic_string@DU?$char_traits@D@std@@V?$allocator@D@2@@std@@@2@@std@@QAE?AViterator@12@XZ 0045b810 f i UiChatCentre.obj
 0001:0005a860       ?end@?$list@V?$basic_string@DU?$char_traits@D@std@@V?$allocator@D@2@@std@@V?$allocator@V?$basic_string@DU?$char_traits@D@std@@V?$allocator@D@2@@std@@@2@@std@@QAE?AViterator@12@XZ 0045b860 f i UiChatCentre.obj
 0001:0005a8a0       ?size@?$list@V?$basic_string@DU?$char_traits@D@std@@V?$allocator@D@2@@std@@V?$allocator@V?$basic_string@DU?$char_traits@D@std@@V?$allocator@D@2@@std@@@2@@std@@QBEIXZ 0045b8a0 f i UiChatCentre.obj
 0001:0005a8c0       ?insert@?$list@V?$basic_string@DU?$char_traits@D@std@@V?$allocator@D@2@@std@@V?$allocator@V?$basic_string@DU?$char_traits@D@std@@V?$allocator@D@2@@std@@@2@@std@@QAE?AViterator@12@V312@ABV?$basic_string@DU?$char_traits@D@std@@V?$allocator@D@2@@2@@Z 0045b8c0 f i UiChatCentre.obj
 0001:0005a9a0       ?erase@?$list@V?$basic_string@DU?$char_traits@D@std@@V?$allocator@D@2@@std@@V?$allocator@V?$basic_string@DU?$char_traits@D@std@@V?$allocator@D@2@@std@@@2@@std@@QAE?AViterator@12@V312@0@Z 0045b9a0 f i UiChatCentre.obj
 0001:0005aa10       ?_Buynode@?$list@V?$basic_string@DU?$char_traits@D@std@@V?$allocator@D@2@@std@@V?$allocator@V?$basic_string@DU?$char_traits@D@std@@V?$allocator@D@2@@std@@@2@@std@@IAEPAU_Node@12@PAU312@0@Z 0045ba10 f i UiChatCentre.obj
 0001:0005aaa0       ?_Freenode@?$list@V?$basic_string@DU?$char_traits@D@std@@V?$allocator@D@2@@std@@V?$allocator@V?$basic_string@DU?$char_traits@D@std@@V?$allocator@D@2@@std@@@2@@std@@IAEXPAU_Node@12@@Z 0045baa0 f i UiChatCentre.obj
 0001:0005aad0       ?_Next@_Acc@?$list@V?$basic_string@DU?$char_traits@D@std@@V?$allocator@D@2@@std@@V?$allocator@V?$basic_string@DU?$char_traits@D@std@@V?$allocator@D@2@@std@@@2@@std@@SAAAPAU_Node@23@PAU423@@Z 0045bad0 f i UiChatCentre.obj
 0001:0005aae0       ?_Value@_Acc@?$list@V?$basic_string@DU?$char_traits@D@std@@V?$allocator@D@2@@std@@V?$allocator@V?$basic_string@DU?$char_traits@D@std@@V?$allocator@D@2@@std@@@2@@std@@SAAAV?$basic_string@DU?$char_traits@D@std@@V?$allocator@D@2@@3@PAU_Node@23@@Z 0045bae0 f i UiChatCentre.obj
 0001:0005aaf0       ??0const_iterator@?$list@V?$basic_string@DU?$char_traits@D@std@@V?$allocator@D@2@@std@@V?$allocator@V?$basic_string@DU?$char_traits@D@std@@V?$allocator@D@2@@std@@@2@@std@@QAE@PAU_Node@12@@Z 0045baf0 f i UiChatCentre.obj
 0001:0005ab10       ??Econst_iterator@?$list@V?$basic_string@DU?$char_traits@D@std@@V?$allocator@D@2@@std@@V?$allocator@V?$basic_string@DU?$char_traits@D@std@@V?$allocator@D@2@@std@@@2@@std@@QAEAAV012@XZ 0045bb10 f i UiChatCentre.obj
 0001:0005ab50       ??8const_iterator@?$list@V?$basic_string@DU?$char_traits@D@std@@V?$allocator@D@2@@std@@V?$allocator@V?$basic_string@DU?$char_traits@D@std@@V?$allocator@D@2@@std@@@2@@std@@QBE_NABV012@@Z 0045bb50 f i UiChatCentre.obj
 0001:0005ab80       ??R?$less@V?$basic_string@DU?$char_traits@D@std@@V?$allocator@D@2@@std@@@std@@QBE_NABV?$basic_string@DU?$char_traits@D@std@@V?$allocator@D@2@@1@0@Z 0045bb80 f i UiChatCentre.obj
 0001:0005abc0       ?_Charalloc@?$allocator@V?$basic_string@DU?$char_traits@D@std@@V?$allocator@D@2@@std@@@std@@QAEPADI@Z 0045bbc0 f i UiChatCentre.obj
 0001:0005abf0       ?deallocate@?$allocator@V?$basic_string@DU?$char_traits@D@std@@V?$allocator@D@2@@std@@@std@@QAEXPAXI@Z 0045bbf0 f i UiChatCentre.obj
 0001:0005ac20       ?construct@?$allocator@V?$basic_string@DU?$char_traits@D@std@@V?$allocator@D@2@@std@@@std@@QAEXPAV?$basic_string@DU?$char_traits@D@std@@V?$allocator@D@2@@2@ABV32@@Z 0045bc20 f i UiChatCentre.obj
 0001:0005ac50       ?_Color@?$_Tree@V?$basic_string@DU?$char_traits@D@std@@V?$allocator@D@2@@std@@U?$pair@$$CBV?$basic_string@DU?$char_traits@D@std@@V?$allocator@D@2@@std@@V12@@2@U_Kfn@?$map@V?$basic_string@DU?$char_traits@D@std@@V?$allocator@D@2@@std@@V12@U?$less@V?$basic_string@DU?$char_traits@D@std@@V?$allocator@D@2@@std@@@2@V?$allocator@V?$basic_string@DU?$char_traits@D@std@@V?$allocator@D@2@@std@@@2@@2@U?$less@V?$basic_string@DU?$char_traits@D@std@@V?$allocator@D@2@@std@@@2@V?$allocator@V?$basic_string@DU?$char_traits@D@std@@V?$allocator@D@2@@std@@@2@@std@@KAAAW4_Redbl@12@PAU_Node@12@@Z 0045bc50 f i UiChatCentre.obj
 0001:0005ac60       ?_Key@?$_Tree@V?$basic_string@DU?$char_traits@D@std@@V?$allocator@D@2@@std@@U?$pair@$$CBV?$basic_string@DU?$char_traits@D@std@@V?$allocator@D@2@@std@@V12@@2@U_Kfn@?$map@V?$basic_string@DU?$char_traits@D@std@@V?$allocator@D@2@@std@@V12@U?$less@V?$basic_string@DU?$char_traits@D@std@@V?$allocator@D@2@@std@@@2@V?$allocator@V?$basic_string@DU?$char_traits@D@std@@V?$allocator@D@2@@std@@@2@@2@U?$less@V?$basic_string@DU?$char_traits@D@std@@V?$allocator@D@2@@std@@@2@V?$allocator@V?$basic_string@DU?$char_traits@D@std@@V?$allocator@D@2@@std@@@2@@std@@KAABV?$basic_string@DU?$char_traits@D@std@@V?$allocator@D@2@@2@PAU_Node@12@@Z 0045bc60 f i UiChatCentre.obj
 0001:0005ac90       ?_Left@?$_Tree@V?$basic_string@DU?$char_traits@D@std@@V?$allocator@D@2@@std@@U?$pair@$$CBV?$basic_string@DU?$char_traits@D@std@@V?$allocator@D@2@@std@@V12@@2@U_Kfn@?$map@V?$basic_string@DU?$char_traits@D@std@@V?$allocator@D@2@@std@@V12@U?$less@V?$basic_string@DU?$char_traits@D@std@@V?$allocator@D@2@@std@@@2@V?$allocator@V?$basic_string@DU?$char_traits@D@std@@V?$allocator@D@2@@std@@@2@@2@U?$less@V?$basic_string@DU?$char_traits@D@std@@V?$allocator@D@2@@std@@@2@V?$allocator@V?$basic_string@DU?$char_traits@D@std@@V?$allocator@D@2@@std@@@2@@std@@KAAAPAU_Node@12@PAU312@@Z 0045bc90 f i UiChatCentre.obj
 0001:0005aca0       ?_Parent@?$_Tree@V?$basic_string@DU?$char_traits@D@std@@V?$allocator@D@2@@std@@U?$pair@$$CBV?$basic_string@DU?$char_traits@D@std@@V?$allocator@D@2@@std@@V12@@2@U_Kfn@?$map@V?$basic_string@DU?$char_traits@D@std@@V?$allocator@D@2@@std@@V12@U?$less@V?$basic_string@DU?$char_traits@D@std@@V?$allocator@D@2@@std@@@2@V?$allocator@V?$basic_string@DU?$char_traits@D@std@@V?$allocator@D@2@@std@@@2@@2@U?$less@V?$basic_string@DU?$char_traits@D@std@@V?$allocator@D@2@@std@@@2@V?$allocator@V?$basic_string@DU?$char_traits@D@std@@V?$allocator@D@2@@std@@@2@@std@@KAAAPAU_Node@12@PAU312@@Z 0045bca0 f i UiChatCentre.obj
 0001:0005acb0       ?_Right@?$_Tree@V?$basic_string@DU?$char_traits@D@std@@V?$allocator@D@2@@std@@U?$pair@$$CBV?$basic_string@DU?$char_traits@D@std@@V?$allocator@D@2@@std@@V12@@2@U_Kfn@?$map@V?$basic_string@DU?$char_traits@D@std@@V?$allocator@D@2@@std@@V12@U?$less@V?$basic_string@DU?$char_traits@D@std@@V?$allocator@D@2@@std@@@2@V?$allocator@V?$basic_string@DU?$char_traits@D@std@@V?$allocator@D@2@@std@@@2@@2@U?$less@V?$basic_string@DU?$char_traits@D@std@@V?$allocator@D@2@@std@@@2@V?$allocator@V?$basic_string@DU?$char_traits@D@std@@V?$allocator@D@2@@std@@@2@@std@@KAAAPAU_Node@12@PAU312@@Z 0045bcb0 f i UiChatCentre.obj
 0001:0005acc0       ?_Value@?$_Tree@V?$basic_string@DU?$char_traits@D@std@@V?$allocator@D@2@@std@@U?$pair@$$CBV?$basic_string@DU?$char_traits@D@std@@V?$allocator@D@2@@std@@V12@@2@U_Kfn@?$map@V?$basic_string@DU?$char_traits@D@std@@V?$allocator@D@2@@std@@V12@U?$less@V?$basic_string@DU?$char_traits@D@std@@V?$allocator@D@2@@std@@@2@V?$allocator@V?$basic_string@DU?$char_traits@D@std@@V?$allocator@D@2@@std@@@2@@2@U?$less@V?$basic_string@DU?$char_traits@D@std@@V?$allocator@D@2@@std@@@2@V?$allocator@V?$basic_string@DU?$char_traits@D@std@@V?$allocator@D@2@@std@@@2@@std@@KAAAU?$pair@$$CBV?$basic_string@DU?$char_traits@D@std@@V?$allocator@D@2@@std@@V12@@2@PAU_Node@12@@Z 0045bcc0 f i UiChatCentre.obj
 0001:0005acd0       ?size@?$_Tree@V?$basic_string@DU?$char_traits@D@std@@V?$allocator@D@2@@std@@U?$pair@$$CBV?$basic_string@DU?$char_traits@D@std@@V?$allocator@D@2@@std@@V12@@2@U_Kfn@?$map@V?$basic_string@DU?$char_traits@D@std@@V?$allocator@D@2@@std@@V12@U?$less@V?$basic_string@DU?$char_traits@D@std@@V?$allocator@D@2@@std@@@2@V?$allocator@V?$basic_string@DU?$char_traits@D@std@@V?$allocator@D@2@@std@@@2@@2@U?$less@V?$basic_string@DU?$char_traits@D@std@@V?$allocator@D@2@@std@@@2@V?$allocator@V?$basic_string@DU?$char_traits@D@std@@V?$allocator@D@2@@std@@@2@@std@@QBEIXZ 0045bcd0 f i UiChatCentre.obj
 0001:0005acf0       ?insert@?$_Tree@V?$basic_string@DU?$char_traits@D@std@@V?$allocator@D@2@@std@@U?$pair@$$CBV?$basic_string@DU?$char_traits@D@std@@V?$allocator@D@2@@std@@V12@@2@U_Kfn@?$map@V?$basic_string@DU?$char_traits@D@std@@V?$allocator@D@2@@std@@V12@U?$less@V?$basic_string@DU?$char_traits@D@std@@V?$allocator@D@2@@std@@@2@V?$allocator@V?$basic_string@DU?$char_traits@D@std@@V?$allocator@D@2@@std@@@2@@2@U?$less@V?$basic_string@DU?$char_traits@D@std@@V?$allocator@D@2@@std@@@2@V?$allocator@V?$basic_string@DU?$char_traits@D@std@@V?$allocator@D@2@@std@@@2@@std@@QAE?AU?$pair@Viterator@?$_Tree@V?$basic_string@DU?$char_traits@D@std@@V?$allocator@D@2@@std@@U?$pair@$$CBV?$basic_string@DU?$char_traits@D@std@@V?$allocator@D@2@@std@@V12@@2@U_Kfn@?$map@V?$basic_string@DU?$char_traits@D@std@@V?$allocator@D@2@@std@@V12@U?$less@V?$basic_string@DU?$char_traits@D@std@@V?$allocator@D@2@@std@@@2@V?$allocator@V?$basic_string@DU?$char_traits@D@std@@V?$allocator@D@2@@std@@@2@@2@U?$less@V?$basic_string@DU?$char_traits@D@std@@V?$allocator@D@2@@std@@@2@V?$allocator@V?$basic_string@DU?$char_traits@D@std@@V?$allocator@D@2@@std@@@2@@std@@_N@2@ABU?$pair@$$CBV?$basic_string@DU?$char_traits@D@std@@V?$allocator@D@2@@std@@V12@@2@@Z 0045bcf0 f i UiChatCentre.obj
 0001:0005af60       ?lower_bound@?$_Tree@V?$basic_string@DU?$char_traits@D@std@@V?$allocator@D@2@@std@@U?$pair@$$CBV?$basic_string@DU?$char_traits@D@std@@V?$allocator@D@2@@std@@V12@@2@U_Kfn@?$map@V?$basic_string@DU?$char_traits@D@std@@V?$allocator@D@2@@std@@V12@U?$less@V?$basic_string@DU?$char_traits@D@std@@V?$allocator@D@2@@std@@@2@V?$allocator@V?$basic_string@DU?$char_traits@D@std@@V?$allocator@D@2@@std@@@2@@2@U?$less@V?$basic_string@DU?$char_traits@D@std@@V?$allocator@D@2@@std@@@2@V?$allocator@V?$basic_string@DU?$char_traits@D@std@@V?$allocator@D@2@@std@@@2@@std@@QAE?AViterator@12@ABV?$basic_string@DU?$char_traits@D@std@@V?$allocator@D@2@@2@@Z 0045bf60 f i UiChatCentre.obj
 0001:0005afb0       ?_Copy@?$_Tree@V?$basic_string@DU?$char_traits@D@std@@V?$allocator@D@2@@std@@U?$pair@$$CBV?$basic_string@DU?$char_traits@D@std@@V?$allocator@D@2@@std@@V12@@2@U_Kfn@?$map@V?$basic_string@DU?$char_traits@D@std@@V?$allocator@D@2@@std@@V12@U?$less@V?$basic_string@DU?$char_traits@D@std@@V?$allocator@D@2@@std@@@2@V?$allocator@V?$basic_string@DU?$char_traits@D@std@@V?$allocator@D@2@@std@@@2@@2@U?$less@V?$basic_string@DU?$char_traits@D@std@@V?$allocator@D@2@@std@@@2@V?$allocator@V?$basic_string@DU?$char_traits@D@std@@V?$allocator@D@2@@std@@@2@@std@@IAEXABV12@@Z 0045bfb0 f i UiChatCentre.obj
 0001:0005b0d0       ?_Erase@?$_Tree@V?$basic_string@DU?$char_traits@D@std@@V?$allocator@D@2@@std@@U?$pair@$$CBV?$basic_string@DU?$char_traits@D@std@@V?$allocator@D@2@@std@@V12@@2@U_Kfn@?$map@V?$basic_string@DU?$char_traits@D@std@@V?$allocator@D@2@@std@@V12@U?$less@V?$basic_string@DU?$char_traits@D@std@@V?$allocator@D@2@@std@@@2@V?$allocator@V?$basic_string@DU?$char_traits@D@std@@V?$allocator@D@2@@std@@@2@@2@U?$less@V?$basic_string@DU?$char_traits@D@std@@V?$allocator@D@2@@std@@@2@V?$allocator@V?$basic_string@DU?$char_traits@D@std@@V?$allocator@D@2@@std@@@2@@std@@IAEXPAU_Node@12@@Z 0045c0d0 f i UiChatCentre.obj
 0001:0005b1c0       ?_Init@?$_Tree@V?$basic_string@DU?$char_traits@D@std@@V?$allocator@D@2@@std@@U?$pair@$$CBV?$basic_string@DU?$char_traits@D@std@@V?$allocator@D@2@@std@@V12@@2@U_Kfn@?$map@V?$basic_string@DU?$char_traits@D@std@@V?$allocator@D@2@@std@@V12@U?$less@V?$basic_string@DU?$char_traits@D@std@@V?$allocator@D@2@@std@@@2@V?$allocator@V?$basic_string@DU?$char_traits@D@std@@V?$allocator@D@2@@std@@@2@@2@U?$less@V?$basic_string@DU?$char_traits@D@std@@V?$allocator@D@2@@std@@@2@V?$allocator@V?$basic_string@DU?$char_traits@D@std@@V?$allocator@D@2@@std@@@2@@std@@IAEXXZ 0045c1c0 f i UiChatCentre.obj
 0001:0005b2d0       ?_Lmost@?$_Tree@V?$basic_string@DU?$char_traits@D@std@@V?$allocator@D@2@@std@@U?$pair@$$CBV?$basic_string@DU?$char_traits@D@std@@V?$allocator@D@2@@std@@V12@@2@U_Kfn@?$map@V?$basic_string@DU?$char_traits@D@std@@V?$allocator@D@2@@std@@V12@U?$less@V?$basic_string@DU?$char_traits@D@std@@V?$allocator@D@2@@std@@@2@V?$allocator@V?$basic_string@DU?$char_traits@D@std@@V?$allocator@D@2@@std@@@2@@2@U?$less@V?$basic_string@DU?$char_traits@D@std@@V?$allocator@D@2@@std@@@2@V?$allocator@V?$basic_string@DU?$char_traits@D@std@@V?$allocator@D@2@@std@@@2@@std@@IAEAAPAU_Node@12@XZ 0045c2d0 f i UiChatCentre.obj
 0001:0005b300       ?_Lrotate@?$_Tree@V?$basic_string@DU?$char_traits@D@std@@V?$allocator@D@2@@std@@U?$pair@$$CBV?$basic_string@DU?$char_traits@D@std@@V?$allocator@D@2@@std@@V12@@2@U_Kfn@?$map@V?$basic_string@DU?$char_traits@D@std@@V?$allocator@D@2@@std@@V12@U?$less@V?$basic_string@DU?$char_traits@D@std@@V?$allocator@D@2@@std@@@2@V?$allocator@V?$basic_string@DU?$char_traits@D@std@@V?$allocator@D@2@@std@@@2@@2@U?$less@V?$basic_string@DU?$char_traits@D@std@@V?$allocator@D@2@@std@@@2@V?$allocator@V?$basic_string@DU?$char_traits@D@std@@V?$allocator@D@2@@std@@@2@@std@@IAEXPAU_Node@12@@Z 0045c300 f i UiChatCentre.obj
 0001:0005b4a0       ?_Max@?$_Tree@V?$basic_string@DU?$char_traits@D@std@@V?$allocator@D@2@@std@@U?$pair@$$CBV?$basic_string@DU?$char_traits@D@std@@V?$allocator@D@2@@std@@V12@@2@U_Kfn@?$map@V?$basic_string@DU?$char_traits@D@std@@V?$allocator@D@2@@std@@V12@U?$less@V?$basic_string@DU?$char_traits@D@std@@V?$allocator@D@2@@std@@@2@V?$allocator@V?$basic_string@DU?$char_traits@D@std@@V?$allocator@D@2@@std@@@2@@2@U?$less@V?$basic_string@DU?$char_traits@D@std@@V?$allocator@D@2@@std@@@2@V?$allocator@V?$basic_string@DU?$char_traits@D@std@@V?$allocator@D@2@@std@@@2@@std@@KAPAU_Node@12@PAU312@@Z 0045c4a0 f i UiChatCentre.obj
 0001:0005b550       ?_Min@?$_Tree@V?$basic_string@DU?$char_traits@D@std@@V?$allocator@D@2@@std@@U?$pair@$$CBV?$basic_string@DU?$char_traits@D@std@@V?$allocator@D@2@@std@@V12@@2@U_Kfn@?$map@V?$basic_string@DU?$char_traits@D@std@@V?$allocator@D@2@@std@@V12@U?$less@V?$basic_string@DU?$char_traits@D@std@@V?$allocator@D@2@@std@@@2@V?$allocator@V?$basic_string@DU?$char_traits@D@std@@V?$allocator@D@2@@std@@@2@@2@U?$less@V?$basic_string@DU?$char_traits@D@std@@V?$allocator@D@2@@std@@@2@V?$allocator@V?$basic_string@DU?$char_traits@D@std@@V?$allocator@D@2@@std@@@2@@std@@KAPAU_Node@12@PAU312@@Z 0045c550 f i UiChatCentre.obj
 0001:0005b600       ?_Rmost@?$_Tree@V?$basic_string@DU?$char_traits@D@std@@V?$allocator@D@2@@std@@U?$pair@$$CBV?$basic_string@DU?$char_traits@D@std@@V?$allocator@D@2@@std@@V12@@2@U_Kfn@?$map@V?$basic_string@DU?$char_traits@D@std@@V?$allocator@D@2@@std@@V12@U?$less@V?$basic_string@DU?$char_traits@D@std@@V?$allocator@D@2@@std@@@2@V?$allocator@V?$basic_string@DU?$char_traits@D@std@@V?$allocator@D@2@@std@@@2@@2@U?$less@V?$basic_string@DU?$char_traits@D@std@@V?$allocator@D@2@@std@@@2@V?$allocator@V?$basic_string@DU?$char_traits@D@std@@V?$allocator@D@2@@std@@@2@@std@@IAEAAPAU_Node@12@XZ 0045c600 f i UiChatCentre.obj
 0001:0005b630       ?_Root@?$_Tree@V?$basic_string@DU?$char_traits@D@std@@V?$allocator@D@2@@std@@U?$pair@$$CBV?$basic_string@DU?$char_traits@D@std@@V?$allocator@D@2@@std@@V12@@2@U_Kfn@?$map@V?$basic_string@DU?$char_traits@D@std@@V?$allocator@D@2@@std@@V12@U?$less@V?$basic_string@DU?$char_traits@D@std@@V?$allocator@D@2@@std@@@2@V?$allocator@V?$basic_string@DU?$char_traits@D@std@@V?$allocator@D@2@@std@@@2@@2@U?$less@V?$basic_string@DU?$char_traits@D@std@@V?$allocator@D@2@@std@@@2@V?$allocator@V?$basic_string@DU?$char_traits@D@std@@V?$allocator@D@2@@std@@@2@@std@@IAEAAPAU_Node@12@XZ 0045c630 f i UiChatCentre.obj
 0001:0005b660       ?_Rrotate@?$_Tree@V?$basic_string@DU?$char_traits@D@std@@V?$allocator@D@2@@std@@U?$pair@$$CBV?$basic_string@DU?$char_traits@D@std@@V?$allocator@D@2@@std@@V12@@2@U_Kfn@?$map@V?$basic_string@DU?$char_traits@D@std@@V?$allocator@D@2@@std@@V12@U?$less@V?$basic_string@DU?$char_traits@D@std@@V?$allocator@D@2@@std@@@2@V?$allocator@V?$basic_string@DU?$char_traits@D@std@@V?$allocator@D@2@@std@@@2@@2@U?$less@V?$basic_string@DU?$char_traits@D@std@@V?$allocator@D@2@@std@@@2@V?$allocator@V?$basic_string@DU?$char_traits@D@std@@V?$allocator@D@2@@std@@@2@@std@@IAEXPAU_Node@12@@Z 0045c660 f i UiChatCentre.obj
 0001:0005b800       ?_Destval@?$_Tree@V?$basic_string@DU?$char_traits@D@std@@V?$allocator@D@2@@std@@U?$pair@$$CBV?$basic_string@DU?$char_traits@D@std@@V?$allocator@D@2@@std@@V12@@2@U_Kfn@?$map@V?$basic_string@DU?$char_traits@D@std@@V?$allocator@D@2@@std@@V12@U?$less@V?$basic_string@DU?$char_traits@D@std@@V?$allocator@D@2@@std@@@2@V?$allocator@V?$basic_string@DU?$char_traits@D@std@@V?$allocator@D@2@@std@@@2@@2@U?$less@V?$basic_string@DU?$char_traits@D@std@@V?$allocator@D@2@@std@@@2@V?$allocator@V?$basic_string@DU?$char_traits@D@std@@V?$allocator@D@2@@std@@@2@@std@@IAEXPAU?$pair@$$CBV?$basic_string@DU?$char_traits@D@std@@V?$allocator@D@2@@std@@V12@@2@@Z 0045c800 f i UiChatCentre.obj
 0001:0005b830       ?_Inc@const_iterator@?$_Tree@V?$basic_string@DU?$char_traits@D@std@@V?$allocator@D@2@@std@@U?$pair@$$CBV?$basic_string@DU?$char_traits@D@std@@V?$allocator@D@2@@std@@V12@@2@U_Kfn@?$map@V?$basic_string@DU?$char_traits@D@std@@V?$allocator@D@2@@std@@V12@U?$less@V?$basic_string@DU?$char_traits@D@std@@V?$allocator@D@2@@std@@@2@V?$allocator@V?$basic_string@DU?$char_traits@D@std@@V?$allocator@D@2@@std@@@2@@2@U?$less@V?$basic_string@DU?$char_traits@D@std@@V?$allocator@D@2@@std@@@2@V?$allocator@V?$basic_string@DU?$char_traits@D@std@@V?$allocator@D@2@@std@@@2@@std@@QAEXXZ 0045c830 f i UiChatCentre.obj
 0001:0005b940       ?_Mynode@const_iterator@?$_Tree@V?$basic_string@DU?$char_traits@D@std@@V?$allocator@D@2@@std@@U?$pair@$$CBV?$basic_string@DU?$char_traits@D@std@@V?$allocator@D@2@@std@@V12@@2@U_Kfn@?$map@V?$basic_string@DU?$char_traits@D@std@@V?$allocator@D@2@@std@@V12@U?$less@V?$basic_string@DU?$char_traits@D@std@@V?$allocator@D@2@@std@@@2@V?$allocator@V?$basic_string@DU?$char_traits@D@std@@V?$allocator@D@2@@std@@@2@@2@U?$less@V?$basic_string@DU?$char_traits@D@std@@V?$allocator@D@2@@std@@@2@V?$allocator@V?$basic_string@DU?$char_traits@D@std@@V?$allocator@D@2@@std@@@2@@std@@QBEPAU_Node@23@XZ 0045c940 f i UiChatCentre.obj
 0001:0005b960       ??0iterator@?$_Tree@V?$basic_string@DU?$char_traits@D@std@@V?$allocator@D@2@@std@@U?$pair@$$CBV?$basic_string@DU?$char_traits@D@std@@V?$allocator@D@2@@std@@V12@@2@U_Kfn@?$map@V?$basic_string@DU?$char_traits@D@std@@V?$allocator@D@2@@std@@V12@U?$less@V?$basic_string@DU?$char_traits@D@std@@V?$allocator@D@2@@std@@@2@V?$allocator@V?$basic_string@DU?$char_traits@D@std@@V?$allocator@D@2@@std@@@2@@2@U?$less@V?$basic_string@DU?$char_traits@D@std@@V?$allocator@D@2@@std@@@2@V?$allocator@V?$basic_string@DU?$char_traits@D@std@@V?$allocator@D@2@@std@@@2@@std@@QAE@PAU_Node@12@@Z 0045c960 f i UiChatCentre.obj
 0001:0005b990       ?deallocate@?$allocator@E@std@@QAEXPAXI@Z 0045c990 f i UiChatCentre.obj
 0001:0005b9c0       ?_Key@?$_Tree@V?$basic_string@DU?$char_traits@D@std@@V?$allocator@D@2@@std@@U?$pair@$$CBV?$basic_string@DU?$char_traits@D@std@@V?$allocator@D@2@@std@@E@2@U_Kfn@?$map@V?$basic_string@DU?$char_traits@D@std@@V?$allocator@D@2@@std@@EU?$less@V?$basic_string@DU?$char_traits@D@std@@V?$allocator@D@2@@std@@@2@V?$allocator@E@2@@2@U?$less@V?$basic_string@DU?$char_traits@D@std@@V?$allocator@D@2@@std@@@2@V?$allocator@E@2@@std@@KAABV?$basic_string@DU?$char_traits@D@std@@V?$allocator@D@2@@2@PAU_Node@12@@Z 0045c9c0 f i UiChatCentre.obj
 0001:0005b9f0       ?_Value@?$_Tree@V?$basic_string@DU?$char_traits@D@std@@V?$allocator@D@2@@std@@U?$pair@$$CBV?$basic_string@DU?$char_traits@D@std@@V?$allocator@D@2@@std@@E@2@U_Kfn@?$map@V?$basic_string@DU?$char_traits@D@std@@V?$allocator@D@2@@std@@EU?$less@V?$basic_string@DU?$char_traits@D@std@@V?$allocator@D@2@@std@@@2@V?$allocator@E@2@@2@U?$less@V?$basic_string@DU?$char_traits@D@std@@V?$allocator@D@2@@std@@@2@V?$allocator@E@2@@std@@KAAAU?$pair@$$CBV?$basic_string@DU?$char_traits@D@std@@V?$allocator@D@2@@std@@E@2@PAU_Node@12@@Z 0045c9f0 f i UiChatCentre.obj
 0001:0005ba00       ?size@?$_Tree@V?$basic_string@DU?$char_traits@D@std@@V?$allocator@D@2@@std@@U?$pair@$$CBV?$basic_string@DU?$char_traits@D@std@@V?$allocator@D@2@@std@@E@2@U_Kfn@?$map@V?$basic_string@DU?$char_traits@D@std@@V?$allocator@D@2@@std@@EU?$less@V?$basic_string@DU?$char_traits@D@std@@V?$allocator@D@2@@std@@@2@V?$allocator@E@2@@2@U?$less@V?$basic_string@DU?$char_traits@D@std@@V?$allocator@D@2@@std@@@2@V?$allocator@E@2@@std@@QBEIXZ 0045ca00 f i UiChatCentre.obj
 0001:0005ba20       ?insert@?$_Tree@V?$basic_string@DU?$char_traits@D@std@@V?$allocator@D@2@@std@@U?$pair@$$CBV?$basic_string@DU?$char_traits@D@std@@V?$allocator@D@2@@std@@E@2@U_Kfn@?$map@V?$basic_string@DU?$char_traits@D@std@@V?$allocator@D@2@@std@@EU?$less@V?$basic_string@DU?$char_traits@D@std@@V?$allocator@D@2@@std@@@2@V?$allocator@E@2@@2@U?$less@V?$basic_string@DU?$char_traits@D@std@@V?$allocator@D@2@@std@@@2@V?$allocator@E@2@@std@@QAE?AU?$pair@Viterator@?$_Tree@V?$basic_string@DU?$char_traits@D@std@@V?$allocator@D@2@@std@@U?$pair@$$CBV?$basic_string@DU?$char_traits@D@std@@V?$allocator@D@2@@std@@E@2@U_Kfn@?$map@V?$basic_string@DU?$char_traits@D@std@@V?$allocator@D@2@@std@@EU?$less@V?$basic_string@DU?$char_traits@D@std@@V?$allocator@D@2@@std@@@2@V?$allocator@E@2@@2@U?$less@V?$basic_string@DU?$char_traits@D@std@@V?$allocator@D@2@@std@@@2@V?$allocator@E@2@@std@@_N@2@ABU?$pair@$$CBV?$basic_string@DU?$char_traits@D@std@@V?$allocator@D@2@@std@@E@2@@Z 0045ca20 f i UiChatCentre.obj
 0001:0005bc90       ?erase@?$_Tree@V?$basic_string@DU?$char_traits@D@std@@V?$allocator@D@2@@std@@U?$pair@$$CBV?$basic_string@DU?$char_traits@D@std@@V?$allocator@D@2@@std@@E@2@U_Kfn@?$map@V?$basic_string@DU?$char_traits@D@std@@V?$allocator@D@2@@std@@EU?$less@V?$basic_string@DU?$char_traits@D@std@@V?$allocator@D@2@@std@@@2@V?$allocator@E@2@@2@U?$less@V?$basic_string@DU?$char_traits@D@std@@V?$allocator@D@2@@std@@@2@V?$allocator@E@2@@std@@QAE?AViterator@12@V312@@Z 0045cc90 f i UiChatCentre.obj
 0001:0005c520       ?lower_bound@?$_Tree@V?$basic_string@DU?$char_traits@D@std@@V?$allocator@D@2@@std@@U?$pair@$$CBV?$basic_string@DU?$char_traits@D@std@@V?$allocator@D@2@@std@@E@2@U_Kfn@?$map@V?$basic_string@DU?$char_traits@D@std@@V?$allocator@D@2@@std@@EU?$less@V?$basic_string@DU?$char_traits@D@std@@V?$allocator@D@2@@std@@@2@V?$allocator@E@2@@2@U?$less@V?$basic_string@DU?$char_traits@D@std@@V?$allocator@D@2@@std@@@2@V?$allocator@E@2@@std@@QAE?AViterator@12@ABV?$basic_string@DU?$char_traits@D@std@@V?$allocator@D@2@@2@@Z 0045d520 f i UiChatCentre.obj
 0001:0005c570       ?_Copy@?$_Tree@V?$basic_string@DU?$char_traits@D@std@@V?$allocator@D@2@@std@@U?$pair@$$CBV?$basic_string@DU?$char_traits@D@std@@V?$allocator@D@2@@std@@E@2@U_Kfn@?$map@V?$basic_string@DU?$char_traits@D@std@@V?$allocator@D@2@@std@@EU?$less@V?$basic_string@DU?$char_traits@D@std@@V?$allocator@D@2@@std@@@2@V?$allocator@E@2@@2@U?$less@V?$basic_string@DU?$char_traits@D@std@@V?$allocator@D@2@@std@@@2@V?$allocator@E@2@@std@@IAEXABV12@@Z 0045d570 f i UiChatCentre.obj
 0001:0005c690       ?_Erase@?$_Tree@V?$basic_string@DU?$char_traits@D@std@@V?$allocator@D@2@@std@@U?$pair@$$CBV?$basic_string@DU?$char_traits@D@std@@V?$allocator@D@2@@std@@E@2@U_Kfn@?$map@V?$basic_string@DU?$char_traits@D@std@@V?$allocator@D@2@@std@@EU?$less@V?$basic_string@DU?$char_traits@D@std@@V?$allocator@D@2@@std@@@2@V?$allocator@E@2@@2@U?$less@V?$basic_string@DU?$char_traits@D@std@@V?$allocator@D@2@@std@@@2@V?$allocator@E@2@@std@@IAEXPAU_Node@12@@Z 0045d690 f i UiChatCentre.obj
 0001:0005c780       ?_Init@?$_Tree@V?$basic_string@DU?$char_traits@D@std@@V?$allocator@D@2@@std@@U?$pair@$$CBV?$basic_string@DU?$char_traits@D@std@@V?$allocator@D@2@@std@@E@2@U_Kfn@?$map@V?$basic_string@DU?$char_traits@D@std@@V?$allocator@D@2@@std@@EU?$less@V?$basic_string@DU?$char_traits@D@std@@V?$allocator@D@2@@std@@@2@V?$allocator@E@2@@2@U?$less@V?$basic_string@DU?$char_traits@D@std@@V?$allocator@D@2@@std@@@2@V?$allocator@E@2@@std@@IAEXXZ 0045d780 f i UiChatCentre.obj
 0001:0005c890       ?_Lmost@?$_Tree@V?$basic_string@DU?$char_traits@D@std@@V?$allocator@D@2@@std@@U?$pair@$$CBV?$basic_string@DU?$char_traits@D@std@@V?$allocator@D@2@@std@@E@2@U_Kfn@?$map@V?$basic_string@DU?$char_traits@D@std@@V?$allocator@D@2@@std@@EU?$less@V?$basic_string@DU?$char_traits@D@std@@V?$allocator@D@2@@std@@@2@V?$allocator@E@2@@2@U?$less@V?$basic_string@DU?$char_traits@D@std@@V?$allocator@D@2@@std@@@2@V?$allocator@E@2@@std@@IAEAAPAU_Node@12@XZ 0045d890 f i UiChatCentre.obj
 0001:0005c8c0       ?_Rmost@?$_Tree@V?$basic_string@DU?$char_traits@D@std@@V?$allocator@D@2@@std@@U?$pair@$$CBV?$basic_string@DU?$char_traits@D@std@@V?$allocator@D@2@@std@@E@2@U_Kfn@?$map@V?$basic_string@DU?$char_traits@D@std@@V?$allocator@D@2@@std@@EU?$less@V?$basic_string@DU?$char_traits@D@std@@V?$allocator@D@2@@std@@@2@V?$allocator@E@2@@2@U?$less@V?$basic_string@DU?$char_traits@D@std@@V?$allocator@D@2@@std@@@2@V?$allocator@E@2@@std@@IAEAAPAU_Node@12@XZ 0045d8c0 f i UiChatCentre.obj
 0001:0005c8f0       ?_Root@?$_Tree@V?$basic_string@DU?$char_traits@D@std@@V?$allocator@D@2@@std@@U?$pair@$$CBV?$basic_string@DU?$char_traits@D@std@@V?$allocator@D@2@@std@@E@2@U_Kfn@?$map@V?$basic_string@DU?$char_traits@D@std@@V?$allocator@D@2@@std@@EU?$less@V?$basic_string@DU?$char_traits@D@std@@V?$allocator@D@2@@std@@@2@V?$allocator@E@2@@2@U?$less@V?$basic_string@DU?$char_traits@D@std@@V?$allocator@D@2@@std@@@2@V?$allocator@E@2@@std@@IAEAAPAU_Node@12@XZ 0045d8f0 f i UiChatCentre.obj
 0001:0005c920       ?_Mynode@const_iterator@?$_Tree@V?$basic_string@DU?$char_traits@D@std@@V?$allocator@D@2@@std@@U?$pair@$$CBV?$basic_string@DU?$char_traits@D@std@@V?$allocator@D@2@@std@@E@2@U_Kfn@?$map@V?$basic_string@DU?$char_traits@D@std@@V?$allocator@D@2@@std@@EU?$less@V?$basic_string@DU?$char_traits@D@std@@V?$allocator@D@2@@std@@@2@V?$allocator@E@2@@2@U?$less@V?$basic_string@DU?$char_traits@D@std@@V?$allocator@D@2@@std@@@2@V?$allocator@E@2@@std@@QBEPAU_Node@23@XZ 0045d920 f i UiChatCentre.obj
 0001:0005c940       ??0iterator@?$_Tree@V?$basic_string@DU?$char_traits@D@std@@V?$allocator@D@2@@std@@U?$pair@$$CBV?$basic_string@DU?$char_traits@D@std@@V?$allocator@D@2@@std@@E@2@U_Kfn@?$map@V?$basic_string@DU?$char_traits@D@std@@V?$allocator@D@2@@std@@EU?$less@V?$basic_string@DU?$char_traits@D@std@@V?$allocator@D@2@@std@@@2@V?$allocator@E@2@@2@U?$less@V?$basic_string@DU?$char_traits@D@std@@V?$allocator@D@2@@std@@@2@V?$allocator@E@2@@std@@QAE@PAU_Node@12@@Z 0045d940 f i UiChatCentre.obj
 0001:0005c970       ??Eiterator@?$_Tree@V?$basic_string@DU?$char_traits@D@std@@V?$allocator@D@2@@std@@U?$pair@$$CBV?$basic_string@DU?$char_traits@D@std@@V?$allocator@D@2@@std@@E@2@U_Kfn@?$map@V?$basic_string@DU?$char_traits@D@std@@V?$allocator@D@2@@std@@EU?$less@V?$basic_string@DU?$char_traits@D@std@@V?$allocator@D@2@@std@@@2@V?$allocator@E@2@@2@U?$less@V?$basic_string@DU?$char_traits@D@std@@V?$allocator@D@2@@std@@@2@V?$allocator@E@2@@std@@QAE?AV012@H@Z 0045d970 f i UiChatCentre.obj
 0001:0005c9c0       ?erase@?$list@V?$basic_string@DU?$char_traits@D@std@@V?$allocator@D@2@@std@@V?$allocator@V?$basic_string@DU?$char_traits@D@std@@V?$allocator@D@2@@std@@@2@@std@@QAE?AViterator@12@V312@@Z 0045d9c0 f i UiChatCentre.obj
 0001:0005caa0       ?_Prev@_Acc@?$list@V?$basic_string@DU?$char_traits@D@std@@V?$allocator@D@2@@std@@V?$allocator@V?$basic_string@DU?$char_traits@D@std@@V?$allocator@D@2@@std@@@2@@std@@SAAAPAU_Node@23@PAU423@@Z 0045daa0 f i UiChatCentre.obj
 0001:0005cab0       ?_Mynode@const_iterator@?$list@V?$basic_string@DU?$char_traits@D@std@@V?$allocator@D@2@@std@@V?$allocator@V?$basic_string@DU?$char_traits@D@std@@V?$allocator@D@2@@std@@@2@@std@@QBEPAU_Node@23@XZ 0045dab0 f i UiChatCentre.obj
 0001:0005cad0       ??0iterator@?$list@V?$basic_string@DU?$char_traits@D@std@@V?$allocator@D@2@@std@@V?$allocator@V?$basic_string@DU?$char_traits@D@std@@V?$allocator@D@2@@std@@@2@@std@@QAE@PAU_Node@12@@Z 0045dad0 f i UiChatCentre.obj
 0001:0005cb00       ??Eiterator@?$list@V?$basic_string@DU?$char_traits@D@std@@V?$allocator@D@2@@std@@V?$allocator@V?$basic_string@DU?$char_traits@D@std@@V?$allocator@D@2@@std@@@2@@std@@QAE?AV012@H@Z 0045db00 f i UiChatCentre.obj
 0001:0005cb50       ??9iterator@?$list@V?$basic_string@DU?$char_traits@D@std@@V?$allocator@D@2@@std@@V?$allocator@V?$basic_string@DU?$char_traits@D@std@@V?$allocator@D@2@@std@@@2@@std@@QBE_NABV012@@Z 0045db50 f i UiChatCentre.obj
 0001:0005cb90       ??0?$pair@Viterator@?$_Tree@V?$basic_string@DU?$char_traits@D@std@@V?$allocator@D@2@@std@@U?$pair@$$CBV?$basic_string@DU?$char_traits@D@std@@V?$allocator@D@2@@std@@V12@@2@U_Kfn@?$map@V?$basic_string@DU?$char_traits@D@std@@V?$allocator@D@2@@std@@V12@U?$less@V?$basic_string@DU?$char_traits@D@std@@V?$allocator@D@2@@std@@@2@V?$allocator@V?$basic_string@DU?$char_traits@D@std@@V?$allocator@D@2@@std@@@2@@2@U?$less@V?$basic_string@DU?$char_traits@D@std@@V?$allocator@D@2@@std@@@2@V?$allocator@V?$basic_string@DU?$char_traits@D@std@@V?$allocator@D@2@@std@@@2@@std@@_N@std@@QAE@ABViterator@?$_Tree@V?$basic_string@DU?$char_traits@D@std@@V?$allocator@D@2@@std@@U?$pair@$$CBV?$basic_string@DU?$char_traits@D@std@@V?$allocator@D@2@@std@@V12@@2@U_Kfn@?$map@V?$basic_string@DU?$char_traits@D@std@@V?$allocator@D@2@@std@@V12@U?$less@V?$basic_string@DU?$char_traits@D@std@@V?$allocator@D@2@@std@@@2@V?$allocator@V?$basic_string@DU?$char_traits@D@std@@V?$allocator@D@2@@std@@@2@@2@U?$less@V?$basic_string@DU?$char_traits@D@std@@V?$allocator@D@2@@std@@@2@V?$allocator@V?$basic_string@DU?$char_traits@D@std@@V?$allocator@D@2@@std@@@2@@1@AB_N@Z 0045db90 f i UiChatCentre.obj
 0001:0005cbc0       ??0?$pair@Viterator@?$_Tree@V?$basic_string@DU?$char_traits@D@std@@V?$allocator@D@2@@std@@U?$pair@$$CBV?$basic_string@DU?$char_traits@D@std@@V?$allocator@D@2@@std@@E@2@U_Kfn@?$map@V?$basic_string@DU?$char_traits@D@std@@V?$allocator@D@2@@std@@EU?$less@V?$basic_string@DU?$char_traits@D@std@@V?$allocator@D@2@@std@@@2@V?$allocator@E@2@@2@U?$less@V?$basic_string@DU?$char_traits@D@std@@V?$allocator@D@2@@std@@@2@V?$allocator@E@2@@std@@_N@std@@QAE@ABViterator@?$_Tree@V?$basic_string@DU?$char_traits@D@std@@V?$allocator@D@2@@std@@U?$pair@$$CBV?$basic_string@DU?$char_traits@D@std@@V?$allocator@D@2@@std@@E@2@U_Kfn@?$map@V?$basic_string@DU?$char_traits@D@std@@V?$allocator@D@2@@std@@EU?$less@V?$basic_string@DU?$char_traits@D@std@@V?$allocator@D@2@@std@@@2@V?$allocator@E@2@@2@U?$less@V?$basic_string@DU?$char_traits@D@std@@V?$allocator@D@2@@std@@@2@V?$allocator@E@2@@1@AB_N@Z 0045dbc0 f i UiChatCentre.obj
 0001:0005cbf0       ??R_Kfn@?$map@V?$basic_string@DU?$char_traits@D@std@@V?$allocator@D@2@@std@@V12@U?$less@V?$basic_string@DU?$char_traits@D@std@@V?$allocator@D@2@@std@@@2@V?$allocator@V?$basic_string@DU?$char_traits@D@std@@V?$allocator@D@2@@std@@@2@@std@@QBEABV?$basic_string@DU?$char_traits@D@std@@V?$allocator@D@2@@2@ABU?$pair@$$CBV?$basic_string@DU?$char_traits@D@std@@V?$allocator@D@2@@std@@V12@@2@@Z 0045dbf0 f i UiChatCentre.obj
 0001:0005cc10       ?destroy@?$allocator@V?$basic_string@DU?$char_traits@D@std@@V?$allocator@D@2@@std@@@std@@QAEXPAV?$basic_string@DU?$char_traits@D@std@@V?$allocator@D@2@@2@@Z 0045dc10 f i UiChatCentre.obj
 0001:0005cc40       ?_Copy@?$_Tree@V?$basic_string@DU?$char_traits@D@std@@V?$allocator@D@2@@std@@U?$pair@$$CBV?$basic_string@DU?$char_traits@D@std@@V?$allocator@D@2@@std@@V12@@2@U_Kfn@?$map@V?$basic_string@DU?$char_traits@D@std@@V?$allocator@D@2@@std@@V12@U?$less@V?$basic_string@DU?$char_traits@D@std@@V?$allocator@D@2@@std@@@2@V?$allocator@V?$basic_string@DU?$char_traits@D@std@@V?$allocator@D@2@@std@@@2@@2@U?$less@V?$basic_string@DU?$char_traits@D@std@@V?$allocator@D@2@@std@@@2@V?$allocator@V?$basic_string@DU?$char_traits@D@std@@V?$allocator@D@2@@std@@@2@@std@@IAEPAU_Node@12@PAU312@0@Z 0045dc40 f i UiChatCentre.obj
 0001:0005cda0       ?_Insert@?$_Tree@V?$basic_string@DU?$char_traits@D@std@@V?$allocator@D@2@@std@@U?$pair@$$CBV?$basic_string@DU?$char_traits@D@std@@V?$allocator@D@2@@std@@V12@@2@U_Kfn@?$map@V?$basic_string@DU?$char_traits@D@std@@V?$allocator@D@2@@std@@V12@U?$less@V?$basic_string@DU?$char_traits@D@std@@V?$allocator@D@2@@std@@@2@V?$allocator@V?$basic_string@DU?$char_traits@D@std@@V?$allocator@D@2@@std@@@2@@2@U?$less@V?$basic_string@DU?$char_traits@D@std@@V?$allocator@D@2@@std@@@2@V?$allocator@V?$basic_string@DU?$char_traits@D@std@@V?$allocator@D@2@@std@@@2@@std@@IAE?AViterator@12@PAU_Node@12@0ABU?$pair@$$CBV?$basic_string@DU?$char_traits@D@std@@V?$allocator@D@2@@std@@V12@@2@@Z 0045dda0 f i UiChatCentre.obj
 0001:0005d2a0       ?_Lbound@?$_Tree@V?$basic_string@DU?$char_traits@D@std@@V?$allocator@D@2@@std@@U?$pair@$$CBV?$basic_string@DU?$char_traits@D@std@@V?$allocator@D@2@@std@@V12@@2@U_Kfn@?$map@V?$basic_string@DU?$char_traits@D@std@@V?$allocator@D@2@@std@@V12@U?$less@V?$basic_string@DU?$char_traits@D@std@@V?$allocator@D@2@@std@@@2@V?$allocator@V?$basic_string@DU?$char_traits@D@std@@V?$allocator@D@2@@std@@@2@@2@U?$less@V?$basic_string@DU?$char_traits@D@std@@V?$allocator@D@2@@std@@@2@V?$allocator@V?$basic_string@DU?$char_traits@D@std@@V?$allocator@D@2@@std@@@2@@std@@IBEPAU_Node@12@ABV?$basic_string@DU?$char_traits@D@std@@V?$allocator@D@2@@2@@Z 0045e2a0 f i UiChatCentre.obj
 0001:0005d3a0       ?_Root@?$_Tree@V?$basic_string@DU?$char_traits@D@std@@V?$allocator@D@2@@std@@U?$pair@$$CBV?$basic_string@DU?$char_traits@D@std@@V?$allocator@D@2@@std@@V12@@2@U_Kfn@?$map@V?$basic_string@DU?$char_traits@D@std@@V?$allocator@D@2@@std@@V12@U?$less@V?$basic_string@DU?$char_traits@D@std@@V?$allocator@D@2@@std@@@2@V?$allocator@V?$basic_string@DU?$char_traits@D@std@@V?$allocator@D@2@@std@@@2@@2@U?$less@V?$basic_string@DU?$char_traits@D@std@@V?$allocator@D@2@@std@@@2@V?$allocator@V?$basic_string@DU?$char_traits@D@std@@V?$allocator@D@2@@std@@@2@@std@@IBEAAPAU_Node@12@XZ 0045e3a0 f i UiChatCentre.obj
 0001:0005d3d0       ?_Buynode@?$_Tree@V?$basic_string@DU?$char_traits@D@std@@V?$allocator@D@2@@std@@U?$pair@$$CBV?$basic_string@DU?$char_traits@D@std@@V?$allocator@D@2@@std@@V12@@2@U_Kfn@?$map@V?$basic_string@DU?$char_traits@D@std@@V?$allocator@D@2@@std@@V12@U?$less@V?$basic_string@DU?$char_traits@D@std@@V?$allocator@D@2@@std@@@2@V?$allocator@V?$basic_string@DU?$char_traits@D@std@@V?$allocator@D@2@@std@@@2@@2@U?$less@V?$basic_string@DU?$char_traits@D@std@@V?$allocator@D@2@@std@@@2@V?$allocator@V?$basic_string@DU?$char_traits@D@std@@V?$allocator@D@2@@std@@@2@@std@@IAEPAU_Node@12@PAU312@W4_Redbl@12@@Z 0045e3d0 f i UiChatCentre.obj
 0001:0005d430       ??0const_iterator@?$_Tree@V?$basic_string@DU?$char_traits@D@std@@V?$allocator@D@2@@std@@U?$pair@$$CBV?$basic_string@DU?$char_traits@D@std@@V?$allocator@D@2@@std@@V12@@2@U_Kfn@?$map@V?$basic_string@DU?$char_traits@D@std@@V?$allocator@D@2@@std@@V12@U?$less@V?$basic_string@DU?$char_traits@D@std@@V?$allocator@D@2@@std@@@2@V?$allocator@V?$basic_string@DU?$char_traits@D@std@@V?$allocator@D@2@@std@@@2@@2@U?$less@V?$basic_string@DU?$char_traits@D@std@@V?$allocator@D@2@@std@@@2@V?$allocator@V?$basic_string@DU?$char_traits@D@std@@V?$allocator@D@2@@std@@@2@@std@@QAE@PAU_Node@12@@Z 0045e430 f i UiChatCentre.obj
 0001:0005d450       ??Fiterator@?$_Tree@V?$basic_string@DU?$char_traits@D@std@@V?$allocator@D@2@@std@@U?$pair@$$CBV?$basic_string@DU?$char_traits@D@std@@V?$allocator@D@2@@std@@V12@@2@U_Kfn@?$map@V?$basic_string@DU?$char_traits@D@std@@V?$allocator@D@2@@std@@V12@U?$less@V?$basic_string@DU?$char_traits@D@std@@V?$allocator@D@2@@std@@@2@V?$allocator@V?$basic_string@DU?$char_traits@D@std@@V?$allocator@D@2@@std@@@2@@2@U?$less@V?$basic_string@DU?$char_traits@D@std@@V?$allocator@D@2@@std@@@2@V?$allocator@V?$basic_string@DU?$char_traits@D@std@@V?$allocator@D@2@@std@@@2@@std@@QAEAAV012@XZ 0045e450 f i UiChatCentre.obj
 0001:0005d480       ??R_Kfn@?$map@V?$basic_string@DU?$char_traits@D@std@@V?$allocator@D@2@@std@@EU?$less@V?$basic_string@DU?$char_traits@D@std@@V?$allocator@D@2@@std@@@2@V?$allocator@E@2@@std@@QBEABV?$basic_string@DU?$char_traits@D@std@@V?$allocator@D@2@@2@ABU?$pair@$$CBV?$basic_string@DU?$char_traits@D@std@@V?$allocator@D@2@@std@@E@2@@Z 0045e480 f i UiChatCentre.obj
 0001:0005d4a0       ?_Color@?$_Tree@V?$basic_string@DU?$char_traits@D@std@@V?$allocator@D@2@@std@@U?$pair@$$CBV?$basic_string@DU?$char_traits@D@std@@V?$allocator@D@2@@std@@E@2@U_Kfn@?$map@V?$basic_string@DU?$char_traits@D@std@@V?$allocator@D@2@@std@@EU?$less@V?$basic_string@DU?$char_traits@D@std@@V?$allocator@D@2@@std@@@2@V?$allocator@E@2@@2@U?$less@V?$basic_string@DU?$char_traits@D@std@@V?$allocator@D@2@@std@@@2@V?$allocator@E@2@@std@@KAAAW4_Redbl@12@PAU_Node@12@@Z 0045e4a0 f i UiChatCentre.obj
 0001:0005d4b0       ?_Left@?$_Tree@V?$basic_string@DU?$char_traits@D@std@@V?$allocator@D@2@@std@@U?$pair@$$CBV?$basic_string@DU?$char_traits@D@std@@V?$allocator@D@2@@std@@E@2@U_Kfn@?$map@V?$basic_string@DU?$char_traits@D@std@@V?$allocator@D@2@@std@@EU?$less@V?$basic_string@DU?$char_traits@D@std@@V?$allocator@D@2@@std@@@2@V?$allocator@E@2@@2@U?$less@V?$basic_string@DU?$char_traits@D@std@@V?$allocator@D@2@@std@@@2@V?$allocator@E@2@@std@@KAAAPAU_Node@12@PAU312@@Z 0045e4b0 f i UiChatCentre.obj
 0001:0005d4c0       ?_Parent@?$_Tree@V?$basic_string@DU?$char_traits@D@std@@V?$allocator@D@2@@std@@U?$pair@$$CBV?$basic_string@DU?$char_traits@D@std@@V?$allocator@D@2@@std@@E@2@U_Kfn@?$map@V?$basic_string@DU?$char_traits@D@std@@V?$allocator@D@2@@std@@EU?$less@V?$basic_string@DU?$char_traits@D@std@@V?$allocator@D@2@@std@@@2@V?$allocator@E@2@@2@U?$less@V?$basic_string@DU?$char_traits@D@std@@V?$allocator@D@2@@std@@@2@V?$allocator@E@2@@std@@KAAAPAU_Node@12@PAU312@@Z 0045e4c0 f i UiChatCentre.obj
 0001:0005d4d0       ?_Right@?$_Tree@V?$basic_string@DU?$char_traits@D@std@@V?$allocator@D@2@@std@@U?$pair@$$CBV?$basic_string@DU?$char_traits@D@std@@V?$allocator@D@2@@std@@E@2@U_Kfn@?$map@V?$basic_string@DU?$char_traits@D@std@@V?$allocator@D@2@@std@@EU?$less@V?$basic_string@DU?$char_traits@D@std@@V?$allocator@D@2@@std@@@2@V?$allocator@E@2@@2@U?$less@V?$basic_string@DU?$char_traits@D@std@@V?$allocator@D@2@@std@@@2@V?$allocator@E@2@@std@@KAAAPAU_Node@12@PAU312@@Z 0045e4d0 f i UiChatCentre.obj
 0001:0005d4e0       ?_Copy@?$_Tree@V?$basic_string@DU?$char_traits@D@std@@V?$allocator@D@2@@std@@U?$pair@$$CBV?$basic_string@DU?$char_traits@D@std@@V?$allocator@D@2@@std@@E@2@U_Kfn@?$map@V?$basic_string@DU?$char_traits@D@std@@V?$allocator@D@2@@std@@EU?$less@V?$basic_string@DU?$char_traits@D@std@@V?$allocator@D@2@@std@@@2@V?$allocator@E@2@@2@U?$less@V?$basic_string@DU?$char_traits@D@std@@V?$allocator@D@2@@std@@@2@V?$allocator@E@2@@std@@IAEPAU_Node@12@PAU312@0@Z 0045e4e0 f i UiChatCentre.obj
 0001:0005d640       ?_Insert@?$_Tree@V?$basic_string@DU?$char_traits@D@std@@V?$allocator@D@2@@std@@U?$pair@$$CBV?$basic_string@DU?$char_traits@D@std@@V?$allocator@D@2@@std@@E@2@U_Kfn@?$map@V?$basic_string@DU?$char_traits@D@std@@V?$allocator@D@2@@std@@EU?$less@V?$basic_string@DU?$char_traits@D@std@@V?$allocator@D@2@@std@@@2@V?$allocator@E@2@@2@U?$less@V?$basic_string@DU?$char_traits@D@std@@V?$allocator@D@2@@std@@@2@V?$allocator@E@2@@std@@IAE?AViterator@12@PAU_Node@12@0ABU?$pair@$$CBV?$basic_string@DU?$char_traits@D@std@@V?$allocator@D@2@@std@@E@2@@Z 0045e640 f i UiChatCentre.obj
 0001:0005db40       ?_Lbound@?$_Tree@V?$basic_string@DU?$char_traits@D@std@@V?$allocator@D@2@@std@@U?$pair@$$CBV?$basic_string@DU?$char_traits@D@std@@V?$allocator@D@2@@std@@E@2@U_Kfn@?$map@V?$basic_string@DU?$char_traits@D@std@@V?$allocator@D@2@@std@@EU?$less@V?$basic_string@DU?$char_traits@D@std@@V?$allocator@D@2@@std@@@2@V?$allocator@E@2@@2@U?$less@V?$basic_string@DU?$char_traits@D@std@@V?$allocator@D@2@@std@@@2@V?$allocator@E@2@@std@@IBEPAU_Node@12@ABV?$basic_string@DU?$char_traits@D@std@@V?$allocator@D@2@@2@@Z 0045eb40 f i UiChatCentre.obj
 0001:0005dc40       ?_Lrotate@?$_Tree@V?$basic_string@DU?$char_traits@D@std@@V?$allocator@D@2@@std@@U?$pair@$$CBV?$basic_string@DU?$char_traits@D@std@@V?$allocator@D@2@@std@@E@2@U_Kfn@?$map@V?$basic_string@DU?$char_traits@D@std@@V?$allocator@D@2@@std@@EU?$less@V?$basic_string@DU?$char_traits@D@std@@V?$allocator@D@2@@std@@@2@V?$allocator@E@2@@2@U?$less@V?$basic_string@DU?$char_traits@D@std@@V?$allocator@D@2@@std@@@2@V?$allocator@E@2@@std@@IAEXPAU_Node@12@@Z 0045ec40 f i UiChatCentre.obj
 0001:0005dde0       ?_Max@?$_Tree@V?$basic_string@DU?$char_traits@D@std@@V?$allocator@D@2@@std@@U?$pair@$$CBV?$basic_string@DU?$char_traits@D@std@@V?$allocator@D@2@@std@@E@2@U_Kfn@?$map@V?$basic_string@DU?$char_traits@D@std@@V?$allocator@D@2@@std@@EU?$less@V?$basic_string@DU?$char_traits@D@std@@V?$allocator@D@2@@std@@@2@V?$allocator@E@2@@2@U?$less@V?$basic_string@DU?$char_traits@D@std@@V?$allocator@D@2@@std@@@2@V?$allocator@E@2@@std@@KAPAU_Node@12@PAU312@@Z 0045ede0 f i UiChatCentre.obj
 0001:0005de90       ?_Min@?$_Tree@V?$basic_string@DU?$char_traits@D@std@@V?$allocator@D@2@@std@@U?$pair@$$CBV?$basic_string@DU?$char_traits@D@std@@V?$allocator@D@2@@std@@E@2@U_Kfn@?$map@V?$basic_string@DU?$char_traits@D@std@@V?$allocator@D@2@@std@@EU?$less@V?$basic_string@DU?$char_traits@D@std@@V?$allocator@D@2@@std@@@2@V?$allocator@E@2@@2@U?$less@V?$basic_string@DU?$char_traits@D@std@@V?$allocator@D@2@@std@@@2@V?$allocator@E@2@@std@@KAPAU_Node@12@PAU312@@Z 0045ee90 f i UiChatCentre.obj
 0001:0005df40       ?_Root@?$_Tree@V?$basic_string@DU?$char_traits@D@std@@V?$allocator@D@2@@std@@U?$pair@$$CBV?$basic_string@DU?$char_traits@D@std@@V?$allocator@D@2@@std@@E@2@U_Kfn@?$map@V?$basic_string@DU?$char_traits@D@std@@V?$allocator@D@2@@std@@EU?$less@V?$basic_string@DU?$char_traits@D@std@@V?$allocator@D@2@@std@@@2@V?$allocator@E@2@@2@U?$less@V?$basic_string@DU?$char_traits@D@std@@V?$allocator@D@2@@std@@@2@V?$allocator@E@2@@std@@IBEAAPAU_Node@12@XZ 0045ef40 f i UiChatCentre.obj
 0001:0005df70       ?_Rrotate@?$_Tree@V?$basic_string@DU?$char_traits@D@std@@V?$allocator@D@2@@std@@U?$pair@$$CBV?$basic_string@DU?$char_traits@D@std@@V?$allocator@D@2@@std@@E@2@U_Kfn@?$map@V?$basic_string@DU?$char_traits@D@std@@V?$allocator@D@2@@std@@EU?$less@V?$basic_string@DU?$char_traits@D@std@@V?$allocator@D@2@@std@@@2@V?$allocator@E@2@@2@U?$less@V?$basic_string@DU?$char_traits@D@std@@V?$allocator@D@2@@std@@@2@V?$allocator@E@2@@std@@IAEXPAU_Node@12@@Z 0045ef70 f i UiChatCentre.obj
 0001:0005e110       ?_Buynode@?$_Tree@V?$basic_string@DU?$char_traits@D@std@@V?$allocator@D@2@@std@@U?$pair@$$CBV?$basic_string@DU?$char_traits@D@std@@V?$allocator@D@2@@std@@E@2@U_Kfn@?$map@V?$basic_string@DU?$char_traits@D@std@@V?$allocator@D@2@@std@@EU?$less@V?$basic_string@DU?$char_traits@D@std@@V?$allocator@D@2@@std@@@2@V?$allocator@E@2@@2@U?$less@V?$basic_string@DU?$char_traits@D@std@@V?$allocator@D@2@@std@@@2@V?$allocator@E@2@@std@@IAEPAU_Node@12@PAU312@W4_Redbl@12@@Z 0045f110 f i UiChatCentre.obj
 0001:0005e170       ?_Destval@?$_Tree@V?$basic_string@DU?$char_traits@D@std@@V?$allocator@D@2@@std@@U?$pair@$$CBV?$basic_string@DU?$char_traits@D@std@@V?$allocator@D@2@@std@@E@2@U_Kfn@?$map@V?$basic_string@DU?$char_traits@D@std@@V?$allocator@D@2@@std@@EU?$less@V?$basic_string@DU?$char_traits@D@std@@V?$allocator@D@2@@std@@@2@V?$allocator@E@2@@2@U?$less@V?$basic_string@DU?$char_traits@D@std@@V?$allocator@D@2@@std@@@2@V?$allocator@E@2@@std@@IAEXPAU?$pair@$$CBV?$basic_string@DU?$char_traits@D@std@@V?$allocator@D@2@@std@@E@2@@Z 0045f170 f i UiChatCentre.obj
 0001:0005e1a0       ??0const_iterator@?$_Tree@V?$basic_string@DU?$char_traits@D@std@@V?$allocator@D@2@@std@@U?$pair@$$CBV?$basic_string@DU?$char_traits@D@std@@V?$allocator@D@2@@std@@E@2@U_Kfn@?$map@V?$basic_string@DU?$char_traits@D@std@@V?$allocator@D@2@@std@@EU?$less@V?$basic_string@DU?$char_traits@D@std@@V?$allocator@D@2@@std@@@2@V?$allocator@E@2@@2@U?$less@V?$basic_string@DU?$char_traits@D@std@@V?$allocator@D@2@@std@@@2@V?$allocator@E@2@@std@@QAE@PAU_Node@12@@Z 0045f1a0 f i UiChatCentre.obj
 0001:0005e1c0       ??Eiterator@?$_Tree@V?$basic_string@DU?$char_traits@D@std@@V?$allocator@D@2@@std@@U?$pair@$$CBV?$basic_string@DU?$char_traits@D@std@@V?$allocator@D@2@@std@@E@2@U_Kfn@?$map@V?$basic_string@DU?$char_traits@D@std@@V?$allocator@D@2@@std@@EU?$less@V?$basic_string@DU?$char_traits@D@std@@V?$allocator@D@2@@std@@@2@V?$allocator@E@2@@2@U?$less@V?$basic_string@DU?$char_traits@D@std@@V?$allocator@D@2@@std@@@2@V?$allocator@E@2@@std@@QAEAAV012@XZ 0045f1c0 f i UiChatCentre.obj
 0001:0005e1f0       ??Fiterator@?$_Tree@V?$basic_string@DU?$char_traits@D@std@@V?$allocator@D@2@@std@@U?$pair@$$CBV?$basic_string@DU?$char_traits@D@std@@V?$allocator@D@2@@std@@E@2@U_Kfn@?$map@V?$basic_string@DU?$char_traits@D@std@@V?$allocator@D@2@@std@@EU?$less@V?$basic_string@DU?$char_traits@D@std@@V?$allocator@D@2@@std@@@2@V?$allocator@E@2@@2@U?$less@V?$basic_string@DU?$char_traits@D@std@@V?$allocator@D@2@@std@@@2@V?$allocator@E@2@@std@@QAEAAV012@XZ 0045f1f0 f i UiChatCentre.obj
 0001:0005e220       ??Eiterator@?$list@V?$basic_string@DU?$char_traits@D@std@@V?$allocator@D@2@@std@@V?$allocator@V?$basic_string@DU?$char_traits@D@std@@V?$allocator@D@2@@std@@@2@@std@@QAEAAV012@XZ 0045f220 f i UiChatCentre.obj
 0001:0005e260       ??8iterator@?$list@V?$basic_string@DU?$char_traits@D@std@@V?$allocator@D@2@@std@@V?$allocator@V?$basic_string@DU?$char_traits@D@std@@V?$allocator@D@2@@std@@@2@@std@@QBE_NABV012@@Z 0045f260 f i UiChatCentre.obj
 0001:0005e290       ?_Consval@?$_Tree@V?$basic_string@DU?$char_traits@D@std@@V?$allocator@D@2@@std@@U?$pair@$$CBV?$basic_string@DU?$char_traits@D@std@@V?$allocator@D@2@@std@@V12@@2@U_Kfn@?$map@V?$basic_string@DU?$char_traits@D@std@@V?$allocator@D@2@@std@@V12@U?$less@V?$basic_string@DU?$char_traits@D@std@@V?$allocator@D@2@@std@@@2@V?$allocator@V?$basic_string@DU?$char_traits@D@std@@V?$allocator@D@2@@std@@@2@@2@U?$less@V?$basic_string@DU?$char_traits@D@std@@V?$allocator@D@2@@std@@@2@V?$allocator@V?$basic_string@DU?$char_traits@D@std@@V?$allocator@D@2@@std@@@2@@std@@IAEXPAU?$pair@$$CBV?$basic_string@DU?$char_traits@D@std@@V?$allocator@D@2@@std@@V12@@2@ABU32@@Z 0045f290 f i UiChatCentre.obj
 0001:0005e2c0       ?_Dec@const_iterator@?$_Tree@V?$basic_string@DU?$char_traits@D@std@@V?$allocator@D@2@@std@@U?$pair@$$CBV?$basic_string@DU?$char_traits@D@std@@V?$allocator@D@2@@std@@V12@@2@U_Kfn@?$map@V?$basic_string@DU?$char_traits@D@std@@V?$allocator@D@2@@std@@V12@U?$less@V?$basic_string@DU?$char_traits@D@std@@V?$allocator@D@2@@std@@@2@V?$allocator@V?$basic_string@DU?$char_traits@D@std@@V?$allocator@D@2@@std@@@2@@2@U?$less@V?$basic_string@DU?$char_traits@D@std@@V?$allocator@D@2@@std@@@2@V?$allocator@V?$basic_string@DU?$char_traits@D@std@@V?$allocator@D@2@@std@@@2@@std@@QAEXXZ 0045f2c0 f i UiChatCentre.obj
 0001:0005e400       ?_Charalloc@?$allocator@E@std@@QAEPADI@Z 0045f400 f i UiChatCentre.obj
 0001:0005e430       ?_Consval@?$_Tree@V?$basic_string@DU?$char_traits@D@std@@V?$allocator@D@2@@std@@U?$pair@$$CBV?$basic_string@DU?$char_traits@D@std@@V?$allocator@D@2@@std@@E@2@U_Kfn@?$map@V?$basic_string@DU?$char_traits@D@std@@V?$allocator@D@2@@std@@EU?$less@V?$basic_string@DU?$char_traits@D@std@@V?$allocator@D@2@@std@@@2@V?$allocator@E@2@@2@U?$less@V?$basic_string@DU?$char_traits@D@std@@V?$allocator@D@2@@std@@@2@V?$allocator@E@2@@std@@IAEXPAU?$pair@$$CBV?$basic_string@DU?$char_traits@D@std@@V?$allocator@D@2@@std@@E@2@ABU32@@Z 0045f430 f i UiChatCentre.obj
 0001:0005e460       ?_Dec@const_iterator@?$_Tree@V?$basic_string@DU?$char_traits@D@std@@V?$allocator@D@2@@std@@U?$pair@$$CBV?$basic_string@DU?$char_traits@D@std@@V?$allocator@D@2@@std@@E@2@U_Kfn@?$map@V?$basic_string@DU?$char_traits@D@std@@V?$allocator@D@2@@std@@EU?$less@V?$basic_string@DU?$char_traits@D@std@@V?$allocator@D@2@@std@@@2@V?$allocator@E@2@@2@U?$less@V?$basic_string@DU?$char_traits@D@std@@V?$allocator@D@2@@std@@@2@V?$allocator@E@2@@std@@QAEXXZ 0045f460 f i UiChatCentre.obj
 0001:0005e5a0       ?_Inc@const_iterator@?$_Tree@V?$basic_string@DU?$char_traits@D@std@@V?$allocator@D@2@@std@@U?$pair@$$CBV?$basic_string@DU?$char_traits@D@std@@V?$allocator@D@2@@std@@E@2@U_Kfn@?$map@V?$basic_string@DU?$char_traits@D@std@@V?$allocator@D@2@@std@@EU?$less@V?$basic_string@DU?$char_traits@D@std@@V?$allocator@D@2@@std@@@2@V?$allocator@E@2@@2@U?$less@V?$basic_string@DU?$char_traits@D@std@@V?$allocator@D@2@@std@@@2@V?$allocator@E@2@@std@@QAEXXZ 0045f5a0 f i UiChatCentre.obj
 0001:0005e6b0       ?swap@std@@YAXAAW4_Redbl@?$_Tree@V?$basic_string@DU?$char_traits@D@std@@V?$allocator@D@2@@std@@U?$pair@$$CBV?$basic_string@DU?$char_traits@D@std@@V?$allocator@D@2@@std@@V12@@2@U_Kfn@?$map@V?$basic_string@DU?$char_traits@D@std@@V?$allocator@D@2@@std@@V12@U?$less@V?$basic_string@DU?$char_traits@D@std@@V?$allocator@D@2@@std@@@2@V?$allocator@V?$basic_string@DU?$char_traits@D@std@@V?$allocator@D@2@@std@@@2@@2@U?$less@V?$basic_string@DU?$char_traits@D@std@@V?$allocator@D@2@@std@@@2@V?$allocator@V?$basic_string@DU?$char_traits@D@std@@V?$allocator@D@2@@std@@@2@@1@0@Z 0045f6b0 f i UiChatCentre.obj
 0001:0005e6e0       ?_Allocate@std@@YAPADHPAD@Z 0045f6e0 f i UiChatCentre.obj
 0001:0005e710       ?_Construct@std@@YAXPAV?$basic_string@DU?$char_traits@D@std@@V?$allocator@D@2@@1@ABV21@@Z 0045f710 f i UiChatCentre.obj
 0001:0005e7b0       ??3@YAXPAX0@Z              0045f7b0 f i UiChatCentre.obj
 0001:0005e7c0       ?_Destroy@std@@YAXPAU?$pair@$$CBV?$basic_string@DU?$char_traits@D@std@@V?$allocator@D@2@@std@@V12@@1@@Z 0045f7c0 f i UiChatCentre.obj
 0001:0005e7e0       ?swap@std@@YAXAAW4_Redbl@?$_Tree@V?$basic_string@DU?$char_traits@D@std@@V?$allocator@D@2@@std@@U?$pair@$$CBV?$basic_string@DU?$char_traits@D@std@@V?$allocator@D@2@@std@@E@2@U_Kfn@?$map@V?$basic_string@DU?$char_traits@D@std@@V?$allocator@D@2@@std@@EU?$less@V?$basic_string@DU?$char_traits@D@std@@V?$allocator@D@2@@std@@@2@V?$allocator@E@2@@2@U?$less@V?$basic_string@DU?$char_traits@D@std@@V?$allocator@D@2@@std@@@2@V?$allocator@E@2@@1@0@Z 0045f7e0 f i UiChatCentre.obj
 0001:0005e810       ?_Destroy@std@@YAXPAV?$basic_string@DU?$char_traits@D@std@@V?$allocator@D@2@@1@@Z 0045f810 f i UiChatCentre.obj
 0001:0005e830       ?_Destroy@std@@YAXPAU?$pair@$$CBV?$basic_string@DU?$char_traits@D@std@@V?$allocator@D@2@@std@@E@1@@Z 0045f830 f i UiChatCentre.obj
 0001:0005e850       ?_Construct@std@@YAXPAU?$pair@$$CBV?$basic_string@DU?$char_traits@D@std@@V?$allocator@D@2@@std@@V12@@1@ABU21@@Z 0045f850 f i UiChatCentre.obj
 0001:0005e8e0       ?_Construct@std@@YAXPAU?$pair@$$CBV?$basic_string@DU?$char_traits@D@std@@V?$allocator@D@2@@std@@E@1@ABU21@@Z 0045f8e0 f i UiChatCentre.obj
 0001:0005e970       ??_G?$pair@$$CBV?$basic_string@DU?$char_traits@D@std@@V?$allocator@D@2@@std@@V12@@std@@QAEPAXI@Z 0045f970 f i UiChatCentre.obj
 0001:0005e9b0       ??_G?$basic_string@DU?$char_traits@D@std@@V?$allocator@D@2@@std@@QAEPAXI@Z 0045f9b0 f i UiChatCentre.obj
 0001:0005ea00       ??_G?$pair@$$CBV?$basic_string@DU?$char_traits@D@std@@V?$allocator@D@2@@std@@E@std@@QAEPAXI@Z 0045fa00 f i UiChatCentre.obj
 0001:0005ea40       ??0?$pair@$$CBV?$basic_string@DU?$char_traits@D@std@@V?$allocator@D@2@@std@@V12@@std@@QAE@ABU01@@Z 0045fa40 f i UiChatCentre.obj
 0001:0005ead0       ??0?$pair@$$CBV?$basic_string@DU?$char_traits@D@std@@V?$allocator@D@2@@std@@E@std@@QAE@ABU01@@Z 0045fad0 f i UiChatCentre.obj
 0001:0005eb7b       ??0KUiChatPhrase@@QAE@XZ   0045fb7b f   UiChatPhrase.obj
 0001:0005ebcf       ??1KUiChatPhrase@@QAE@XZ   0045fbcf f   UiChatPhrase.obj
 0001:0005ec48       ?ClearAllPhrase@KUiChatPhrase@@QAEXXZ 0045fc48 f   UiChatPhrase.obj
 0001:0005ec7a       ?GetPhrase@KUiChatPhrase@@QAEHHPAD@Z 0045fc7a f   UiChatPhrase.obj
 0001:0005ecf7       ?SetPhrase@KUiChatPhrase@@QAEHHPADH@Z 0045fcf7 f   UiChatPhrase.obj
 0001:0005ed9a       ?GetPhraseCount@KUiChatPhrase@@QAEHXZ 0045fd9a f   UiChatPhrase.obj
 0001:0005edb1       ?SavePrivateSetting@KUiChatPhrase@@QAEHPAVKIniFile@@PBDH@Z 0045fdb1 f   UiChatPhrase.obj
 0001:0005eeaa       ?LoadEntireEmote@KUiChatPhrase@@QAEHXZ 0045feaa f   UiChatPhrase.obj
 0001:0005f00a       ?SetEmote@KUiChatPhrase@@QAEHPAD000H@Z 0046000a f   UiChatPhrase.obj
 0001:0005f223       ?LoadEmotePhrase@KUiChatPhrase@@AAEHPAVKIniFile@@@Z 00460223 f   UiChatPhrase.obj
 0001:0005f2e7       ?LoadMenuEmote@KUiChatPhrase@@AAEHPAVKIniFile@@@Z 004602e7 f   UiChatPhrase.obj
 0001:0005f3b1       ?HandleLoad@KUiChatPhrase@@AAEHPAVKIniFile@@PAUEMOTE_PHRASE@1@HPBD@Z 004603b1 f   UiChatPhrase.obj
 0001:0005f618       ?ConstructFunctionAlias@KUiChatPhrase@@QAEHXZ 00460618 f   UiChatPhrase.obj
 0001:0005f93c       ?GetEmoteCount@KUiChatPhrase@@QAEHW4EMOTE_TYPE@1@@Z 0046093c f   UiChatPhrase.obj
 0001:0005f96a       ?GetEmote@KUiChatPhrase@@QAEHPBDPADHH@Z 0046096a f   UiChatPhrase.obj
 0001:0005f9e0       ?GetEmote@KUiChatPhrase@@QAEHHPADHH@Z 004609e0 f   UiChatPhrase.obj
 0001:0005fb30       ?GetMenuEmote@KUiChatPhrase@@QAEHPBDPADHH@Z 00460b30 f   UiChatPhrase.obj
 0001:0005fb80       ?GetMenuEmote@KUiChatPhrase@@QAEHHPADHH@Z 00460b80 f   UiChatPhrase.obj
 0001:0005fc95       ?GetMenuEmoteName@KUiChatPhrase@@QAEHHPADH@Z 00460c95 f   UiChatPhrase.obj
 0001:0005fd37       ?FindEmote@KUiChatPhrase@@AAEHW4EMOTE_TYPE@1@PBD@Z 00460d37 f   UiChatPhrase.obj
 0001:0005fe0c       ?ConvertEmoteString@KUiChatPhrase@@QAEHPADHPBD1@Z 00460e0c f   UiChatPhrase.obj
 0001:00060070       ?clear@?$list@V?$basic_string@DU?$char_traits@D@std@@V?$allocator@D@2@@std@@V?$allocator@V?$basic_string@DU?$char_traits@D@std@@V?$allocator@D@2@@std@@@2@@std@@QAEXXZ 00461070 f i UiChatPhrase.obj
 0001:000600d0       ?OpenWindow@KUiChatStatus@@SAPAV1@XZ 004610d0 f   UiChatStatus.obj
 0001:000601a7       ?GetIfVisible@KUiChatStatus@@SAPAV1@XZ 004611a7 f   UiChatStatus.obj
 0001:000601d4       ?CloseWindow@KUiChatStatus@@SAXXZ 004611d4 f   UiChatStatus.obj
 0001:000601fe       ?Initialize@KUiChatStatus@@AAEXXZ 004611fe f   UiChatStatus.obj
 0001:000603bb       ?LoadScheme@KUiChatStatus@@SAXPBD@Z 004613bb f   UiChatStatus.obj
 0001:000606fb       ?WndProc@KUiChatStatus@@EAEHIIH@Z 004616fb f   UiChatStatus.obj
 0001:00060a22       ?OnAddMsg@KUiChatStatus@@AAEXXZ 00461a22 f   UiChatStatus.obj
 0001:00060aec       ?OnSelMsg@KUiChatStatus@@AAEXH@Z 00461aec f   UiChatStatus.obj
 0001:00060b6e       ?OnSetDefMsg@KUiChatStatus@@AAEXXZ 00461b6e f   UiChatStatus.obj
 0001:00060b80       ??0KUiChatStatus@@AAE@XZ   00461b80 f i UiChatStatus.obj
 0001:00060cc0       ??_GKUiChatStatus@@EAEPAXI@Z 00461cc0 f i UiChatStatus.obj
 0001:00060cc0       ??_EKUiChatStatus@@EAEPAXI@Z 00461cc0 f i UiChatStatus.obj
 0001:00060d00       ??1KUiChatStatus@@EAE@XZ   00461d00 f i UiChatStatus.obj
 0001:00060e8b       ?UIMessageBox@@YAXPBDPAVKWndWindow@@00I@Z 00461e8b f   UiInformation.obj
 0001:00060eb7       ?UiCloseMessageBox@@YAXXZ  00461eb7 f   UiInformation.obj
 0001:00060ecd       ??0KUiInformation@@QAE@XZ  00461ecd f   UiInformation.obj
 0001:00060f83       ?Initialize@KUiInformation@@QAEXXZ 00461f83 f   UiInformation.obj
 0001:00061001       ?LoadScheme@KUiInformation@@QAEXPBD@Z 00462001 f   UiInformation.obj
 0001:000611ea       ?Show@KUiInformation@@QAEXPBD00PAVKWndWindow@@IH@Z 004621ea f   UiInformation.obj
 0001:0006138e       ?Hide@KUiInformation@@AAEXH@Z 0046238e f   UiInformation.obj
 0001:0006140e       ?Close@KUiInformation@@QAEXXZ 0046240e f   UiInformation.obj
 0001:0006143e       ?WndProc@KUiInformation@@EAEHIIH@Z 0046243e f   UiInformation.obj
 0001:00061530       ??1KUiInformation@@UAE@XZ  00462530 f i UiInformation.obj
 0001:000615c0       ??_GKUiInformation@@UAEPAXI@Z 004625c0 f i UiInformation.obj
 0001:000615c0       ??_EKUiInformation@@UAEPAXI@Z 004625c0 f i UiInformation.obj
 0001:0006165b       ?UIMessageBox2@@YAXPBDH0PAVKWndWindow@@I@Z 0046265b f   UiInformation2.obj
 0001:000616a9       ??0KUiInformation2@@QAE@XZ 004626a9 f   UiInformation2.obj
 0001:00061748       ?SpeakWords@KUiInformation2@@QAEXPAUKUiInformationParam@@H@Z 00462748 f   UiInformation2.obj
 0001:00061918       ?Initialize@KUiInformation2@@QAEXXZ 00462918 f   UiInformation2.obj
 0001:00061972       ?LoadScheme@KUiInformation2@@QAEXPBD@Z 00462972 f   UiInformation2.obj
 0001:00061a91       ?Show@KUiInformation2@@QAEXPBDH0PAVKWndWindow@@I@Z 00462a91 f   UiInformation2.obj
 0001:00061b09       ?Hide@KUiInformation2@@UAEXXZ 00462b09 f   UiInformation2.obj
 0001:00061d06       ?WndProc@KUiInformation2@@EAEHIIH@Z 00462d06 f   UiInformation2.obj
 0001:00061e10       ?Close@KUiInformation2@@QAEXXZ 00462e10 f   UiInformation2.obj
 0001:00061e91       ??1KUiInformation2@@UAE@XZ 00462e91 f   UiInformation2.obj
 0001:00061f10       ?TopChildFromPoint@KUiInformation2@@UAEPAVKWndWindow@@HH@Z 00462f10 f i UiInformation2.obj
 0001:00061f30       ??_GKUiInformation2@@UAEPAXI@Z 00462f30 f i UiInformation2.obj
 0001:00061f30       ??_EKUiInformation2@@UAEPAXI@Z 00462f30 f i UiInformation2.obj
 0001:00061fcb       ?UIMessageBox3@@YAXPBDPAVKWndWindow@@000I@Z 00462fcb f   UiInformation3.obj
 0001:00061ffb       ?UiCloseMessageBox3@@YAXXZ 00462ffb f   UiInformation3.obj
 0001:00062011       ??0KUiInformation3@@QAE@XZ 00463011 f   UiInformation3.obj
 0001:000620bf       ?Initialize@KUiInformation3@@QAEXXZ 004630bf f   UiInformation3.obj
 0001:0006214e       ?LoadScheme@KUiInformation3@@QAEXPBD@Z 0046314e f   UiInformation3.obj
 0001:00062301       ?Show@KUiInformation3@@QAEXPBD000PAVKWndWindow@@IH@Z 00463301 f   UiInformation3.obj
 0001:00062490       ?Hide@KUiInformation3@@AAEXH@Z 00463490 f   UiInformation3.obj
 0001:00062510       ?Close@KUiInformation3@@QAEXXZ 00463510 f   UiInformation3.obj
 0001:00062540       ?WndProc@KUiInformation3@@EAEHIIH@Z 00463540 f   UiInformation3.obj
 0001:00062650       ??1KUiInformation3@@UAE@XZ 00463650 f i UiInformation3.obj
 0001:000626f0       ??_EKUiInformation3@@UAEPAXI@Z 004636f0 f i UiInformation3.obj
 0001:000626f0       ??_GKUiInformation3@@UAEPAXI@Z 004636f0 f i UiInformation3.obj
 0001:00062730       ??0KUiTeamManage@@AAE@XZ   00463730 f   UiTeamManage.obj
 0001:000628a3       ?GetIfVisible@KUiTeamManage@@SAPAV1@XZ 004638a3 f   UiTeamManage.obj
 0001:000628d0       ?OpenWindow@KUiTeamManage@@SAPAV1@XZ 004638d0 f   UiTeamManage.obj
 0001:000629c8       ?CloseWindow@KUiTeamManage@@SAXXZ 004639c8 f   UiTeamManage.obj
 0001:000629fd       ?Initialize@KUiTeamManage@@AAEXXZ 004639fd f   UiTeamManage.obj
 0001:00062c26       ?LoadScheme@KUiTeamManage@@AAEXPAVKIniFile@@@Z 00463c26 f   UiTeamManage.obj
 0001:00062e93       ?LoadScheme@KUiTeamManage@@SAXPBD@Z 00463e93 f   UiTeamManage.obj
 0001:00062f8a       ?WndProc@KUiTeamManage@@MAEHIIH@Z 00463f8a f   UiTeamManage.obj
 0001:00063141       ?OnSelTeamMember@KUiTeamManage@@IAEXH@Z 00464141 f   UiTeamManage.obj
 0001:0006320e       ?OnSelNearby@KUiTeamManage@@IAEXH@Z 0046420e f   UiTeamManage.obj
 0001:00063297       ?Clear@KUiTeamManage@@IAEXXZ 00464297 f   UiTeamManage.obj
 0001:00063410       ?UpdateData@KUiTeamManage@@QAEXPAUKUiPlayerTeam@@@Z 00464410 f   UiTeamManage.obj
 0001:000636ef       ?OnAppoint@KUiTeamManage@@IAEXXZ 004646ef f   UiTeamManage.obj
 0001:0006375c       ?OnKick@KUiTeamManage@@IAEXXZ 0046475c f   UiTeamManage.obj
 0001:000637c9       ?OnInvite@KUiTeamManage@@IAEXXZ 004647c9 f   UiTeamManage.obj
 0001:00063865       ?OnRefresh@KUiTeamManage@@IAEXXZ 00464865 f   UiTeamManage.obj
 0001:0006398c       ?OnLeave@KUiTeamManage@@IAEXXZ 0046498c f   UiTeamManage.obj
 0001:000639d0       ??_GKUiTeamManage@@EAEPAXI@Z 004649d0 f i UiTeamManage.obj
 0001:000639d0       ??_EKUiTeamManage@@EAEPAXI@Z 004649d0 f i UiTeamManage.obj
 0001:00063a10       ??1KUiTeamManage@@EAE@XZ   00464a10 f i UiTeamManage.obj
 0001:00063b50       ?SelfName@KUiPlayerBar@@SAPBDXZ 00464b50 f i UiTeamManage.obj
 0001:00063b70       ??0KUiTeamStatus@@AAE@XZ   00464b70 f   UiTeamStatus.obj
 0001:00063c33       ?GetIfVisible@KUiTeamStatus@@SAPAV1@XZ 00464c33 f   UiTeamStatus.obj
 0001:00063c60       ?OpenWindow@KUiTeamStatus@@SAPAV1@XZ 00464c60 f   UiTeamStatus.obj
 0001:00063d41       ?CloseWindow@KUiTeamStatus@@SAX_N@Z 00464d41 f   UiTeamStatus.obj
 0001:00063daf       ?Initialize@KUiTeamStatus@@AAEXXZ 00464daf f   UiTeamStatus.obj
 0001:00063e72       ?LoadScheme@KUiTeamStatus@@AAEXPBD@Z 00464e72 f   UiTeamStatus.obj
 0001:0006419a       ?Breathe@KUiTeamStatus@@EAEXXZ 0046519a f   UiTeamStatus.obj
 0001:000641ca       ?Clear@KUiTeamStatus@@AAEX_N@Z 004651ca f   UiTeamStatus.obj
 0001:0006428a       ?UpdateData@KUiTeamStatus@@AAEXPAUKUiPlayerTeam@@@Z 0046528a f   UiTeamStatus.obj
 0001:000644a2       ?UpdateNewState@KUiTeamStatus@@AAEXH@Z 004654a2 f   UiTeamStatus.obj
 0001:000644ca       ?UpdateTime@KUiTeamStatus@@AAEXXZ 004654ca f   UiTeamStatus.obj
 0001:000644dc       ?UpdateToolTip@KUiTeamStatus@@AAEXH_N@Z 004654dc f   UiTeamStatus.obj
 0001:000644f0       ?WndProc@KUiTeamStatus@@EAEHIIH@Z 004654f0 f   UiTeamStatus.obj
 0001:00064552       ?ConvertInfo@KUiTeamStatus@@AAEXPADH_N@Z 00465552 f   UiTeamStatus.obj
 0001:00064570       ??_GKUiTeamStatus@@EAEPAXI@Z 00465570 f i UiTeamStatus.obj
 0001:00064570       ??_EKUiTeamStatus@@EAEPAXI@Z 00465570 f i UiTeamStatus.obj
 0001:000645b0       ??1KUiTeamStatus@@EAE@XZ   004655b0 f i UiTeamStatus.obj
 0001:00064650       ?OpenWindow@KUiChatItemInfo@@SAPAV1@PBDH0HH@Z 00465650 f   UiChatItemInfo.obj
 0001:00064792       ?CloseWindow@KUiChatItemInfo@@SAXXZ 00465792 f   UiChatItemInfo.obj
 0001:000647c2       ??0KUiChatItemInfo@@AAE@XZ 004657c2 f   UiChatItemInfo.obj
 0001:000648cf       ?GetIfVisible@KUiChatItemInfo@@SAPAV1@XZ 004658cf f   UiChatItemInfo.obj
 0001:000648fc       ?UpdateData@KUiChatItemInfo@@AAEXPBD@Z 004658fc f   UiChatItemInfo.obj
 0001:000649a7       ?Initialize@KUiChatItemInfo@@AAEXXZ 004659a7 f   UiChatItemInfo.obj
 0001:00064a25       ?WndProc@KUiChatItemInfo@@EAEHIIH@Z 00465a25 f   UiChatItemInfo.obj
 0001:00064aa5       ?LoadScheme@KUiChatItemInfo@@QAEXPBD@Z 00465aa5 f   UiChatItemInfo.obj
 0001:00064e37       ?Breathe@KUiChatItemInfo@@EAEXXZ 00465e37 f   UiChatItemInfo.obj
 0001:00064e6d       ?PaintWindow@KUiChatItemInfo@@EAEXXZ 00465e6d f   UiChatItemInfo.obj
 0001:00065276       ?Show@KUiChatItemInfo@@EAEXXZ 00466276 f   UiChatItemInfo.obj
 0001:0006534a       ?Hide@KUiChatItemInfo@@EAEXXZ 0046634a f   UiChatItemInfo.obj
 0001:00065390       ??_EKUiChatItemInfo@@EAEPAXI@Z 00466390 f i UiChatItemInfo.obj
 0001:00065390       ??_GKUiChatItemInfo@@EAEPAXI@Z 00466390 f i UiChatItemInfo.obj
 0001:000653d0       ??1KUiChatItemInfo@@EAE@XZ 004663d0 f i UiChatItemInfo.obj
 0001:00065440       ?OpenWindow@KUiHeaderControlBar@@SAPAV1@XZ 00466440 f   UiHeaderControlBar.obj
 0001:00065516       ?CloseWindow@KUiHeaderControlBar@@SAXXZ 00466516 f   UiHeaderControlBar.obj
 0001:00065540       ?Initialize@KUiHeaderControlBar@@AAEXXZ 00466540 f   UiHeaderControlBar.obj
 0001:000655f3       ?LoadScheme@KUiHeaderControlBar@@SAXPBD@Z 004665f3 f   UiHeaderControlBar.obj
 0001:00065753       ?DefaultScheme@KUiHeaderControlBar@@SAXPBD@Z 00466753 f   UiHeaderControlBar.obj
 0001:00065892       ?Breathe@KUiHeaderControlBar@@EAEXXZ 00466892 f   UiHeaderControlBar.obj
 0001:000658d0       ??0KUiHeaderControlBar@@QAE@XZ 004668d0 f i UiHeaderControlBar.obj
 0001:00065950       ??_GKUiHeaderControlBar@@EAEPAXI@Z 00466950 f i UiHeaderControlBar.obj
 0001:00065950       ??_EKUiHeaderControlBar@@EAEPAXI@Z 00466950 f i UiHeaderControlBar.obj
 0001:00065990       ??1KUiHeaderControlBar@@EAE@XZ 00466990 f i UiHeaderControlBar.obj
 0001:00065a10       ?VerticalSplitTwoWindow@@YAHPAVKWndWindow@@0H@Z 00466a10 f   UiMsgCentrePad.obj
 0001:00065b42       ?WndProc@KSysMsgCentrePad@@UAEHIIH@Z 00466b42 f   UiMsgCentrePad.obj
 0001:00065d99       ?ScrollBottom@KSysMsgCentrePad@@QAEXXZ 00466d99 f   UiMsgCentrePad.obj
 0001:00065e2f       ?OpenWindow@KUiMsgCentrePad@@SAPAV1@XZ 00466e2f f   UiMsgCentrePad.obj
 0001:00065f3c       ?CloseWindow@KUiMsgCentrePad@@SAX_N@Z 00466f3c f   UiMsgCentrePad.obj
 0001:00065fca       ??0KUiMsgCentrePad@@AAE@XZ 00466fca f   UiMsgCentrePad.obj
 0001:00066178       ?SetAutoDelMsgInterval@KUiMsgCentrePad@@AAEXI@Z 00467178 f   UiMsgCentrePad.obj
 0001:000661bc       ?SystemMessageArrival@KUiMsgCentrePad@@SAXPBDG@Z 004671bc f   UiMsgCentrePad.obj
 0001:0006628b       ?ChannelMessageArrival@KUiMsgCentrePad@@AAEXHPADPBDGPAVKWndMessageListBox@@_N11@Z 0046728b f   UiMsgCentrePad.obj
 0001:00067014       ?MSNMessageArrival@KUiMsgCentrePad@@AAEXPAD0PBDG11@Z 00468014 f   UiMsgCentrePad.obj
 0001:0006741c       ?ShowMSNMessage@KUiMsgCentrePad@@AAEXPADPBDGTKRColor@@22G11@Z 0046841c f   UiMsgCentrePad.obj
 0001:00067c49       ?NewChannelMessageArrival@KUiMsgCentrePad@@SAHKPADPBDG11@Z 00468c49 f   UiMsgCentrePad.obj
 0001:00067d02       ?NewMSNMessageArrival@KUiMsgCentrePad@@SAXPAD0PBDG11@Z 00468d02 f   UiMsgCentrePad.obj
 0001:00067d41       ?ShowSomeoneMessage@KUiMsgCentrePad@@SAXPADPBDG@Z 00468d41 f   UiMsgCentrePad.obj
 0001:00067e5a       ?OpenChannel@KUiMsgCentrePad@@SAXPADKE@Z 00468e5a f   UiMsgCentrePad.obj
 0001:00067f8f       ?CloseActivateChannel@KUiMsgCentrePad@@AAEXH@Z 00468f8f f   UiMsgCentrePad.obj
 0001:00067ff9       ?QueryAllChannel@KUiMsgCentrePad@@SAXXZ 00468ff9 f   UiMsgCentrePad.obj
 0001:0006804f       ?ReplaceChannelName@KUiMsgCentrePad@@SAXPADI0@Z 0046904f f   UiMsgCentrePad.obj
 0001:0006818a       ?ReplaceSpecialField@KUiMsgCentrePad@@SA_NPAD0@Z 0046918a f   UiMsgCentrePad.obj
 0001:000685b0       ?CloseSelfChannel@KUiMsgCentrePad@@SAXW4SelfChannel@1@@Z 004695b0 f   UiMsgCentrePad.obj
 0001:00068622       ?GetChannelSubscribe@KUiMsgCentrePad@@SA_NH@Z 00469622 f   UiMsgCentrePad.obj
 0001:00068662       ?IsChannelType@KUiMsgCentrePad@@SA_NHW4SelfChannel@1@@Z 00469662 f   UiMsgCentrePad.obj
 0001:000686d7       ?FindActivateChannelResourceIndex@KUiMsgCentrePad@@AAEHPAD@Z 004696d7 f   UiMsgCentrePad.obj
 0001:000687a8       ?FindActivateChannelIndex@KUiMsgCentrePad@@AAEHPAD@Z 004697a8 f   UiMsgCentrePad.obj
 0001:00068860       ?FindActivateChannelIndex@KUiMsgCentrePad@@AAEHK@Z 00469860 f   UiMsgCentrePad.obj
 0001:000688c1       ?FindActivateChannelCost@KUiMsgCentrePad@@AAEEK@Z 004698c1 f   UiMsgCentrePad.obj
 0001:00068934       ?FindChannelResourceIndex@KUiMsgCentrePad@@AAEHPAD@Z 00469934 f   UiMsgCentrePad.obj
 0001:000689be       ?FindActivateChannelIndexByKey@KUiMsgCentrePad@@AAEHPAD@Z 004699be f   UiMsgCentrePad.obj
 0001:00068ac1       ?IsNeverCloseActivateChannel@KUiMsgCentrePad@@AAEHH@Z 00469ac1 f   UiMsgCentrePad.obj
 0001:00068b34       ?GetChannelMenuinfo@KUiMsgCentrePad@@SA_NHPAG0PATKRColor@@1PADPAF@Z 00469b34 f   UiMsgCentrePad.obj
 0001:00068da0       ?GetChannelID@KUiMsgCentrePad@@SAKH@Z 00469da0 f   UiMsgCentrePad.obj
 0001:00068de0       ?GetChannelTitle@KUiMsgCentrePad@@SAPADH@Z 00469de0 f   UiMsgCentrePad.obj
 0001:00068e4d       ?GetChannelCount@KUiMsgCentrePad@@SAKXZ 00469e4d f   UiMsgCentrePad.obj
 0001:00068e6a       ?GetChannelIndex@KUiMsgCentrePad@@SAHPAD@Z 00469e6a f   UiMsgCentrePad.obj
 0001:00068e93       ?GetChannelIndex@KUiMsgCentrePad@@SAHK@Z 00469e93 f   UiMsgCentrePad.obj
 0001:00068ebc       ?GetChannelCost@KUiMsgCentrePad@@SAEK@Z 00469ebc f   UiMsgCentrePad.obj
 0001:00068ee4       ?PushChannelData@KUiMsgCentrePad@@SAHKPBDH@Z 00469ee4 f   UiMsgCentrePad.obj
 0001:00069169       ?GetChannelData@KUiMsgCentrePad@@SAHAAKAAEAAPADAAH@Z 0046a169 f   UiMsgCentrePad.obj
 0001:00069299       ?PopChannelData@KUiMsgCentrePad@@SAHK@Z 0046a299 f   UiMsgCentrePad.obj
 0001:0006945c       ?SetReply@KUiMsgCentrePad@@SAXPBDH@Z 0046a45c f   UiMsgCentrePad.obj
 0001:000694f8       ?ClearReply@KUiMsgCentrePad@@SAXXZ 0046a4f8 f   UiMsgCentrePad.obj
 0001:00069591       ?GetPeopleMenuinfo@KUiMsgCentrePad@@SA_NPADPAG1PATKRColor@@2@Z 0046a591 f   UiMsgCentrePad.obj
 0001:00069697       ?SendQueryChannelID@KUiMsgCentrePad@@AAEXH@Z 0046a697 f   UiMsgCentrePad.obj
 0001:000697e7       ?SendChannelSubscribe@KUiMsgCentrePad@@AAEXH_N@Z 0046a7e7 f   UiMsgCentrePad.obj
 0001:000698cf       ?AddActivateChannel@KUiMsgCentrePad@@AAEHABUKChannelActivateInfo@@@Z 0046a8cf f   UiMsgCentrePad.obj
 0001:00069a2e       ?ReleaseActivateChannel@KUiMsgCentrePad@@AAEHH@Z 0046aa2e f   UiMsgCentrePad.obj
 0001:00069af0       ?ReleaseActivateChannelAll@KUiMsgCentrePad@@SAHXZ 0046aaf0 f   UiMsgCentrePad.obj
 0001:00069b78       ?Initialize@KUiMsgCentrePad@@AAEXXZ 0046ab78 f   UiMsgCentrePad.obj
 0001:00069db6       ?Breathe@KUiMsgCentrePad@@UAEXXZ 0046adb6 f   UiMsgCentrePad.obj
 0001:00069e5c       ?AddAutoReplyMsg@KUiMsgCentrePad@@SAXPAD@Z 0046ae5c f   UiMsgCentrePad.obj
 0001:00069ebf       ?OnSendAutoReplyMsg@KUiMsgCentrePad@@AAEXPAD@Z 0046aebf f   UiMsgCentrePad.obj
 0001:00069fbf       ?LoadScheme@KUiMsgCentrePad@@SAXPBD@Z 0046afbf f   UiMsgCentrePad.obj
 0001:0006a0d5       ?DefaultScheme@KUiMsgCentrePad@@SAXPBD@Z 0046b0d5 f   UiMsgCentrePad.obj
 0001:0006a26d       ?HideAllMessage@KUiMsgCentrePad@@SAXXZ 0046b26d f   UiMsgCentrePad.obj
 0001:0006a2dc       ?ShowAllMessage@KUiMsgCentrePad@@SAXXZ 0046b2dc f   UiMsgCentrePad.obj
 0001:0006a31a       ?LoadScheme@KUiMsgCentrePad@@AAEXPAVKIniFile@@@Z 0046b31a f   UiMsgCentrePad.obj
 0001:0006bbd4       ?PtInWindow@KUiMsgCentrePad@@EAEHHH@Z 0046cbd4 f   UiMsgCentrePad.obj
 0001:0006bee2       ?WndProc@KUiMsgCentrePad@@EAEHIIH@Z 0046cee2 f   UiMsgCentrePad.obj
 0001:0006cf1c       ?GetMessageSendName@KUiMsgCentrePad@@AAEHPAVKWndWindow@@HPAD@Z 0046df1c f   UiMsgCentrePad.obj
 0001:0006d0ee       ?GetMessageSendName@KUiMsgCentrePad@@AAEHPAVKWndWindow@@HHPAD@Z 0046e0ee f   UiMsgCentrePad.obj
 0001:0006d251       ?PaintWindow@KUiMsgCentrePad@@EAEXXZ 0046e251 f   UiMsgCentrePad.obj
 0001:0006d327       ?DragWndPos@KUiMsgCentrePad@@AAEXH@Z 0046e327 f   UiMsgCentrePad.obj
 0001:0006d42b       ?DragWndSize@KUiMsgCentrePad@@AAEXH@Z 0046e42b f   UiMsgCentrePad.obj
 0001:0006d536       ?ChanageHeight@KUiMsgCentrePad@@AAEHH_N@Z 0046e536 f   UiMsgCentrePad.obj
 0001:0006d684       ?Clear@KUiMsgCentrePad@@SAXXZ 0046e684 f   UiMsgCentrePad.obj
 0001:0006d6f3       ?PopupChannelMenu@KUiMsgCentrePad@@AAEXHH@Z 0046e6f3 f   UiMsgCentrePad.obj
 0001:0006d959       ?CheckChannel@KUiMsgCentrePad@@SAHH_N@Z 0046e959 f   UiMsgCentrePad.obj
 0001:0006daf6       ?FilterTextColor@KUiMsgCentrePad@@AAEHPADGABTKRColor@@@Z 0046eaf6 f   UiMsgCentrePad.obj
 0001:0006db53       ?SetFontSize@KUiMsgCentrePad@@SAXH@Z 0046eb53 f   UiMsgCentrePad.obj
 0001:0006db84       ?GetFontSize@KUiMsgCentrePad@@SAHXZ 0046eb84 f   UiMsgCentrePad.obj
 0001:0006dbb6       ?SetChannelTextColor@KUiMsgCentrePad@@SAHPADKK@Z 0046ebb6 f   UiMsgCentrePad.obj
 0001:0006dc58       ?GetChannelTextColor@KUiMsgCentrePad@@SAPADHAAK0@Z 0046ec58 f   UiMsgCentrePad.obj
 0001:0006dccc       ?SetMSNTextColor@KUiMsgCentrePad@@SAXHKK@Z 0046eccc f   UiMsgCentrePad.obj
 0001:0006dd96       ?GetMSNTextColor@KUiMsgCentrePad@@SAXHAAK0@Z 0046ed96 f   UiMsgCentrePad.obj
 0001:0006de20       ??_EKUiMsgCentrePad@@EAEPAXI@Z 0046ee20 f i UiMsgCentrePad.obj
 0001:0006de20       ??_GKUiMsgCentrePad@@EAEPAXI@Z 0046ee20 f i UiMsgCentrePad.obj
 0001:0006de60       ??1KUiMsgCentrePad@@EAE@XZ 0046ee60 f i UiMsgCentrePad.obj
 0001:0006df60       ??1KSysMsgCentrePad@@UAE@XZ 0046ef60 f i UiMsgCentrePad.obj
 0001:0006e000       ??0KSysMsgCentrePad@@QAE@XZ 0046f000 f i UiMsgCentrePad.obj
 0001:0006e0a0       ??_GKSysMsgCentrePad@@UAEPAXI@Z 0046f0a0 f i UiMsgCentrePad.obj
 0001:0006e0a0       ??_EKSysMsgCentrePad@@UAEPAXI@Z 0046f0a0 f i UiMsgCentrePad.obj
 0001:0006e0e0       ?GetMaxValue@KWndScrollBar@@QAEHXZ 0046f0e0 f i UiMsgCentrePad.obj
 0001:0006e100       ?GetMaxLineWidth@KWndMessageListBox@@QAEHXZ 0046f100 f i UiMsgCentrePad.obj
 0001:0006e120       ?GetScrollBar@KScrollMessageListBox@@QAEPAVKWndScrollBar@@XZ 0046f120 f i UiMsgCentrePad.obj
 0001:0006e140       ?GetFontSize@KWndMessageListBox@@QAEHXZ 0046f140 f i UiMsgCentrePad.obj
 0001:0006e160       ??0KUiMakeAdv@@AAE@XZ      0046f160 f   UiMakeAdv.obj
 0001:0006e201       ?OpenWindow@KUiMakeAdv@@SAPAV1@PBDHH@Z 0046f201 f   UiMakeAdv.obj
 0001:0006e342       ?CloseWindow@KUiMakeAdv@@SAX_N@Z 0046f342 f   UiMakeAdv.obj
 0001:0006e396       ?GetIfVisible@KUiMakeAdv@@SAPAV1@XZ 0046f396 f   UiMakeAdv.obj
 0001:0006e3c3       ?Show@KUiMakeAdv@@EAEXXZ   0046f3c3 f   UiMakeAdv.obj
 0001:0006e447       ?Hide@KUiMakeAdv@@EAEXXZ   0046f447 f   UiMakeAdv.obj
 0001:0006e481       ?Initialize@KUiMakeAdv@@AAEXXZ 0046f481 f   UiMakeAdv.obj
 0001:0006e54b       ?LoadScheme@KUiMakeAdv@@SAXPBD@Z 0046f54b f   UiMakeAdv.obj
 0001:0006e710       ?WndProc@KUiMakeAdv@@EAEHIIH@Z 0046f710 f   UiMakeAdv.obj
 0001:0006e805       ?OnOk@KUiMakeAdv@@AAEXXZ   0046f805 f   UiMakeAdv.obj
 0001:0006e8cb       ?OnCancel@KUiMakeAdv@@AAEXXZ 0046f8cb f   UiMakeAdv.obj
 0001:0006e900       ??_GKUiMakeAdv@@EAEPAXI@Z  0046f900 f i UiMakeAdv.obj
 0001:0006e900       ??_EKUiMakeAdv@@EAEPAXI@Z  0046f900 f i UiMakeAdv.obj
 0001:0006e940       ??1KUiMakeAdv@@EAE@XZ      0046f940 f i UiMakeAdv.obj
 0001:0006e9e0       ??0KUiMarket@@AAE@XZ       0046f9e0 f   UiMarket.obj
 0001:0006eb6d       ?GetIfVisible@KUiMarket@@SAPAV1@XZ 0046fb6d f   UiMarket.obj
 0001:0006eb77       ?OpenWindow@KUiMarket@@SAPAV1@XZ 0046fb77 f   UiMarket.obj
 0001:0006eca1       ?CloseWindow@KUiMarket@@SAXXZ 0046fca1 f   UiMarket.obj
 0001:0006ece1       ?Initialize@KUiMarket@@AAEXXZ 0046fce1 f   UiMarket.obj
 0001:0006eefa       ?LoadScheme@KUiMarket@@SAXPBD@Z 0046fefa f   UiMarket.obj
 0001:0006f48a       ?CancelTrade@KUiMarket@@SAXXZ 0047048a f   UiMarket.obj
 0001:0006f4a5       ?WndProc@KUiMarket@@UAEHIIH@Z 004704a5 f   UiMarket.obj
 0001:0006f6a0       ?Breathe@KUiMarket@@EAEXXZ 004706a0 f   UiMarket.obj
 0001:0006f796       ?InitMarket@KUiMarket@@AAEXXZ 00470796 f   UiMarket.obj
 0001:0006f909       ?Clear@KUiMarket@@AAEXXZ   00470909 f   UiMarket.obj
 0001:0006f9b1       ?UpdateData@KUiMarket@@UAEXXZ 004709b1 f   UiMarket.obj
 0001:0006fb58       ?SetPage@KUiMarket@@AAEXH@Z 00470b58 f   UiMarket.obj
 0001:0006fcbd       ?OnClickPrePaid@KUiMarket@@SAXXZ 00470cbd f   UiMarket.obj
 0001:0006ff1c       ?OnClickSellType@KUiMarket@@AAEXH@Z 00470f1c f   UiMarket.obj
 0001:00070075       ??0KUiMarketGoods@@QAE@XZ  00471075 f   UiMarket.obj
 0001:00070191       ?Initialize@KUiMarketGoods@@QAEXXZ 00471191 f   UiMarket.obj
 0001:000702e8       ?LoadScheme@KUiMarketGoods@@AAEXPBD@Z 004712e8 f   UiMarket.obj
 0001:000705b8       ?WndProc@KUiMarketGoods@@EAEHIIH@Z 004715b8 f   UiMarket.obj
 0001:00070647       ?OnBuyItem@KUiMarketGoods@@AAEXXZ 00471647 f   UiMarket.obj
 0001:000706db       ?OnBuyItem@KUiMarketGoods@@AAEXD@Z 004716db f   UiMarket.obj
 0001:00070714       ?Breathe@KUiMarketGoods@@UAEXXZ 00471714 f   UiMarket.obj
 0001:0007086c       ?Clear@KUiMarketGoods@@QAEXXZ 0047186c f   UiMarket.obj
 0001:000709dc       ?UpdateData@KUiMarketGoods@@QAEXPAUKUiDraggedObject@@@Z 004719dc f   UiMarket.obj
 0001:00070c4b       ?HaveObject@KUiMarketGoods@@QAE_NXZ 00471c4b f   UiMarket.obj
 0001:00070c80       ??_EKUiMarket@@EAEPAXI@Z   00471c80 f i UiMarket.obj
 0001:00070c80       ??_GKUiMarket@@EAEPAXI@Z   00471c80 f i UiMarket.obj
 0001:00070cc0       ??1KUiMarket@@EAE@XZ       00471cc0 f i UiMarket.obj
 0001:00070e20       ??1KUiMarketGoods@@UAE@XZ  00471e20 f i UiMarket.obj
 0001:00070f10       ??_GKUiMarketGoods@@UAEPAXI@Z 00471f10 f i UiMarket.obj
 0001:00070f10       ??_EKUiMarketGoods@@UAEPAXI@Z 00471f10 f i UiMarket.obj
 0001:00070f50       ?OpenWindow@KUiMarkPrice@@SAPAV1@PAUKUiObjAtContRegion@@PAUKUiItemBuySelInfo@@@Z 00471f50 f   UiMarkPrice.obj
 0001:0007108f       ??0KUiMarkPrice@@AAE@XZ    0047208f f   UiMarkPrice.obj
 0001:00071161       ?GetIfVisible@KUiMarkPrice@@SAPAV1@XZ 00472161 f   UiMarkPrice.obj
 0001:0007118e       ?CloseWindow@KUiMarkPrice@@SAX_N@Z 0047218e f   UiMarkPrice.obj
 0001:000711e2       ?Show@KUiMarkPrice@@EAEXXZ 004721e2 f   UiMarkPrice.obj
 0001:00071266       ?Hide@KUiMarkPrice@@EAEXXZ 00472266 f   UiMarkPrice.obj
 0001:00071296       ?Initialize@KUiMarkPrice@@AAEHXZ 00472296 f   UiMarkPrice.obj
 0001:00071398       ?LoadScheme@KUiMarkPrice@@AAEXPBD@Z 00472398 f   UiMarkPrice.obj
 0001:000715ba       ?WndProc@KUiMarkPrice@@EAEHIIH@Z 004725ba f   UiMarkPrice.obj
 0001:00071694       ?OnMarkPrice@KUiMarkPrice@@AAEXXZ 00472694 f   UiMarkPrice.obj
 0001:00071717       ?OnCheckInput@KUiMarkPrice@@AAEXXZ 00472717 f   UiMarkPrice.obj
 0001:000717b9       ?OnCancel@KUiMarkPrice@@AAEXXZ 004727b9 f   UiMarkPrice.obj
 0001:00071810       ??_EKUiMarkPrice@@EAEPAXI@Z 00472810 f i UiMarkPrice.obj
 0001:00071810       ??_GKUiMarkPrice@@EAEPAXI@Z 00472810 f i UiMarkPrice.obj
 0001:00071850       ??1KUiMarkPrice@@EAE@XZ    00472850 f i UiMarkPrice.obj
 0001:00071920       ??0KUiPlayerShop@@AAE@XZ   00472920 f   UiPlayerShop.obj
 0001:000719c9       ?GetIfVisible@KUiPlayerShop@@SAPAV1@XZ 004729c9 f   UiPlayerShop.obj
 0001:000719d3       ?OpenWindow@KUiPlayerShop@@SAPAV1@PAUKUiPlayerItem@@@Z 004729d3 f   UiPlayerShop.obj
 0001:00071b18       ?CloseWindow@KUiPlayerShop@@SAXXZ 00472b18 f   UiPlayerShop.obj
 0001:00071b62       ?Breathe@KUiPlayerShop@@EAEXXZ 00472b62 f   UiPlayerShop.obj
 0001:00071bd5       ?Initialize@KUiPlayerShop@@AAEXXZ 00472bd5 f   UiPlayerShop.obj
 0001:00071c9b       ?LoadScheme@KUiPlayerShop@@SAXPBD@Z 00472c9b f   UiPlayerShop.obj
 0001:00071e2f       ?CancelTrade@KUiPlayerShop@@SAXXZ 00472e2f f   UiPlayerShop.obj
 0001:00071e6c       ?WndProc@KUiPlayerShop@@UAEHIIH@Z 00472e6c f   UiPlayerShop.obj
 0001:00071eff       ?OnBuyItem@KUiPlayerShop@@AAEXPAUKUiDraggedObject@@@Z 00472eff f   UiPlayerShop.obj
 0001:00071fd5       ?OnBuyItem@KUiPlayerShop@@AAEXI@Z 00472fd5 f   UiPlayerShop.obj
 0001:00072017       ?UpdateGoods@KUiPlayerShop@@SAXXZ 00473017 f   UiPlayerShop.obj
 0001:0007214f       ?Clear@KUiPlayerShop@@AAEXXZ 0047314f f   UiPlayerShop.obj
 0001:000721c0       ??_GKUiPlayerShop@@EAEPAXI@Z 004731c0 f i UiPlayerShop.obj
 0001:000721c0       ??_EKUiPlayerShop@@EAEPAXI@Z 004731c0 f i UiPlayerShop.obj
 0001:00072200       ??1KUiPlayerShop@@EAE@XZ   00473200 f i UiPlayerShop.obj
 0001:00072290       ??0KUiShop@@AAE@XZ         00473290 f   UiShop.obj
 0001:000723b7       ?GetIfVisible@KUiShop@@SAPAV1@XZ 004733b7 f   UiShop.obj
 0001:000723c1       ?OpenWindow@KUiShop@@SAPAV1@XZ 004733c1 f   UiShop.obj
 0001:000724f8       ?CloseWindow@KUiShop@@SAXXZ 004734f8 f   UiShop.obj
 0001:00072555       ?Initialize@KUiShop@@AAEXXZ 00473555 f   UiShop.obj
 0001:00072679       ?LoadScheme@KUiShop@@SAXPBD@Z 00473679 f   UiShop.obj
 0001:000728cd       ?Breathe@KUiShop@@EAEXXZ   004738cd f   UiShop.obj
 0001:00072984       ?CancelTrade@KUiShop@@SAXXZ 00473984 f   UiShop.obj
 0001:00072995       ?WndProc@KUiShop@@UAEHIIH@Z 00473995 f   UiShop.obj
 0001:00072ae7       ?OnBuyItem@KUiShop@@AAEXPAUKUiDraggedObject@@_N@Z 00473ae7 f   UiShop.obj
 0001:00072c99       ?OnBuyItem@KUiShop@@AAEXIE@Z 00473c99 f   UiShop.obj
 0001:00072d0e       ?OnClickButton@KUiShop@@AAEXPAVKWndButton@@H@Z 00473d0e f   UiShop.obj
 0001:00072e8e       ?SetPage@KUiShop@@AAEXH@Z  00473e8e f   UiShop.obj
 0001:00072f53       ?UpdateData@KUiShop@@UAEXXZ 00473f53 f   UiShop.obj
 0001:000730b7       ?Clear@KUiShop@@AAEXXZ     004740b7 f   UiShop.obj
 0001:00073130       ??_GKUiShop@@EAEPAXI@Z     00474130 f i UiShop.obj
 0001:00073130       ??_EKUiShop@@EAEPAXI@Z     00474130 f i UiShop.obj
 0001:00073170       ??1KUiShop@@EAE@XZ         00474170 f i UiShop.obj
 0001:00073260       ??0KUiShoppingCart@@AAE@XZ 00474260 f   UiShoppingCart.obj
 0001:000733cf       ?GetIfVisible@KUiShoppingCart@@SAPAV1@XZ 004743cf f   UiShoppingCart.obj
 0001:000733d9       ?OpenWindow@KUiShoppingCart@@SAPAV1@PAVKWndWindow@@PAUKUiObjAtContRegion@@PAUKUiItemBuySelInfo@@_N@Z 004743d9 f   UiShoppingCart.obj
 0001:000734eb       ?CloseWindow@KUiShoppingCart@@SAX_N@Z 004744eb f   UiShoppingCart.obj
 0001:0007355f       ?Initialize@KUiShoppingCart@@AAEXXZ 0047455f f   UiShoppingCart.obj
 0001:00073734       ?LoadScheme@KUiShoppingCart@@SAXPBD@Z 00474734 f   UiShoppingCart.obj
 0001:00073acc       ?WndProc@KUiShoppingCart@@UAEHIIH@Z 00474acc f   UiShoppingCart.obj
 0001:00073b68       ?UpdateValue@KUiShoppingCart@@SAXHH@Z 00474b68 f   UiShoppingCart.obj
 0001:00073c22       ?UpdateData@KUiShoppingCart@@AAEXPAVKWndWindow@@PAUKUiObjAtContRegion@@PAUKUiItemBuySelInfo@@@Z 00474c22 f   UiShoppingCart.obj
 0001:00073dd3       ??0KUiShoppingCartGoods@@QAE@XZ 00474dd3 f   UiShoppingCart.obj
 0001:00073ed8       ?Initialize@KUiShoppingCartGoods@@QAEXXZ 00474ed8 f   UiShoppingCart.obj
 0001:00073fff       ?LoadScheme@KUiShoppingCartGoods@@AAEXPBD@Z 00474fff f   UiShoppingCart.obj
 0001:000742e3       ?WndProc@KUiShoppingCartGoods@@EAEHIIH@Z 004752e3 f   UiShoppingCart.obj
 0001:000743cb       ?OnAddCount@KUiShoppingCartGoods@@AAEXXZ 004753cb f   UiShoppingCart.obj
 0001:0007447c       ?OnDelCount@KUiShoppingCartGoods@@AAEXXZ 0047547c f   UiShoppingCart.obj
 0001:0007452d       ?OnCheckInput@KUiShoppingCartGoods@@AAEXXZ 0047552d f   UiShoppingCart.obj
 0001:00074622       ?OnBuyItem@KUiShoppingCartGoods@@QAEXXZ 00475622 f   UiShoppingCart.obj
 0001:00074697       ?Clear@KUiShoppingCartGoods@@QAEXXZ 00475697 f   UiShoppingCart.obj
 0001:0007470c       ?UpdateData@KUiShoppingCartGoods@@QAEXPAVKWndWindow@@PAUKUiDraggedObject@@PAUKUiItemBuySelInfo@@@Z 0047570c f   UiShoppingCart.obj
 0001:000747ec       ?HaveObject@KUiShoppingCartGoods@@QAE_NXZ 004757ec f   UiShoppingCart.obj
 0001:00074820       ??_GKUiShoppingCart@@EAEPAXI@Z 00475820 f i UiShoppingCart.obj
 0001:00074820       ??_EKUiShoppingCart@@EAEPAXI@Z 00475820 f i UiShoppingCart.obj
 0001:00074860       ??1KUiShoppingCart@@EAE@XZ 00475860 f i UiShoppingCart.obj
 0001:000749c0       ??1KUiShoppingCartGoods@@UAE@XZ 004759c0 f i UiShoppingCart.obj
 0001:00074a90       ??_EKUiShoppingCartGoods@@UAEPAXI@Z 00475a90 f i UiShoppingCart.obj
 0001:00074a90       ??_GKUiShoppingCartGoods@@UAEPAXI@Z 00475a90 f i UiShoppingCart.obj
 0001:00074ad0       ?OpenWindow@KUiTrade@@SAPAV1@PAUKUiPlayerItem@@@Z 00475ad0 f   UiTrade.obj
 0001:00074c2a       ?GetIfVisible@KUiTrade@@SAPAV1@XZ 00475c2a f   UiTrade.obj
 0001:00074c34       ?CloseWindow@KUiTrade@@SAXXZ 00475c34 f   UiTrade.obj
 0001:00074cd4       ??0KUiTrade@@AAE@XZ        00475cd4 f   UiTrade.obj
 0001:00074e7b       ??1KUiTrade@@EAE@XZ        00475e7b f   UiTrade.obj
 0001:00074fbb       ?Initialize@KUiTrade@@AAEXXZ 00475fbb f   UiTrade.obj
 0001:0007523b       ?LoadScheme@KUiTrade@@SAXPBD@Z 0047623b f   UiTrade.obj
 0001:00075323       ?LoadScheme@KUiTrade@@AAEXPAVKIniFile@@@Z 00476323 f   UiTrade.obj
 0001:00075667       ?UpdateTakewithItems@KUiTrade@@AAEXXZ 00476667 f   UiTrade.obj
 0001:00075810       ?OnChangedTakewithItem@KUiTrade@@QAEXPAUKUiObjAtRegion@@H@Z 00476810 f   UiTrade.obj
 0001:000758c6       ?OnSelfChangedItem@KUiTrade@@QAEXPAUKUiObjAtRegion@@H@Z 004768c6 f   UiTrade.obj
 0001:000759d4       ?OnOppositeChangedItem@KUiTrade@@QAEXPAUKUiObjAtRegion@@H@Z 004769d4 f   UiTrade.obj
 0001:00075b2d       ?UpdateOperData@KUiTrade@@QAEXXZ 00476b2d f   UiTrade.obj
 0001:00075de0       ?WndProc@KUiTrade@@EAEHIIH@Z 00476de0 f   UiTrade.obj
 0001:00075f6c       ?Breathe@KUiTrade@@EAEXXZ  00476f6c f   UiTrade.obj
 0001:00075fbd       ?OnItemPickDrop@KUiTrade@@AAEXPAUITEM_PICKDROP_PLACE@@0@Z 00476fbd f   UiTrade.obj
 0001:0007611b       ?OnAdjustMoney@KUiTrade@@AAEX_N@Z 0047711b f   UiTrade.obj
 0001:000761e5       ?OnAdjustedMoney@KUiTrade@@AAEXXZ 004771e5 f   UiTrade.obj
 0001:00076283       ?OnModififyMoney@KUiTrade@@AAEXXZ 00477283 f   UiTrade.obj
 0001:00076357       ?OnTrade@KUiTrade@@AAEXXZ  00477357 f   UiTrade.obj
 0001:000763a7       ?OnOk@KUiTrade@@AAEXH@Z    004773a7 f   UiTrade.obj
 0001:0007640a       ?OnCancelTrade@KUiTrade@@AAEXXZ 0047740a f   UiTrade.obj
 0001:0007644c       ?UpdateTradeEnd@KUiTrade@@QAEXH@Z 0047744c f   UiTrade.obj
 0001:00076470       ??_EKUiTrade@@EAEPAXI@Z    00477470 f i UiTrade.obj
 0001:00076470       ??_GKUiTrade@@EAEPAXI@Z    00477470 f i UiTrade.obj
 0001:000764b0       ?OpenWindow@KUiTradeConfirm@@SAPAV1@PAVKWndWindow@@PAUKUiObjAtContRegion@@PAUKUiItemBuySelInfo@@W4TRADE_CONFIRM_ACTION@@HH@Z 004774b0 f   UiTradeConfirmWnd.obj
 0001:00076a48       ??0KUiTradeConfirm@@AAE@XZ 00477a48 f   UiTradeConfirmWnd.obj
 0001:00076b9d       ?GetIfVisible@KUiTradeConfirm@@SAPAV1@XZ 00477b9d f   UiTradeConfirmWnd.obj
 0001:00076bca       ?CloseWindow@KUiTradeConfirm@@SAX_N@Z 00477bca f   UiTradeConfirmWnd.obj
 0001:00076c1e       ?Show@KUiTradeConfirm@@EAEXXZ 00477c1e f   UiTradeConfirmWnd.obj
 0001:00076d27       ?Hide@KUiTradeConfirm@@EAEXXZ 00477d27 f   UiTradeConfirmWnd.obj
 0001:00076d57       ?Initialize@KUiTradeConfirm@@AAEHXZ 00477d57 f   UiTradeConfirmWnd.obj
 0001:00076ee7       ?LoadScheme@KUiTradeConfirm@@AAEXPBD@Z 00477ee7 f   UiTradeConfirmWnd.obj
 0001:000772af       ?WndProc@KUiTradeConfirm@@EAEHIIH@Z 004782af f   UiTradeConfirmWnd.obj
 0001:000774aa       ?OnBuy@KUiTradeConfirm@@AAEXXZ 004784aa f   UiTradeConfirmWnd.obj
 0001:00077527       ?OnSale@KUiTradeConfirm@@AAEXXZ 00478527 f   UiTradeConfirmWnd.obj
 0001:0007757f       ?OnRepair@KUiTradeConfirm@@AAEXXZ 0047857f f   UiTradeConfirmWnd.obj
 0001:000775d7       ?OnBreak@KUiTradeConfirm@@AAEXXZ 004785d7 f   UiTradeConfirmWnd.obj
 0001:00077666       ?OnIncrease@KUiTradeConfirm@@AAEXXZ 00478666 f   UiTradeConfirmWnd.obj
 0001:00077762       ?OnDecrease@KUiTradeConfirm@@AAEXXZ 00478762 f   UiTradeConfirmWnd.obj
 0001:0007785e       ?OnCheckInput@KUiTradeConfirm@@AAEXXZ 0047885e f   UiTradeConfirmWnd.obj
 0001:0007799e       ?OnCancel@KUiTradeConfirm@@AAEXXZ 0047899e f   UiTradeConfirmWnd.obj
 0001:000779d0       ??_EKUiTradeConfirm@@EAEPAXI@Z 004789d0 f i UiTradeConfirmWnd.obj
 0001:000779d0       ??_GKUiTradeConfirm@@EAEPAXI@Z 004789d0 f i UiTradeConfirmWnd.obj
 0001:00077a10       ??1KUiTradeConfirm@@EAE@XZ 00478a10 f i UiTradeConfirmWnd.obj
 0001:00077b9b       ?WndProc@KUiGameSpace@@UAEHIIH@Z 00478b9b f   UiGame.obj
 0001:00077ffe       ?PaintWindow@KUiGameSpace@@UAEXXZ 00478ffe f   UiGame.obj
 0001:00078035       ?OnMouseMoveCursor@KUiGameSpace@@QAEXHH@Z 00479035 f   UiGame.obj
 0001:000781b7       ?ProcessPeople@@YAXPAUKUiPlayerItem@@H@Z 004791b7 f   UiGame.obj
 0001:0007854b       ?ProcessEmote@@YAXPAD0H@Z  0047954b f   UiGame.obj
 0001:0007871c       ?PopUpContextPeopleMenu@@YAXABUKUiPlayerItem@@HH@Z 0047971c f   UiGame.obj
 0001:000789f7       ?PopUpContextEmoteMenu@@YAXPADHH@Z 004799f7 f   UiGame.obj
 0001:00078c20       ??1KUiGameSpace@@UAE@XZ    00479c20 f i UiGame.obj
 0001:00078c50       ??0KUiGameSpace@@QAE@XZ    00479c50 f i UiGame.obj
 0001:00078c80       ??_GKUiGameSpace@@UAEPAXI@Z 00479c80 f i UiGame.obj
 0001:00078c80       ??_EKUiGameSpace@@UAEPAXI@Z 00479c80 f i UiGame.obj
 0001:00078cc0       ??0KUiNotification@@AAE@XZ 00479cc0 f   UiNotification.obj
 0001:00078d4f       ?OpenWindow@KUiNotification@@SAPAV1@PBD0@Z 00479d4f f   UiNotification.obj
 0001:00078f19       ?CloseWindow@KUiNotification@@SAX_N@Z 00479f19 f   UiNotification.obj
 0001:00078f82       ?GetIfVisible@KUiNotification@@SAPAV1@XZ 00479f82 f   UiNotification.obj
 0001:00078faf       ?Initialize@KUiNotification@@AAEXXZ 00479faf f   UiNotification.obj
 0001:00079062       ?LoadScheme@KUiNotification@@SAXPBD@Z 0047a062 f   UiNotification.obj
 0001:000791f7       ?WndProc@KUiNotification@@EAEHIIH@Z 0047a1f7 f   UiNotification.obj
 0001:000792a1       ?OnCancel@KUiNotification@@AAEXXZ 0047a2a1 f   UiNotification.obj
 0001:000792d0       ??_EKUiNotification@@EAEPAXI@Z 0047a2d0 f i UiNotification.obj
 0001:000792d0       ??_GKUiNotification@@EAEPAXI@Z 0047a2d0 f i UiNotification.obj
 0001:00079310       ??1KUiNotification@@EAE@XZ 0047a310 f i UiNotification.obj
 0001:000793a0       ??0KUiSysMsgCentre@@AAE@XZ 0047a3a0 f   UiSysMsgCentre.obj
 0001:00079502       ??1KUiSysMsgCentre@@EAE@XZ 0047a502 f   UiSysMsgCentre.obj
 0001:00079595       ?OpenWindow@KUiSysMsgCentre@@SAPAV1@XZ 0047a595 f   UiSysMsgCentre.obj
 0001:0007966b       ?Initialize@KUiSysMsgCentre@@AAEXXZ 0047a66b f   UiSysMsgCentre.obj
 0001:000797cb       ?CloseWindow@KUiSysMsgCentre@@SAXXZ 0047a7cb f   UiSysMsgCentre.obj
 0001:00079800       ?LoadScheme@KUiSysMsgCentre@@SAXPBD@Z 0047a800 f   UiSysMsgCentre.obj
 0001:000798ed       ?LoadScheme@KUiSysMsgCentre@@AAEXPAVKIniFile@@@Z 0047a8ed f   UiSysMsgCentre.obj
 0001:00079be8       ?WndProc@KUiSysMsgCentre@@EAEHIIH@Z 0047abe8 f   UiSysMsgCentre.obj
 0001:00079df0       ?OnConfirmOperFinished@KUiSysMsgCentre@@AAEXIH@Z 0047adf0 f   UiSysMsgCentre.obj
 0001:0007a0fa       ?PtInWindow@KUiSysMsgCentre@@EAEHHH@Z 0047b0fa f   UiSysMsgCentre.obj
 0001:0007a1a9       ?Breathe@KUiSysMsgCentre@@EAEXXZ 0047b1a9 f   UiSysMsgCentre.obj
 0001:0007a2fe       ?AMessageArrival@KUiSysMsgCentre@@SA_NPAUKSystemMessage@@PAX@Z 0047b2fe f   UiSysMsgCentre.obj
 0001:0007a47d       ?FilterSameMsg@KUiSysMsgCentre@@AAE_NPAUKSystemMessage@@PAX@Z 0047b47d f   UiSysMsgCentre.obj
 0001:0007a6ef       ?Clear@KUiSysMsgCentre@@AAEXXZ 0047b6ef f   UiSysMsgCentre.obj
 0001:0007a7f0       ?GetAMsgSpace@KUiSysMsgCentre@@AAEPAUKSystemMessage@@H@Z 0047b7f0 f   UiSysMsgCentre.obj
 0001:0007a92a       ?SetPopupMsgDest@KUiSysMsgCentre@@AAEXXZ 0047b92a f   UiSysMsgCentre.obj
 0001:0007aaac       ?ConfirmMsg@KUiSysMsgCentre@@AAEXPAUKSystemMessage@@_N@Z 0047baac f   UiSysMsgCentre.obj
 0001:0007b170       ?DeleteMsgInHeap@KUiSysMsgCentre@@AAEXHH_N0@Z 0047c170 f   UiSysMsgCentre.obj
 0001:0007b34b       ?MovePopupedMsgToHeap@KUiSysMsgCentre@@AAEXXZ 0047c34b f   UiSysMsgCentre.obj
 0001:0007b44a       ?AddAMsgToHeap@KUiSysMsgCentre@@AAE_NPAUKSystemMessage@@H_N@Z 0047c44a f   UiSysMsgCentre.obj
 0001:0007b591       ?PaintWindow@KUiSysMsgCentre@@EAEXXZ 0047c591 f   UiSysMsgCentre.obj
 0001:0007bb60       ??_GKUiSysMsgCentre@@EAEPAXI@Z 0047cb60 f i UiSysMsgCentre.obj
 0001:0007bb60       ??_EKUiSysMsgCentre@@EAEPAXI@Z 0047cb60 f i UiSysMsgCentre.obj
 0001:0007bba0       ?OpenWindow@KUiCaveMap@@SAPAV1@XZ 0047cba0 f   UiCaveMap.obj
 0001:0007bcb3       ?CloseWindow@KUiCaveMap@@SAXXZ 0047ccb3 f   UiCaveMap.obj
 0001:0007bcf0       ?GetIfVisible@KUiCaveMap@@SAPAV1@XZ 0047ccf0 f   UiCaveMap.obj
 0001:0007bd1d       ?Initialize@KUiCaveMap@@AAEXXZ 0047cd1d f   UiCaveMap.obj
 0001:0007be74       ?WndProc@KUiCaveMap@@EAEHIIH@Z 0047ce74 f   UiCaveMap.obj
 0001:0007bef4       ?UpdateData@KUiCaveMap@@EAEXXZ 0047cef4 f   UiCaveMap.obj
 0001:0007c0d9       ?Breathe@KUiCaveMap@@EAEXXZ 0047d0d9 f   UiCaveMap.obj
 0001:0007c120       ??0KUiCaveMap@@AAE@XZ      0047d120 f i UiCaveMap.obj
 0001:0007c190       ??_GKUiCaveMap@@EAEPAXI@Z  0047d190 f i UiCaveMap.obj
 0001:0007c190       ??_EKUiCaveMap@@EAEPAXI@Z  0047d190 f i UiCaveMap.obj
 0001:0007c1d0       ??1KUiCaveMap@@EAE@XZ      0047d1d0 f i UiCaveMap.obj
 0001:0007c240       ?OpenWindow@KUiFindPos@@SAPAV1@XZ 0047d240 f   UiFindPos.obj
 0001:0007c358       ?CloseWindow@KUiFindPos@@SAXXZ 0047d358 f   UiFindPos.obj
 0001:0007c382       ?GetIfVisible@KUiFindPos@@SAPAV1@XZ 0047d382 f   UiFindPos.obj
 0001:0007c3af       ?UpdateData@KUiFindPos@@EAEXXZ 0047d3af f   UiFindPos.obj
 0001:0007c44b       ?Initialize@KUiFindPos@@AAEHXZ 0047d44b f   UiFindPos.obj
 0001:0007c56a       ?LoadScheme@KUiFindPos@@SAXPBD@Z 0047d56a f   UiFindPos.obj
 0001:0007c7bf       ?WndProc@KUiFindPos@@EAEHIIH@Z 0047d7bf f   UiFindPos.obj
 0001:0007c943       ?OnOk@KUiFindPos@@AAEXXZ   0047d943 f   UiFindPos.obj
 0001:0007c9d3       ?OnCheckInput@KUiFindPos@@AAEXXZ 0047d9d3 f   UiFindPos.obj
 0001:0007caeb       ?OnCancel@KUiFindPos@@AAEXXZ 0047daeb f   UiFindPos.obj
 0001:0007cb10       ??0KUiFindPos@@AAE@XZ      0047db10 f i UiFindPos.obj
 0001:0007cbe0       ??_EKUiFindPos@@EAEPAXI@Z  0047dbe0 f i UiFindPos.obj
 0001:0007cbe0       ??_GKUiFindPos@@EAEPAXI@Z  0047dbe0 f i UiFindPos.obj
 0001:0007cc20       ??1KUiFindPos@@EAE@XZ      0047dc20 f i UiFindPos.obj
 0001:0007ccf0       ??0KUiMiniMap@@AAE@XZ      0047dcf0 f   UiMiniMap.obj
 0001:0007ce57       ?OpenWindow@KUiMiniMap@@SAPAV1@XZ 0047de57 f   UiMiniMap.obj
 0001:0007cf42       ?GetIfVisible@KUiMiniMap@@SAPAV1@XZ 0047df42 f   UiMiniMap.obj
 0001:0007cf6f       ?Initialize@KUiMiniMap@@AAEXXZ 0047df6f f   UiMiniMap.obj
 0001:0007d118       ?CloseWindow@KUiMiniMap@@SAXXZ 0047e118 f   UiMiniMap.obj
 0001:0007d1a0       ?IsHavePicMap@KUiMiniMap@@SA_NXZ 0047e1a0 f   UiMiniMap.obj
 0001:0007d1b0       ?LoadScheme@KUiMiniMap@@SAXPBD@Z 0047e1b0 f   UiMiniMap.obj
 0001:0007d300       ?LoadScheme@KUiMiniMap@@AAEXPAVKIniFile@@@Z 0047e300 f   UiMiniMap.obj
 0001:0007d72e       ?WndProc@KUiMiniMap@@EAEHIIH@Z 0047e72e f   UiMiniMap.obj
 0001:0007dd6e       ?StopScrollMap@KUiMiniMap@@AAEXXZ 0047ed6e f   UiMiniMap.obj
 0001:0007ddb6       ?MapMoveBack@KUiMiniMap@@AAEXXZ 0047edb6 f   UiMiniMap.obj
 0001:0007de40       ?SetValueFindPos@KUiMiniMap@@SAXHH@Z 0047ee40 f   UiMiniMap.obj
 0001:0007dec1       ?PaintWindow@KUiMiniMap@@EAEXXZ 0047eec1 f   UiMiniMap.obj
 0001:0007dfdb       ?Breathe@KUiMiniMap@@EAEXXZ 0047efdb f   UiMiniMap.obj
 0001:0007e0d2       ?UpdateSceneTimeInfo@KUiMiniMap@@SAXPAUKUiSceneTimeInfo@@@Z 0047f0d2 f   UiMiniMap.obj
 0001:0007e250       ?Show@KUiMiniMap@@UAEXXZ   0047f250 f   UiMiniMap.obj
 0001:0007e3af       ?Hide@KUiMiniMap@@UAEXXZ   0047f3af f   UiMiniMap.obj
 0001:0007e3fd       ?MapScroll@KUiMiniMap@@AAEXH@Z 0047f3fd f   UiMiniMap.obj
 0001:0007e52a       ?MapToggleStatus@@YAXXZ    0047f52a f   UiMiniMap.obj
 0001:0007e5a0       ?MapGetMode@@YA?AW4MINIMAP_MODE@@XZ 0047f5a0 f   UiMiniMap.obj
 0001:0007e5aa       ?MapSetMode@@YAXW4MINIMAP_MODE@@@Z 0047f5aa f   UiMiniMap.obj
 0001:0007e720       ??0KWndShadow@@QAE@XZ      0047f720 f i UiMiniMap.obj
 0001:0007e760       ??_GKWndShadow@@UAEPAXI@Z  0047f760 f i UiMiniMap.obj
 0001:0007e760       ??_EKWndShadow@@UAEPAXI@Z  0047f760 f i UiMiniMap.obj
 0001:0007e7a0       ??1KWndShadow@@UAE@XZ      0047f7a0 f i UiMiniMap.obj
 0001:0007e7d0       ??_GKUiMiniMap@@EAEPAXI@Z  0047f7d0 f i UiMiniMap.obj
 0001:0007e7d0       ??_EKUiMiniMap@@EAEPAXI@Z  0047f7d0 f i UiMiniMap.obj
 0001:0007e810       ??1KUiMiniMap@@EAE@XZ      0047f810 f i UiMiniMap.obj
 0001:0007e940       ??0KUiWorldMap@@AAE@XZ     0047f940 f   UiWorldMap.obj
 0001:0007ea1f       ?OpenWindow@KUiWorldMap@@SAPAV1@XZ 0047fa1f f   UiWorldMap.obj
 0001:0007eb32       ?CloseWindow@KUiWorldMap@@SAXXZ 0047fb32 f   UiWorldMap.obj
 0001:0007eb6f       ?GetIfVisible@KUiWorldMap@@SAPAV1@XZ 0047fb6f f   UiWorldMap.obj
 0001:0007eb9c       ?Initialize@KUiWorldMap@@AAEXXZ 0047fb9c f   UiWorldMap.obj
 0001:0007efa1       ?WndProc@KUiWorldMap@@EAEHIIH@Z 0047ffa1 f   UiWorldMap.obj
 0001:0007f042       ?UpdateData@KUiWorldMap@@EAEXXZ 00480042 f   UiWorldMap.obj
 0001:0007f559       ?Breathe@KUiWorldMap@@EAEXXZ 00480559 f   UiWorldMap.obj
 0001:0007f620       ??_EKUiWorldMap@@EAEPAXI@Z 00480620 f i UiWorldMap.obj
 0001:0007f620       ??_GKUiWorldMap@@EAEPAXI@Z 00480620 f i UiWorldMap.obj
 0001:0007f660       ??1KUiWorldMap@@EAE@XZ     00480660 f i UiWorldMap.obj
 0001:0007f710       ?GetColor@KUiSelColor@@SAIH@Z 00480710 f   UiSelColor.obj
 0001:0007f749       ?LoadScheme@KUiSelColor@@SAXPBD@Z 00480749 f   UiSelColor.obj
 0001:0007f9ef       ?PopupMenu@KUiSelColor@@SAXPAVKWndWindow@@IHHH@Z 004809ef f   UiSelColor.obj
 0001:0007fa48       ?CancelMenu@KUiSelColor@@SAXXZ 00480a48 f   UiSelColor.obj
 0001:0007fa60       ??0KUiNewPlayerStartMsg@@AAE@XZ 00480a60 f   UiNewPlayerStartMsg.obj
 0001:0007fb13       ??1KUiNewPlayerStartMsg@@EAE@XZ 00480b13 f   UiNewPlayerStartMsg.obj
 0001:0007fbc3       ?OpenWindow@KUiNewPlayerStartMsg@@SAPAV1@XZ 00480bc3 f   UiNewPlayerStartMsg.obj
 0001:0007fc9f       ?CloseWindow@KUiNewPlayerStartMsg@@SAX_N@Z 00480c9f f   UiNewPlayerStartMsg.obj
 0001:0007fd02       ?Initialize@KUiNewPlayerStartMsg@@AAEXXZ 00480d02 f   UiNewPlayerStartMsg.obj
 0001:0007fe3e       ?LoadList@KUiNewPlayerStartMsg@@AAEXXZ 00480e3e f   UiNewPlayerStartMsg.obj
 0001:0007ff31       ?LoadScheme@KUiNewPlayerStartMsg@@AAEXPBD@Z 00480f31 f   UiNewPlayerStartMsg.obj
 0001:00080114       ?WndProc@KUiNewPlayerStartMsg@@EAEHIIH@Z 00481114 f   UiNewPlayerStartMsg.obj
 0001:0008019c       ?OnKeyDown@KUiNewPlayerStartMsg@@AAEHI@Z 0048119c f   UiNewPlayerStartMsg.obj
 0001:000801f9       ?OnClickButton@KUiNewPlayerStartMsg@@AAEXPAVKWndButton@@@Z 004811f9 f   UiNewPlayerStartMsg.obj
 0001:00080309       ?OnOk@KUiNewPlayerStartMsg@@AAEXXZ 00481309 f   UiNewPlayerStartMsg.obj
 0001:00080340       ??_GKUiNewPlayerStartMsg@@EAEPAXI@Z 00481340 f i UiNewPlayerStartMsg.obj
 0001:00080340       ??_EKUiNewPlayerStartMsg@@EAEPAXI@Z 00481340 f i UiNewPlayerStartMsg.obj
 0001:00080380       ??0KUiPlayVideo@@QAE@XZ    00481380 f   UiPlayVideo.obj
 0001:000804a0       ?OpenWindow@KUiPlayVideo@@SAPAV1@XZ 004814a0 f   UiPlayVideo.obj
 0001:00080576       ?WndProc@KUiPlayVideo@@EAEHIIH@Z 00481576 f   UiPlayVideo.obj
 0001:00080633       ?CloseWindow@KUiPlayVideo@@SAX_N@Z 00481633 f   UiPlayVideo.obj
 0001:0008069f       ?LoadScheme@KUiPlayVideo@@SAXPBD0@Z 0048169f f   UiPlayVideo.obj
 0001:00080788       ?Initialize@KUiPlayVideo@@AAEHXZ 00481788 f   UiPlayVideo.obj
 0001:000809ce       ?Terminate@KUiPlayVideo@@AAEXXZ 004819ce f   UiPlayVideo.obj
 0001:00080a26       ?OpenVideo@KUiPlayVideo@@QAEHPBD@Z 00481a26 f   UiPlayVideo.obj
 0001:00080cdc       ?CloseVideo@KUiPlayVideo@@QAEX_N@Z 00481cdc f   UiPlayVideo.obj
 0001:00080da0       ?Breathe@KUiPlayVideo@@EAEXXZ 00481da0 f   UiPlayVideo.obj
 0001:00080eba       ?PaintWindow@KUiPlayVideo@@EAEXXZ 00481eba f   UiPlayVideo.obj
 0001:000811e1       ?OnPlayFinished@KUiPlayVideo@@AAEXXZ 004821e1 f   UiPlayVideo.obj
 0001:00081266       ?SetPosition@KUiPlayVideo@@QAEXHH@Z 00482266 f   UiPlayVideo.obj
 0001:00081294       ?SetSize@KUiPlayVideo@@UAEXHH@Z 00482294 f   UiPlayVideo.obj
 0001:000812cb       ?Setting@KUiPlayVideo@@QAEX_N0PAVKWndWindow@@I@Z 004822cb f   UiPlayVideo.obj
 0001:00081310       ??_GKUiPlayVideo@@EAEPAXI@Z 00482310 f i UiPlayVideo.obj
 0001:00081310       ??_EKUiPlayVideo@@EAEPAXI@Z 00482310 f i UiPlayVideo.obj
 0001:00081350       ??1KUiPlayVideo@@EAE@XZ    00482350 f i UiPlayVideo.obj
 0001:00081380       ??0KUiHelper@@AAE@XZ       00482380 f   UiHelper.obj
 0001:000813b0       ??1KUiHelper@@EAE@XZ       004823b0 f   UiHelper.obj
 0001:000813dd       ?OpenWindow@KUiHelper@@SAPAV1@_N@Z 004823dd f   UiHelper.obj
 0001:000814e5       ?CloseWindow@KUiHelper@@SAX_N@Z 004824e5 f   UiHelper.obj
 0001:00081536       ?GetIfVisible@KUiHelper@@SAPAV1@XZ 00482536 f   UiHelper.obj
 0001:00081563       ?Initialize@KUiHelper@@AAEXXZ 00482563 f   UiHelper.obj
 0001:000815d2       ?WndProc@KUiHelper@@EAEHIIH@Z 004825d2 f   UiHelper.obj
 0001:00081666       ?LoadScheme@KUiHelper@@QAEXPBD@Z 00482666 f   UiHelper.obj
 0001:00081836       ?Show@KUiHelper@@EAEXXZ    00482836 f   UiHelper.obj
 0001:000818e7       ?SelectInterfacePic@KUiHelper@@SAXXZ 004828e7 f   UiHelper.obj
 0001:00081950       ?SelectKeyboardPic@KUiHelper@@SAXXZ 00482950 f   UiHelper.obj
 0001:000819b9       ?SelectWuxingPic@KUiHelper@@SAXXZ 004829b9 f   UiHelper.obj
 0001:00081a30       ?Breathe@KUiHelper@@EAEXXZ 00482a30 f i UiHelper.obj
 0001:00081a60       ??_GKUiHelper@@EAEPAXI@Z   00482a60 f i UiHelper.obj
 0001:00081a60       ??_EKUiHelper@@EAEPAXI@Z   00482a60 f i UiHelper.obj
 0001:00081aa0       ?GetIfVisible@KUiHelper2@@SAPAV1@XZ 00482aa0 f   UiHelper2.obj
 0001:00081acd       ??0KUiHelper2@@AAE@XZ      00482acd f   UiHelper2.obj
 0001:00081bc3       ??1KUiHelper2@@EAE@XZ      00482bc3 f   UiHelper2.obj
 0001:00081cb5       ?OpenWindow@KUiHelper2@@SAPAV1@_N@Z 00482cb5 f   UiHelper2.obj
 0001:00081da0       ?Initialize@KUiHelper2@@AAEXXZ 00482da0 f   UiHelper2.obj
 0001:00081f04       ?CloseWindow@KUiHelper2@@SAX_N@Z 00482f04 f   UiHelper2.obj
 0001:00081f55       ?LoadScheme@KUiHelper2@@SAXPBD@Z 00482f55 f   UiHelper2.obj
 0001:000821e9       ?WndProc@KUiHelper2@@EAEHIIH@Z 004831e9 f   UiHelper2.obj
 0001:0008246e       ?Clear@KUiHelper2@@AAEXXZ  0048346e f   UiHelper2.obj
 0001:000824ad       ?LoadIndexList@KUiHelper2@@AAEXPBD@Z 004834ad f   UiHelper2.obj
 0001:000827df       ?UpdateData@KUiHelper2@@AAEXH@Z 004837df f   UiHelper2.obj
 0001:00082970       ??_GKUiHelper2@@EAEPAXI@Z  00483970 f i UiHelper2.obj
 0001:00082970       ??_EKUiHelper2@@EAEPAXI@Z  00483970 f i UiHelper2.obj
 0001:000829b0       ?GetIfVisible@KUiHelperMission@@SAPAV1@XZ 004839b0 f   UiHelperMission.obj
 0001:000829dd       ??0KUiHelperMission@@AAE@XZ 004839dd f   UiHelperMission.obj
 0001:00082af7       ??1KUiHelperMission@@EAE@XZ 00483af7 f   UiHelperMission.obj
 0001:00082c0d       ?OpenWindow@KUiHelperMission@@SAPAV1@_N@Z 00483c0d f   UiHelperMission.obj
 0001:00082cf8       ?Initialize@KUiHelperMission@@AAEXXZ 00483cf8 f   UiHelperMission.obj
 0001:00082e45       ?CloseWindow@KUiHelperMission@@SAX_N@Z 00483e45 f   UiHelperMission.obj
 0001:00082e96       ?LoadScheme@KUiHelperMission@@SAXPBD@Z 00483e96 f   UiHelperMission.obj
 0001:0008318a       ?WndProc@KUiHelperMission@@EAEHIIH@Z 0048418a f   UiHelperMission.obj
 0001:0008340f       ?Clear@KUiHelperMission@@AAEXXZ 0048440f f   UiHelperMission.obj
 0001:0008344e       ?LoadIndexList@KUiHelperMission@@AAEXPBD@Z 0048444e f   UiHelperMission.obj
 0001:00083780       ?UpdateData@KUiHelperMission@@AAEXH@Z 00484780 f   UiHelperMission.obj
 0001:00083910       ??_GKUiHelperMission@@EAEPAXI@Z 00484910 f i UiHelperMission.obj
 0001:00083910       ??_EKUiHelperMission@@EAEPAXI@Z 00484910 f i UiHelperMission.obj
 0001:00083950       ?LaunchReconnect@KReconnectWnd@@SA_NH@Z 00484950 f   UiReconnect.obj
 0001:00083a87       ?IsReconnecttingGoingOn@KReconnectWnd@@SA_NXZ 00484a87 f   UiReconnect.obj
 0001:00083a98       ?FirstReconnect@KReconnectWnd@@AAEXXZ 00484a98 f   UiReconnect.obj
 0001:00083b52       ?StartReconnect@KReconnectWnd@@AAE_NXZ 00484b52 f   UiReconnect.obj
 0001:00083c9e       ?Exit@KReconnectWnd@@SAX_N@Z 00484c9e f   UiReconnect.obj
 0001:00083cf9       ?Breathe@KReconnectWnd@@EAEXXZ 00484cf9 f   UiReconnect.obj
 0001:0008408f       ?WndProc@KReconnectWnd@@EAEHIIH@Z 0048508f f   UiReconnect.obj
 0001:000840f0       ??0KReconnectWnd@@AAE@XZ   004850f0 f i UiReconnect.obj
 0001:00084120       ??_GKReconnectWnd@@EAEPAXI@Z 00485120 f i UiReconnect.obj
 0001:00084120       ??_EKReconnectWnd@@EAEPAXI@Z 00485120 f i UiReconnect.obj
 0001:00084160       ??1KReconnectWnd@@EAE@XZ   00485160 f i UiReconnect.obj
 0001:00084190       ?LaunchRevive@KReviveWnd@@SA_NXZ 00485190 f   UiRevive.obj
 0001:0008428f       ?FirstRevive@KReviveWnd@@AAEXXZ 0048528f f   UiRevive.obj
 0001:000842c4       ?CloseWindow@KReviveWnd@@AAEXH@Z 004852c4 f   UiRevive.obj
 0001:00084310       ?Revive@KReviveWnd@@AAEXXZ 00485310 f   UiRevive.obj
 0001:00084360       ?Reborn@KReviveWnd@@AAEXXZ 00485360 f   UiRevive.obj
 0001:00084372       ?TimeoutRevive@KReviveWnd@@AAEXXZ 00485372 f   UiRevive.obj
 0001:000843c2       ?Breathe@KReviveWnd@@EAEXXZ 004853c2 f   UiRevive.obj
 0001:0008454f       ?WndProc@KReviveWnd@@EAEHIIH@Z 0048554f f   UiRevive.obj
 0001:00084590       ??0KReviveWnd@@AAE@XZ      00485590 f i UiRevive.obj
 0001:000845c0       ??_EKReviveWnd@@EAEPAXI@Z  004855c0 f i UiRevive.obj
 0001:000845c0       ??_GKReviveWnd@@EAEPAXI@Z  004855c0 f i UiRevive.obj
 0001:00084600       ??1KReviveWnd@@EAE@XZ      00485600 f i UiRevive.obj
 0001:00084630       ?LoadData@KTaskDataFile@@SAXXZ 00485630 f   UiTaskDataFile.obj
 0001:000848f4       ?SaveData@KTaskDataFile@@SA_NXZ 004858f4 f   UiTaskDataFile.obj
 0001:00084b9b       ?GetFileName@KTaskDataFile@@CAXPADH@Z 00485b9b f   UiTaskDataFile.obj
 0001:00084bd0       ?ClearAll@KTaskDataFile@@SAXXZ 00485bd0 f   UiTaskDataFile.obj
 0001:00084c3f       ?GetPersonalRecord@KTaskDataFile@@SAHPADH@Z 00485c3f f   UiTaskDataFile.obj
 0001:00084cab       ?SetPersonalRecord@KTaskDataFile@@SA_NPBDH@Z 00485cab f   UiTaskDataFile.obj
 0001:00084d53       ?RemoveSystemRecord@KTaskDataFile@@SA_NH@Z 00485d53 f   UiTaskDataFile.obj
 0001:00084e19       ?GetSystemRecordCount@KTaskDataFile@@SAHXZ 00485e19 f   UiTaskDataFile.obj
 0001:00084e23       ?GetSystemRecord@KTaskDataFile@@SAPBUTASK_SYSTEM_RECORD@@H@Z 00485e23 f   UiTaskDataFile.obj
 0001:00084e81       ?InsertSystemRecord@KTaskDataFile@@SA_NPAUTASK_SYSTEM_RECORD@@@Z 00485e81 f   UiTaskDataFile.obj
 0001:00084f4a       ?AppendSystemRecord@KTaskDataFile@@CAXPAUKTaskSystemRecordNode@1@@Z 00485f4a f   UiTaskDataFile.obj
 0001:00084fa4       ?InsertSystemRecord@KTaskDataFile@@CAXPAUKTaskSystemRecordNode@1@@Z 00485fa4 f   UiTaskDataFile.obj
 0001:00084fd0       ??0KTaskEdit@@QAE@XZ       00485fd0 f   UiTaskNote.obj
 0001:00085057       ?Initialize@KUiTaskNote_Personal@@QAEXXZ 00486057 f   UiTaskNote.obj
 0001:000850a8       ?LoadScheme@KUiTaskNote_Personal@@QAEXPBD@Z 004860a8 f   UiTaskNote.obj
 0001:0008522b       ?UpdateView@KUiTaskNote_Personal@@QAEXXZ 0048622b f   UiTaskNote.obj
 0001:000852a6       ?UpdateData@KUiTaskNote_Personal@@UAEXXZ 004862a6 f   UiTaskNote.obj
 0001:000852ca       ?WndProc@KUiTaskNote_Personal@@EAEHIIH@Z 004862ca f   UiTaskNote.obj
 0001:00085339       ?Show@KUiTaskNote_Personal@@UAEXXZ 00486339 f   UiTaskNote.obj
 0001:0008536e       ?Hide@KUiTaskNote_Personal@@UAEXXZ 0048636e f   UiTaskNote.obj
 0001:0008539c       ?OnSave@KUiTaskNote_Personal@@AAEXXZ 0048639c f   UiTaskNote.obj
 0001:00085407       ?Initialize@KUiTaskNote_System@@QAEXXZ 00486407 f   UiTaskNote.obj
 0001:00085446       ?LoadScheme@KUiTaskNote_System@@QAEXPBD@Z 00486446 f   UiTaskNote.obj
 0001:00085595       ?WndProc@KUiTaskNote_System@@EAEHIIH@Z 00486595 f   UiTaskNote.obj
 0001:00085673       ?OnDelete@KUiTaskNote_System@@AAEXH@Z 00486673 f   UiTaskNote.obj
 0001:000856fb       ?UpdateView@KUiTaskNote_System@@QAEXXZ 004866fb f   UiTaskNote.obj
 0001:000857c1       ??0KUiTaskNote@@AAE@XZ     004867c1 f   UiTaskNote.obj
 0001:00085874       ??1KUiTaskNote@@EAE@XZ     00486874 f   UiTaskNote.obj
 0001:00085924       ?OpenWindow@KUiTaskNote@@SAPAV1@XZ 00486924 f   UiTaskNote.obj
 0001:00085a1a       ?CloseWindow@KUiTaskNote@@SAX_N@Z 00486a1a f   UiTaskNote.obj
 0001:00085a7b       ?GetIfVisible@KUiTaskNote@@SAPAV1@XZ 00486a7b f   UiTaskNote.obj
 0001:00085aa8       ?InitData@KUiTaskNote@@AAEXXZ 00486aa8 f   UiTaskNote.obj
 0001:00085ae5       ?SaveData@KUiTaskNote@@AAEXXZ 00486ae5 f   UiTaskNote.obj
 0001:00085b26       ?LoadScheme@KUiTaskNote@@SAXPBD@Z 00486b26 f   UiTaskNote.obj
 0001:00085ce5       ?Initialize@KUiTaskNote@@AAEXXZ 00486ce5 f   UiTaskNote.obj
 0001:00085dd3       ?WndProc@KUiTaskNote@@EAEHIIH@Z 00486dd3 f   UiTaskNote.obj
 0001:00085e89       ?OnClose@KUiTaskNote@@AAEXXZ 00486e89 f   UiTaskNote.obj
 0001:00085eaf       ?WakeUp@KUiTaskNote@@SAXPBDHI@Z 00486eaf f   UiTaskNote.obj
 0001:00085f80       ??_GKTaskEdit@@UAEPAXI@Z   00486f80 f i UiTaskNote.obj
 0001:00085f80       ??_EKTaskEdit@@UAEPAXI@Z   00486f80 f i UiTaskNote.obj
 0001:00085fc0       ??1KTaskEdit@@UAE@XZ       00486fc0 f i UiTaskNote.obj
 0001:00085ff0       ??_GKUiTaskNote@@EAEPAXI@Z 00486ff0 f i UiTaskNote.obj
 0001:00085ff0       ??_EKUiTaskNote@@EAEPAXI@Z 00486ff0 f i UiTaskNote.obj
 0001:00086030       ??0KUiTaskNote_System@@QAE@XZ 00487030 f i UiTaskNote.obj
 0001:000860b0       ??1KUiTaskNote_System@@UAE@XZ 004870b0 f i UiTaskNote.obj
 0001:00086130       ??0KUiTaskNote_Personal@@QAE@XZ 00487130 f i UiTaskNote.obj
 0001:000861c0       ??1KUiTaskNote_Personal@@UAE@XZ 004871c0 f i UiTaskNote.obj
 0001:00086250       ??_EKUiTaskNote_System@@UAEPAXI@Z 00487250 f i UiTaskNote.obj
 0001:00086250       ??_GKUiTaskNote_System@@UAEPAXI@Z 00487250 f i UiTaskNote.obj
 0001:00086290       ??_EKUiTaskNote_Personal@@UAEPAXI@Z 00487290 f i UiTaskNote.obj
 0001:00086290       ??_GKUiTaskNote_Personal@@UAEPAXI@Z 00487290 f i UiTaskNote.obj
 0001:000862d0       ??0KUiNewsMessage@@AAE@XZ  004872d0 f   UiNewsMessage.obj
 0001:000863b5       ?EnableIdleMsg@KUiNewsMessage@@SAXH@Z 004873b5 f   UiNewsMessage.obj
 0001:0008643f       ?AddMessage@KUiNewsMessage@@AAE_NPAUKNewsMessage@@II@Z 0048743f f   UiNewsMessage.obj
 0001:000864dd       ?SeparateMsg@KUiNewsMessage@@AAEPAUKNewsMessageNode@@XZ 004874dd f   UiNewsMessage.obj
 0001:0008658c       ?AddToTail@KUiNewsMessage@@AAEXPAUKNewsMessageNode@@@Z 0048758c f   UiNewsMessage.obj
 0001:000865f2       ?Clear@KUiNewsMessage@@AAEXXZ 004875f2 f   UiNewsMessage.obj
 0001:00086667       ?OpenWindow@KUiNewsMessage@@SAPAV1@XZ 00487667 f   UiNewsMessage.obj
 0001:00086758       ?GetIfVisible@KUiNewsMessage@@SAPAV1@XZ 00487758 f   UiNewsMessage.obj
 0001:00086785       ?CloseWindow@KUiNewsMessage@@SAXH@Z 00487785 f   UiNewsMessage.obj
 0001:000867dd       ?Initialize@KUiNewsMessage@@AAEXXZ 004877dd f   UiNewsMessage.obj
 0001:0008686b       ?LoadScheme@KUiNewsMessage@@SAXPBD@Z 0048786b f   UiNewsMessage.obj
 0001:00086bdc       ?PtInWindow@KUiNewsMessage@@EAEHFF@Z 00487bdc f   UiNewsMessage.obj
 0001:00086bf2       ?MessageArrival@KUiNewsMessage@@SAXPAUKNewsMessage@@PAU_SYSTEMTIME@@@Z 00487bf2 f   UiNewsMessage.obj
 0001:00086dd3       ?PaintWindow@KUiNewsMessage@@EAEXXZ 00487dd3 f   UiNewsMessage.obj
 0001:000870b2       ?PickAMessage@KUiNewsMessage@@AAE_NXZ 004880b2 f   UiNewsMessage.obj
 0001:0008728c       ?PickFromIni@KUiNewsMessage@@AAEXXZ 0048828c f   UiNewsMessage.obj
 0001:0008739a       ?Breathe@KUiNewsMessage@@EAEXXZ 0048839a f   UiNewsMessage.obj
 0001:00087423       ?ConvertMsg@KUiNewsMessage@@AAEXXZ 00488423 f   UiNewsMessage.obj
 0001:00087539       ?MakeCountingMsg@KUiNewsMessage@@AAE_NXZ 00488539 f   UiNewsMessage.obj
 0001:000877f7       ?Reset@KUiNewsMessage@@AAEXXZ 004887f7 f   UiNewsMessage.obj
 0001:0008788b       ?ScrollMsg@KUiNewsMessage@@AAE_NXZ 0048888b f   UiNewsMessage.obj
 0001:00087bf0       ??_EKUiNewsMessage@@EAEPAXI@Z 00488bf0 f i UiNewsMessage.obj
 0001:00087bf0       ??_GKUiNewsMessage@@EAEPAXI@Z 00488bf0 f i UiNewsMessage.obj
 0001:00087c30       ??1KUiNewsMessage@@EAE@XZ  00488c30 f i UiNewsMessage.obj
 0001:00087cb0       ??0KUiNewsMessageEx@@AAE@XZ 00488cb0 f   UiNewsMessageEx.obj
 0001:00087d95       ?EnableIdleMsg@KUiNewsMessageEx@@SAXH@Z 00488d95 f   UiNewsMessageEx.obj
 0001:00087e1f       ?AddMessage@KUiNewsMessageEx@@AAE_NPAUKNewsMessage@@II@Z 00488e1f f   UiNewsMessageEx.obj
 0001:00087ebd       ?SeparateMsg@KUiNewsMessageEx@@AAEPAUKNewsMessageNode@@XZ 00488ebd f   UiNewsMessageEx.obj
 0001:00087f6c       ?AddToTail@KUiNewsMessageEx@@AAEXPAUKNewsMessageNode@@@Z 00488f6c f   UiNewsMessageEx.obj
 0001:00087fd2       ?Clear@KUiNewsMessageEx@@AAEXXZ 00488fd2 f   UiNewsMessageEx.obj
 0001:00088047       ?OpenWindow@KUiNewsMessageEx@@SAPAV1@XZ 00489047 f   UiNewsMessageEx.obj
 0001:00088138       ?GetIfVisible@KUiNewsMessageEx@@SAPAV1@XZ 00489138 f   UiNewsMessageEx.obj
 0001:00088165       ?CloseWindow@KUiNewsMessageEx@@SAXH@Z 00489165 f   UiNewsMessageEx.obj
 0001:000881bd       ?Initialize@KUiNewsMessageEx@@AAEXXZ 004891bd f   UiNewsMessageEx.obj
 0001:0008824b       ?LoadScheme@KUiNewsMessageEx@@SAXPBD@Z 0048924b f   UiNewsMessageEx.obj
 0001:000885bc       ?PtInWindow@KUiNewsMessageEx@@EAEHHH@Z 004895bc f   UiNewsMessageEx.obj
 0001:000885d2       ?MessageArrival@KUiNewsMessageEx@@SAXPAUKNewsMessage@@PAU_SYSTEMTIME@@@Z 004895d2 f   UiNewsMessageEx.obj
 0001:000887b3       ?PaintWindow@KUiNewsMessageEx@@EAEXXZ 004897b3 f   UiNewsMessageEx.obj
 0001:00088a92       ?PickAMessage@KUiNewsMessageEx@@AAE_NXZ 00489a92 f   UiNewsMessageEx.obj
 0001:00088c6c       ?PickFromIni@KUiNewsMessageEx@@AAEXXZ 00489c6c f   UiNewsMessageEx.obj
 0001:00088d7a       ?Breathe@KUiNewsMessageEx@@EAEXXZ 00489d7a f   UiNewsMessageEx.obj
 0001:00088e03       ?ConvertMsg@KUiNewsMessageEx@@AAEXXZ 00489e03 f   UiNewsMessageEx.obj
 0001:00088f19       ?MakeCountingMsg@KUiNewsMessageEx@@AAE_NXZ 00489f19 f   UiNewsMessageEx.obj
 0001:000891d7       ?Reset@KUiNewsMessageEx@@AAEXXZ 0048a1d7 f   UiNewsMessageEx.obj
 0001:0008926b       ?ScrollMsg@KUiNewsMessageEx@@AAE_NXZ 0048a26b f   UiNewsMessageEx.obj
 0001:000895d0       ??_GKUiNewsMessageEx@@EAEPAXI@Z 0048a5d0 f i UiNewsMessageEx.obj
 0001:000895d0       ??_EKUiNewsMessageEx@@EAEPAXI@Z 0048a5d0 f i UiNewsMessageEx.obj
 0001:00089610       ??1KUiNewsMessageEx@@EAE@XZ 0048a610 f i UiNewsMessageEx.obj
 0001:00089810       ??0KUiStrengthRank@@QAE@XZ 0048a810 f   UiStrengthRank.obj
 0001:00089911       ??1KUiStrengthRank@@UAE@XZ 0048a911 f   UiStrengthRank.obj
 0001:000899fb       ?GetIfVisible@KUiStrengthRank@@SAPAV1@XZ 0048a9fb f   UiStrengthRank.obj
 0001:00089a28       ?OpenWindow@KUiStrengthRank@@SAPAV1@XZ 0048aa28 f   UiStrengthRank.obj
 0001:00089b13       ?OpenDefaultWindow@KUiStrengthRank@@SAPAV1@H@Z 0048ab13 f   UiStrengthRank.obj
 0001:00089c09       ?ArrangeDefaultData@KUiStrengthRank@@AAEXXZ 0048ac09 f   UiStrengthRank.obj
 0001:00089d87       ?Initialize@KUiStrengthRank@@AAEXXZ 0048ad87 f   UiStrengthRank.obj
 0001:0008a008       ?CloseWindow@KUiStrengthRank@@SAX_N@Z 0048b008 f   UiStrengthRank.obj
 0001:0008a06f       ?Breathe@KUiStrengthRank@@EAEXXZ 0048b06f f   UiStrengthRank.obj
 0001:0008a0f2       ?WndProc@KUiStrengthRank@@EAEHIIH@Z 0048b0f2 f   UiStrengthRank.obj
 0001:0008a290       ?LoadScheme@KUiStrengthRank@@SAXPBD@Z 0048b290 f   UiStrengthRank.obj
 0001:0008a5ca       ?ReleasePic@KUiStrengthRank@@AAEXXZ 0048b5ca f   UiStrengthRank.obj
 0001:0008a656       ?ReleaseData@KUiStrengthRank@@AAEXXZ 0048b656 f   UiStrengthRank.obj
 0001:0008a706       ?UpdateRankData@KUiStrengthRank@@AAEXH@Z 0048b706 f   UiStrengthRank.obj
 0001:0008a829       ?LoadIndexIni@KUiStrengthRank@@AAEHPAVKIniFile@@@Z 0048b829 f   UiStrengthRank.obj
 0001:0008aa3f       ?LoadRankIni@KUiStrengthRank@@AAEHPAVKIniFile@@H@Z 0048ba3f f   UiStrengthRank.obj
 0001:0008ac64       ?SendGetRankToCore@KUiStrengthRank@@AAEXH@Z 0048bc64 f   UiStrengthRank.obj
 0001:0008acf6       ?ConstructIndexView@KUiStrengthRank@@AAEXXZ 0048bcf6 f   UiStrengthRank.obj
 0001:0008ae31       ?ConstructRankView@KUiStrengthRank@@AAEXXZ 0048be31 f   UiStrengthRank.obj
 0001:0008b2c0       ?NewIndexArrive@KUiStrengthRank@@SAXIPAUKRankIndex@@@Z 0048c2c0 f   UiStrengthRank.obj
 0001:0008b38b       ?NewRankArrive@KUiStrengthRank@@SAXIPAUKRankMessage@@@Z 0048c38b f   UiStrengthRank.obj
 0001:0008b3b7       ?AddIndex@KUiStrengthRank@@CAXIPAUKRankIndex@@@Z 0048c3b7 f   UiStrengthRank.obj
 0001:0008b545       ?AddRank@KUiStrengthRank@@CAXIPAUKRankMessage@@@Z 0048c545 f   UiStrengthRank.obj
 0001:0008b636       ?StoreTempIni@KUiStrengthRank@@CAXXZ 0048c636 f   UiStrengthRank.obj
 0001:0008b9fa       ?StoreNewDataToTempFile@KUiStrengthRank@@CAXIPAUKRankIndex@@@Z 0048c9fa f   UiStrengthRank.obj
 0001:0008bca8       ?StoreNewDataToTempFile@KUiStrengthRank@@CAXIPAUKRankMessage@@@Z 0048cca8 f   UiStrengthRank.obj
 0001:0008bec9       ?AttachTempFile@KUiStrengthRank@@SAHXZ 0048cec9 f   UiStrengthRank.obj
 0001:0008c013       ?RemoveTempFile@KUiStrengthRank@@SAXXZ 0048d013 f   UiStrengthRank.obj
 0001:0008c0a4       ?TDrawOutString@@YAHPADHHH@Z 0048d0a4 f   UiStrengthRank.obj
 0001:0008c180       ??_GKUiStrengthRank@@UAEPAXI@Z 0048d180 f i UiStrengthRank.obj
 0001:0008c180       ??_EKUiStrengthRank@@UAEPAXI@Z 0048d180 f i UiStrengthRank.obj
 0001:0008c1c0       ??0?$KLinkStruct@UKRankIndexNode@@@@QAE@XZ 0048d1c0 f i UiStrengthRank.obj
 0001:0008c210       ??1?$KLinkStruct@UKRankIndexNode@@@@UAE@XZ 0048d210 f i UiStrengthRank.obj
 0001:0008c240       ?GetCount@?$KLinkStruct@UKRankIndexNode@@@@QAEHXZ 0048d240 f i UiStrengthRank.obj
 0001:0008c260       ?AddItem@?$KLinkStruct@UKRankIndexNode@@@@QAEPAUKRankIndexNode@@U2@@Z 0048d260 f i UiStrengthRank.obj
 0001:0008c420       ?GetItem@?$KLinkStruct@UKRankIndexNode@@@@QAEPAUKRankIndexNode@@H@Z 0048d420 f i UiStrengthRank.obj
 0001:0008c4f0       ?NextItem@?$KLinkStruct@UKRankIndexNode@@@@QAEPAUKRankIndexNode@@XZ 0048d4f0 f i UiStrengthRank.obj
 0001:0008c530       ?Reset@?$KLinkStruct@UKRankIndexNode@@@@QAEPAUKRankIndexNode@@XZ 0048d530 f i UiStrengthRank.obj
 0001:0008c560       ?Clear@?$KLinkStruct@UKRankIndexNode@@@@QAEXXZ 0048d560 f i UiStrengthRank.obj
 0001:0008c5c0       ??0?$KLinkStruct@UKRankNode@@@@QAE@XZ 0048d5c0 f i UiStrengthRank.obj
 0001:0008c610       ??1?$KLinkStruct@UKRankNode@@@@UAE@XZ 0048d610 f i UiStrengthRank.obj
 0001:0008c640       ?GetCount@?$KLinkStruct@UKRankNode@@@@QAEHXZ 0048d640 f i UiStrengthRank.obj
 0001:0008c660       ?AddItem@?$KLinkStruct@UKRankNode@@@@QAEPAUKRankNode@@U2@@Z 0048d660 f i UiStrengthRank.obj
 0001:0008c820       ?NextItem@?$KLinkStruct@UKRankNode@@@@QAEPAUKRankNode@@XZ 0048d820 f i UiStrengthRank.obj
 0001:0008c860       ?Reset@?$KLinkStruct@UKRankNode@@@@QAEPAUKRankNode@@XZ 0048d860 f i UiStrengthRank.obj
 0001:0008c890       ?Clear@?$KLinkStruct@UKRankNode@@@@QAEXXZ 0048d890 f i UiStrengthRank.obj
 0001:0008c8f0       ??_G?$KLinkStruct@UKRankIndexNode@@@@UAEPAXI@Z 0048d8f0 f i UiStrengthRank.obj
 0001:0008c8f0       ??_E?$KLinkStruct@UKRankIndexNode@@@@UAEPAXI@Z 0048d8f0 f i UiStrengthRank.obj
 0001:0008c930       ??_G?$KLinkStruct@UKRankNode@@@@UAEPAXI@Z 0048d930 f i UiStrengthRank.obj
 0001:0008c930       ??_E?$KLinkStruct@UKRankNode@@@@UAEPAXI@Z 0048d930 f i UiStrengthRank.obj
 0001:0008c970       ?RemoveItem@?$KLinkStruct@UKRankIndexNode@@@@QAEHXZ 0048d970 f i UiStrengthRank.obj
 0001:0008cb30       ?RemoveItem@?$KLinkStruct@UKRankNode@@@@QAEHXZ 0048db30 f i UiStrengthRank.obj
 0001:0008ccf0       ??0KUiPopupPasswordQuery@@QAE@XZ 0048dcf0 f   UiPopupPasswordQuery.obj
 0001:0008cd6d       ??1KUiPopupPasswordQuery@@UAE@XZ 0048dd6d f   UiPopupPasswordQuery.obj
 0001:0008cde7       ?OpenWindow@KUiPopupPasswordQuery@@SAPAV1@PAVKWndWindow@@I@Z 0048dde7 f   UiPopupPasswordQuery.obj
 0001:0008cf07       ?GetIfVisible@KUiPopupPasswordQuery@@SAPAV1@XZ 0048df07 f   UiPopupPasswordQuery.obj
 0001:0008cf34       ?CloseWindow@KUiPopupPasswordQuery@@SAX_N@Z 0048df34 f   UiPopupPasswordQuery.obj
 0001:0008cf85       ?Initialize@KUiPopupPasswordQuery@@AAEXXZ 0048df85 f   UiPopupPasswordQuery.obj
 0001:0008d020       ?LoadScheme@KUiPopupPasswordQuery@@SAXPBD@Z 0048e020 f   UiPopupPasswordQuery.obj
 0001:0008d185       ?WndProc@KUiPopupPasswordQuery@@EAEHIIH@Z 0048e185 f   UiPopupPasswordQuery.obj
 0001:0008d217       ?OnConfirm@KUiPopupPasswordQuery@@AAEXXZ 0048e217 f   UiPopupPasswordQuery.obj
 0001:0008d2f0       ??_GKUiPopupPasswordQuery@@UAEPAXI@Z 0048e2f0 f i UiPopupPasswordQuery.obj
 0001:0008d2f0       ??_EKUiPopupPasswordQuery@@UAEPAXI@Z 0048e2f0 f i UiPopupPasswordQuery.obj
 0001:0008d330       ??0KUiTongAssignBox@@QAE@XZ 0048e330 f   UiTongAssignBox.obj
 0001:0008d44f       ??1KUiTongAssignBox@@UAE@XZ 0048e44f f   UiTongAssignBox.obj
 0001:0008d547       ?OpenWindow@KUiTongAssignBox@@SAPAV1@XZ 0048e547 f   UiTongAssignBox.obj
 0001:0008d63f       ?GetIfVisible@KUiTongAssignBox@@SAPAV1@XZ 0048e63f f   UiTongAssignBox.obj
 0001:0008d66c       ?CloseWindow@KUiTongAssignBox@@SAX_N@Z 0048e66c f   UiTongAssignBox.obj
 0001:0008d6cc       ?Initialize@KUiTongAssignBox@@AAEXXZ 0048e6cc f   UiTongAssignBox.obj
 0001:0008d80d       ?LoadScheme@KUiTongAssignBox@@SAXPBD@Z 0048e80d f   UiTongAssignBox.obj
 0001:0008db28       ?WndProc@KUiTongAssignBox@@UAEHIIH@Z 0048eb28 f   UiTongAssignBox.obj
 0001:0008dd1b       ?LinkToMainWindow@KUiTongAssignBox@@SAXPAVKWndWindow@@@Z 0048ed1b f   UiTongAssignBox.obj
 0001:0008dd53       ?ArrangeData@KUiTongAssignBox@@SAXHPAD0HH@Z 0048ed53 f   UiTongAssignBox.obj
 0001:0008df6e       ?UpdateCheckButton@KUiTongAssignBox@@AAEXH@Z 0048ef6e f   UiTongAssignBox.obj
 0001:0008e077       ?PopupConfirmWindow@KUiTongAssignBox@@AAEXI@Z 0048f077 f   UiTongAssignBox.obj
 0001:0008e180       ?OnConfirm@KUiTongAssignBox@@AAEXXZ 0048f180 f   UiTongAssignBox.obj
 0001:0008e1d0       ??_EKUiTongAssignBox@@UAEPAXI@Z 0048f1d0 f i UiTongAssignBox.obj
 0001:0008e1d0       ??_GKUiTongAssignBox@@UAEPAXI@Z 0048f1d0 f i UiTongAssignBox.obj
 0001:0008e210       ??0KUiTongChangeTitle@@AAE@XZ 0048f210 f   UiTongChangeTitle.obj
 0001:0008e2ac       ?OpenWindow@KUiTongChangeTitle@@SAPAV1@PAVKWndWindow@@IHH@Z 0048f2ac f   UiTongChangeTitle.obj
 0001:0008e3ed       ?CloseWindow@KUiTongChangeTitle@@SAX_N@Z 0048f3ed f   UiTongChangeTitle.obj
 0001:0008e451       ?GetIfVisible@KUiTongChangeTitle@@SAPAV1@XZ 0048f451 f   UiTongChangeTitle.obj
 0001:0008e47e       ?Show@KUiTongChangeTitle@@EAEXXZ 0048f47e f   UiTongChangeTitle.obj
 0001:0008e502       ?Hide@KUiTongChangeTitle@@EAEXXZ 0048f502 f   UiTongChangeTitle.obj
 0001:0008e53c       ?Initialize@KUiTongChangeTitle@@AAEXXZ 0048f53c f   UiTongChangeTitle.obj
 0001:0008e5ef       ?LoadScheme@KUiTongChangeTitle@@SAXPBD@Z 0048f5ef f   UiTongChangeTitle.obj
 0001:0008e784       ?WndProc@KUiTongChangeTitle@@EAEHIIH@Z 0048f784 f   UiTongChangeTitle.obj
 0001:0008e879       ?OnOk@KUiTongChangeTitle@@AAEXXZ 0048f879 f   UiTongChangeTitle.obj
 0001:0008e981       ?OnCancel@KUiTongChangeTitle@@AAEXXZ 0048f981 f   UiTongChangeTitle.obj
 0001:0008e9f0       ??_GKUiTongChangeTitle@@EAEPAXI@Z 0048f9f0 f i UiTongChangeTitle.obj
 0001:0008e9f0       ??_EKUiTongChangeTitle@@EAEPAXI@Z 0048f9f0 f i UiTongChangeTitle.obj
 0001:0008ea30       ??1KUiTongChangeTitle@@EAE@XZ 0048fa30 f i UiTongChangeTitle.obj
 0001:0008eac0       ??0KUiTongCreateSheet@@QAE@XZ 0048fac0 f   UiTongCreateSheet.obj
 0001:0008ebe4       ??1KUiTongCreateSheet@@UAE@XZ 0048fbe4 f   UiTongCreateSheet.obj
 0001:0008ecee       ?OpenWindow@KUiTongCreateSheet@@SAPAV1@PBD@Z 0048fcee f   UiTongCreateSheet.obj
 0001:0008ee2d       ?GetIfVisible@KUiTongCreateSheet@@SAPAV1@XZ 0048fe2d f   UiTongCreateSheet.obj
 0001:0008ee5a       ?CloseWindow@KUiTongCreateSheet@@SAX_N@Z 0048fe5a f   UiTongCreateSheet.obj
 0001:0008eeab       ?Initialize@KUiTongCreateSheet@@AAEXXZ 0048feab f   UiTongCreateSheet.obj
 0001:0008f003       ?LoadScheme@KUiTongCreateSheet@@SAXPBD@Z 00490003 f   UiTongCreateSheet.obj
 0001:0008f3de       ?WndProc@KUiTongCreateSheet@@EAEHIIH@Z 004903de f   UiTongCreateSheet.obj
 0001:0008f4b0       ?AlignmentButtonCheck@KUiTongCreateSheet@@AAEXW4NPCCAMP@@@Z 004904b0 f   UiTongCreateSheet.obj
 0001:0008f561       ?OnDone@KUiTongCreateSheet@@AAEXXZ 00490561 f   UiTongCreateSheet.obj
 0001:0008f6a0       ??_EKUiTongCreateSheet@@UAEPAXI@Z 004906a0 f i UiTongCreateSheet.obj
 0001:0008f6a0       ??_GKUiTongCreateSheet@@UAEPAXI@Z 004906a0 f i UiTongCreateSheet.obj
 0001:0008f6e0       ??0KUiTongInformation@@AAE@XZ 004906e0 f   UiTongInformation.obj
 0001:0008f796       ?OpenWindow@KUiTongInformation@@SAPAV1@PBDHPAVKWndWindow@@I@Z 00490796 f   UiTongInformation.obj
 0001:0008f880       ?GetIfVisible@KUiTongInformation@@SAPAV1@XZ 00490880 f   UiTongInformation.obj
 0001:0008f8ad       ?CloseWindow@KUiTongInformation@@SAX_N@Z 004908ad f   UiTongInformation.obj
 0001:0008f90d       ?Initialize@KUiTongInformation@@AAEXXZ 0049090d f   UiTongInformation.obj
 0001:0008f9c3       ?LoadScheme@KUiTongInformation@@AAEXPBD@Z 004909c3 f   UiTongInformation.obj
 0001:0008fb46       ?Show@KUiTongInformation@@AAEXPBDHPAVKWndWindow@@I@Z 00490b46 f   UiTongInformation.obj
 0001:0008fbc8       ?OnClickBtn@KUiTongInformation@@AAEXH@Z 00490bc8 f   UiTongInformation.obj
 0001:0008fc57       ?WndProc@KUiTongInformation@@EAEHIIH@Z 00490c57 f   UiTongInformation.obj
 0001:0008fcf0       ??_EKUiTongInformation@@UAEPAXI@Z 00490cf0 f i UiTongInformation.obj
 0001:0008fcf0       ??_GKUiTongInformation@@UAEPAXI@Z 00490cf0 f i UiTongInformation.obj
 0001:0008fd30       ??1KUiTongInformation@@UAE@XZ 00490d30 f i UiTongInformation.obj
 0001:0008fdc0       ??0KUiTongManager@@QAE@XZ  00490dc0 f   UiTongManager.obj
 0001:0008ff6c       ??1KUiTongManager@@UAE@XZ  00490f6c f   UiTongManager.obj
 0001:000900f4       ?OpenWindow@KUiTongManager@@SAPAV1@XZ 004910f4 f   UiTongManager.obj
 0001:000901ec       ?OpenWindow@KUiTongManager@@SAPAV1@PAD@Z 004911ec f   UiTongManager.obj
 0001:0009021a       ?ArrangeComposition@KUiTongManager@@QAEXPAD@Z 0049121a f   UiTongManager.obj
 0001:000903be       ?ClearTongData@KUiTongManager@@QAEXXZ 004913be f   UiTongManager.obj
 0001:00090451       ?GetIfVisible@KUiTongManager@@SAPAV1@XZ 00491451 f   UiTongManager.obj
 0001:0009047e       ?CloseWindow@KUiTongManager@@SAX_N@Z 0049147e f   UiTongManager.obj
 0001:000904da       ?ShowPage@KUiTongManager@@AAEXW4TONG_PAGE@1@@Z 004914da f   UiTongManager.obj
 0001:000906be       ?UpdateBtnTheme@KUiTongManager@@AAEXHH@Z 004916be f   UiTongManager.obj
 0001:0009096d       ?Initialize@KUiTongManager@@AAEXXZ 0049196d f   UiTongManager.obj
 0001:00090ae9       ?LoadScheme@KUiTongManager@@SAXPBD@Z 00491ae9 f   UiTongManager.obj
 0001:00090d9e       ?Breathe@KUiTongManager@@EAEXXZ 00491d9e f   UiTongManager.obj
 0001:00090de8       ?WndProc@KUiTongManager@@UAEHIIH@Z 00491de8 f   UiTongManager.obj
 0001:00090ee5       ?TongInfoArrive@KUiTongManager@@SAXPAUKUiPlayerRelationWithOther@@PAUKTongInfo@@@Z 00491ee5 f   UiTongManager.obj
 0001:00090f6d       ?NewDataArrive@KUiTongManager@@SAXPAUKUiGameObjectWithName@@PAUKTongMemberItem@@@Z 00491f6d f   UiTongManager.obj
 0001:00091238       ?SaveNewData@KUiTongManager@@CAXPAUKUiGameObjectWithName@@PAUKTongMemberItem@@@Z 00492238 f   UiTongManager.obj
 0001:000915c8       ?SaveWholeData@KUiTongManager@@CAXH@Z 004925c8 f   UiTongManager.obj
 0001:00091a1c       ?LoadData@KUiTongManager@@SAXXZ 00492a1c f   UiTongManager.obj
 0001:00091b5a       ?LoadDataHandler@KUiTongManager@@SAHPAV?$KLinkStruct@UKPilgarlicItem@@@@PBD@Z 00492b5a f   UiTongManager.obj
 0001:00091ea2       ?GetMemberData@KUiTongManager@@SAPAV?$KLinkStruct@UKPilgarlicItem@@@@XZ 00492ea2 f   UiTongManager.obj
 0001:00091eb1       ?FindPlayer@KUiTongManager@@SAPAV?$KLinkStruct@UKPilgarlicItem@@@@PAD@Z 00492eb1 f   UiTongManager.obj
 0001:00091f01       ?HandleFind@KUiTongManager@@AAEPAV?$KLinkStruct@UKPilgarlicItem@@@@PAV2@PAD@Z 00492f01 f   UiTongManager.obj
 0001:00091fb0       ?RequestData@KUiTongManager@@CAXHHH@Z 00492fb0 f   UiTongManager.obj
 0001:00092021       ?RemoveTempFile@KUiTongManager@@SAHXZ 00493021 f   UiTongManager.obj
 0001:000920b4       ?LockOperation@KUiTongManager@@SAXXZ 004930b4 f   UiTongManager.obj
 0001:000920fb       ?GetLockOperation@KUiTongManager@@SA_NXZ 004930fb f   UiTongManager.obj
 0001:00092118       ?LockInfomation@KUiTongManager@@SAXXZ 00493118 f   UiTongManager.obj
 0001:0009213c       ?ResponseResult@KUiTongManager@@SAXPAUKUiGameObjectWithName@@H@Z 0049313c f   UiTongManager.obj
 0001:00092215       ?ResponseLeave@KUiTongManager@@QAEXPAUKUiGameObjectWithName@@H@Z 00493215 f   UiTongManager.obj
 0001:00092248       ?ResponseDemise@KUiTongManager@@QAEXPAUKUiGameObjectWithName@@H@Z 00493248 f   UiTongManager.obj
 0001:00092283       ?ResponseApply@KUiTongManager@@QAEXPAUKUiGameObjectWithName@@H@Z 00493283 f   UiTongManager.obj
 0001:000922be       ?ResponseKickOut@KUiTongManager@@QAEXPAUKUiGameObjectWithName@@H@Z 004932be f   UiTongManager.obj
 0001:000923a8       ?ResponseAssign@KUiTongManager@@QAEXPAUKUiGameObjectWithName@@H@Z 004933a8 f   UiTongManager.obj
 0001:0009251a       ?OnRefresh@KUiTongManager@@AAEXXZ 0049351a f   UiTongManager.obj
 0001:00092567       ?StringToHash@@YAKPBDH@Z   00493567 f   UiTongManager.obj
 0001:00092688       ??0KUiTongInfo@@QAE@XZ     00493688 f   UiTongManager.obj
 0001:00092a05       ?Initialize@KUiTongInfo@@QAEXXZ 00493a05 f   UiTongManager.obj
 0001:00092cac       ?LoadScheme@KUiTongInfo@@AAEXPBD@Z 00493cac f   UiTongManager.obj
 0001:000932c6       ?WndProc@KUiTongInfo@@EAEHIIH@Z 004942c6 f   UiTongManager.obj
 0001:0009339c       ?OnShowOnline@KUiTongInfo@@AAEXH@Z 0049439c f   UiTongManager.obj
 0001:000933ba       ?OnPrevPage@KUiTongInfo@@AAEXXZ 004943ba f   UiTongManager.obj
 0001:0009340e       ?OnNextPage@KUiTongInfo@@AAEXXZ 0049440e f   UiTongManager.obj
 0001:0009347f       ?OnJumpPage@KUiTongInfo@@AAEXXZ 0049447f f   UiTongManager.obj
 0001:000934f3       ?OnCheckInput@KUiTongInfo@@AAEXXZ 004944f3 f   UiTongManager.obj
 0001:000935ca       ?InfoArrive@KUiTongInfo@@QAEXPAUKTongInfo@@@Z 004945ca f   UiTongManager.obj
 0001:000935f4       ?Clear@KUiTongInfo@@QAEXXZ 004945f4 f   UiTongManager.obj
 0001:000936b1       ?UpdateInfoView@KUiTongInfo@@AAEXPAUKTongInfo@@@Z 004946b1 f   UiTongManager.obj
 0001:0009397c       ?UpdateListView@KUiTongInfo@@QAEXE@Z 0049497c f   UiTongManager.obj
 0001:00093b36       ??0KUiTongFunUseSubPage@@QAE@XZ 00494b36 f   UiTongManager.obj
 0001:00093b66       ?Initialize@KUiTongFunUseSubPage@@QAEXH@Z 00494b66 f   UiTongManager.obj
 0001:00093bdb       ?LoadScheme@KUiTongFunUseSubPage@@AAEXPBDH@Z 00494bdb f   UiTongManager.obj
 0001:00093d47       ?WndProc@KUiTongFunUseSubPage@@EAEHIIH@Z 00494d47 f   UiTongManager.obj
 0001:00093da9       ??0KUiTongFunUseSub@@QAE@XZ 00494da9 f   UiTongManager.obj
 0001:00094303       ?Initialize@KUiTongFunUseSub@@QAEXXZ 00495303 f   UiTongManager.obj
 0001:00094705       ?Clear@KUiTongFunUseSub@@QAEXXZ 00495705 f   UiTongManager.obj
 0001:0009476e       ?LoadScheme@KUiTongFunUseSub@@AAEXPBD@Z 0049576e f   UiTongManager.obj
 0001:0009502e       ?WndProc@KUiTongFunUseSub@@EAEHIIH@Z 0049602e f   UiTongManager.obj
 0001:00095415       ?ShowSubPage@KUiTongFunUseSub@@AAEXW4SUB_PAGES@1@@Z 00496415 f   UiTongManager.obj
 0001:000957f3       ?OnShowOnline@KUiTongFunUseSub@@AAEXH@Z 004967f3 f   UiTongManager.obj
 0001:00095811       ?OnPrevPage@KUiTongFunUseSub@@AAEXXZ 00496811 f   UiTongManager.obj
 0001:00095865       ?OnNextPage@KUiTongFunUseSub@@AAEXXZ 00496865 f   UiTongManager.obj
 0001:000958d6       ?OnJumpPage@KUiTongFunUseSub@@AAEXXZ 004968d6 f   UiTongManager.obj
 0001:0009594a       ?OnCheckInput@KUiTongFunUseSub@@AAEXXZ 0049694a f   UiTongManager.obj
 0001:00095a21       ?PopupConfirmWindow@KUiTongFunUseSub@@AAEXI@Z 00496a21 f   UiTongManager.obj
 0001:00095b70       ?OnAction@KUiTongFunUseSub@@AAEXHH@Z 00496b70 f   UiTongManager.obj
 0001:00095c8d       ?OnChangeTitle@KUiTongFunUseSub@@AAEXHPBD@Z 00496c8d f   UiTongManager.obj
 0001:00095d90       ?OnActionMoney@KUiTongFunUseSub@@AAEXHH@Z 00496d90 f   UiTongManager.obj
 0001:00095e13       ?ArrangeComposition@KUiTongFunUseSub@@QAEXPBDH@Z 00496e13 f   UiTongManager.obj
 0001:00095e53       ?InfoArrive@KUiTongFunUseSub@@QAEXPAUKTongInfo@@H@Z 00496e53 f   UiTongManager.obj
 0001:00095e9b       ?UpdateBtnTheme@KUiTongFunUseSub@@AAEXH@Z 00496e9b f   UiTongManager.obj
 0001:00096290       ?UpdateSelectBtn@KUiTongFunUseSub@@AAEXXZ 00497290 f   UiTongManager.obj
 0001:0009655e       ?UpdateInfoView@KUiTongFunUseSub@@AAEXPAUKTongInfo@@@Z 0049755e f   UiTongManager.obj
 0001:000966e4       ?UpdateListView@KUiTongFunUseSub@@QAEXE@Z 004976e4 f   UiTongManager.obj
 0001:0009689e       ?GetSelectedPlayer@KUiTongFunUseSub@@AAEPAUKPilgarlicItem@@XZ 0049789e f   UiTongManager.obj
 0001:00096929       ??0KUiTongFunUse@@QAE@XZ   00497929 f   UiTongManager.obj
 0001:00096994       ?Initialize@KUiTongFunUse@@QAEXXZ 00497994 f   UiTongManager.obj
 0001:00096a2b       ?Clear@KUiTongFunUse@@QAEXXZ 00497a2b f   UiTongManager.obj
 0001:00096a55       ?ArrangeComposition@KUiTongFunUse@@QAEXPBDH@Z 00497a55 f   UiTongManager.obj
 0001:00096a89       ?LoadScheme@KUiTongFunUse@@AAEXPBD@Z 00497a89 f   UiTongManager.obj
 0001:00096b87       ?WndProc@KUiTongFunUse@@EAEHIIH@Z 00497b87 f   UiTongManager.obj
 0001:00096bb9       ?InfoArrive@KUiTongFunUse@@QAEXPAUKTongInfo@@H@Z 00497bb9 f   UiTongManager.obj
 0001:00096bed       ?UpdateListView@KUiTongFunUse@@QAEXE@Z 00497bed f   UiTongManager.obj
 0001:00096c1d       ??0KUiTongRightManage@@QAE@XZ 00497c1d f   UiTongManager.obj
 0001:00096d5d       ?Initialize@KUiTongRightManage@@QAEXXZ 00497d5d f   UiTongManager.obj
 0001:00096ef1       ?LoadScheme@KUiTongRightManage@@AAEXPBD@Z 00497ef1 f   UiTongManager.obj
 0001:000973a0       ?Clear@KUiTongRightManage@@QAEXXZ 004983a0 f   UiTongManager.obj
 0001:000973ca       ?UpdateListView@KUiTongRightManage@@QAEXXZ 004983ca f   UiTongManager.obj
 0001:0009753a       ?WndProc@KUiTongRightManage@@EAEHIIH@Z 0049853a f   UiTongManager.obj
 0001:000975e9       ?ShowSubPage@KUiTongRightManage@@AAEXW4RIGHT_PAGE@1@@Z 004985e9 f   UiTongManager.obj
 0001:0009770f       ?OnSelectAll@KUiTongRightManage@@AAEXH@Z 0049870f f   UiTongManager.obj
 0001:000977c8       ??0KUiTongRecord@@QAE@XZ   004987c8 f   UiTongManager.obj
 0001:000978c3       ?Initialize@KUiTongRecord@@QAEXXZ 004988c3 f   UiTongManager.obj
 0001:00097a07       ?LoadScheme@KUiTongRecord@@AAEXPBD@Z 00498a07 f   UiTongManager.obj
 0001:00097cc6       ?WndProc@KUiTongRecord@@EAEHIIH@Z 00498cc6 f   UiTongManager.obj
 0001:00097d8d       ?ShowList@KUiTongRecord@@AAEXW4RECORD_LIST@1@@Z 00498d8d f   UiTongManager.obj
 0001:00097f60       ??_GKUiTongManager@@UAEPAXI@Z 00498f60 f i UiTongManager.obj
 0001:00097f60       ??_EKUiTongManager@@UAEPAXI@Z 00498f60 f i UiTongManager.obj
 0001:00097fa0       ??1KUiTongInfo@@UAE@XZ     00498fa0 f i UiTongManager.obj
 0001:00098300       ??1KUiTongFunUse@@UAE@XZ   00499300 f i UiTongManager.obj
 0001:00098360       ??1KUiTongRightManage@@UAE@XZ 00499360 f i UiTongManager.obj
 0001:00098470       ??1KUiTongRecord@@UAE@XZ   00499470 f i UiTongManager.obj
 0001:00098560       ??1KWndRichLabeledButton@@UAE@XZ 00499560 f i UiTongManager.obj
 0001:000985c0       ??1KUiTongFunUseSub@@UAE@XZ 004995c0 f i UiTongManager.obj
 0001:00098ac0       ??1KUiTongFunUseSubPage@@UAE@XZ 00499ac0 f i UiTongManager.obj
 0001:00098af0       ??_EKUiTongInfo@@UAEPAXI@Z 00499af0 f i UiTongManager.obj
 0001:00098af0       ??_GKUiTongInfo@@UAEPAXI@Z 00499af0 f i UiTongManager.obj
 0001:00098b30       ??0KWndRichLabeledButton@@QAE@XZ 00499b30 f i UiTongManager.obj
 0001:00098ba0       ??_EKWndRichLabeledButton@@UAEPAXI@Z 00499ba0 f i UiTongManager.obj
 0001:00098ba0       ??_GKWndRichLabeledButton@@UAEPAXI@Z 00499ba0 f i UiTongManager.obj
 0001:00098be0       ??_GKUiTongFunUseSubPage@@UAEPAXI@Z 00499be0 f i UiTongManager.obj
 0001:00098be0       ??_EKUiTongFunUseSubPage@@UAEPAXI@Z 00499be0 f i UiTongManager.obj
 0001:00098c20       ??_GKUiTongFunUseSub@@UAEPAXI@Z 00499c20 f i UiTongManager.obj
 0001:00098c20       ??_EKUiTongFunUseSub@@UAEPAXI@Z 00499c20 f i UiTongManager.obj
 0001:00098c60       ??_EKUiTongFunUse@@UAEPAXI@Z 00499c60 f i UiTongManager.obj
 0001:00098c60       ??_GKUiTongFunUse@@UAEPAXI@Z 00499c60 f i UiTongManager.obj
 0001:00098ca0       ??_EKUiTongRightManage@@UAEPAXI@Z 00499ca0 f i UiTongManager.obj
 0001:00098ca0       ??_GKUiTongRightManage@@UAEPAXI@Z 00499ca0 f i UiTongManager.obj
 0001:00098ce0       ??_GKUiTongRecord@@UAEPAXI@Z 00499ce0 f i UiTongManager.obj
 0001:00098ce0       ??_EKUiTongRecord@@UAEPAXI@Z 00499ce0 f i UiTongManager.obj
 0001:00098d20       ??0?$KLinkStruct@UKPilgarlicItem@@@@QAE@XZ 00499d20 f i UiTongManager.obj
 0001:00098d70       ??1?$KLinkStruct@UKPilgarlicItem@@@@UAE@XZ 00499d70 f i UiTongManager.obj
 0001:00098da0       ?GetCount@?$KLinkStruct@UKPilgarlicItem@@@@QAEHXZ 00499da0 f i UiTongManager.obj
 0001:00098dc0       ?AddItem@?$KLinkStruct@UKPilgarlicItem@@@@QAEPAUKPilgarlicItem@@U2@@Z 00499dc0 f i UiTongManager.obj
 0001:00098f60       ?GetItem@?$KLinkStruct@UKPilgarlicItem@@@@QAEPAUKPilgarlicItem@@H@Z 00499f60 f i UiTongManager.obj
 0001:00099030       ?Current@?$KLinkStruct@UKPilgarlicItem@@@@QAEPAUKPilgarlicItem@@XZ 0049a030 f i UiTongManager.obj
 0001:00099050       ?RemoveItem@?$KLinkStruct@UKPilgarlicItem@@@@QAEHXZ 0049a050 f i UiTongManager.obj
 0001:00099200       ?NextItem@?$KLinkStruct@UKPilgarlicItem@@@@QAEPAUKPilgarlicItem@@XZ 0049a200 f i UiTongManager.obj
 0001:00099240       ?Reset@?$KLinkStruct@UKPilgarlicItem@@@@QAEPAUKPilgarlicItem@@XZ 0049a240 f i UiTongManager.obj
 0001:00099270       ?Clear@?$KLinkStruct@UKPilgarlicItem@@@@QAEXXZ 0049a270 f i UiTongManager.obj
 0001:000992d0       ??_E?$KLinkStruct@UKPilgarlicItem@@@@UAEPAXI@Z 0049a2d0 f i UiTongManager.obj
 0001:000992d0       ??_G?$KLinkStruct@UKPilgarlicItem@@@@UAEPAXI@Z 0049a2d0 f i UiTongManager.obj
 0001:00099310       ??0KUiTongSetTax@@AAE@XZ   0049a310 f   UiTongSetTax .obj
 0001:0009941d       ?OpenWindow@KUiTongSetTax@@SAPAV1@PBD0HH@Z 0049a41d f   UiTongSetTax .obj
 0001:0009956f       ?CloseWindow@KUiTongSetTax@@SAX_N@Z 0049a56f f   UiTongSetTax .obj
 0001:000995c3       ?GetIfVisible@KUiTongSetTax@@SAPAV1@XZ 0049a5c3 f   UiTongSetTax .obj
 0001:000995f0       ?Show@KUiTongSetTax@@EAEXXZ 0049a5f0 f   UiTongSetTax .obj
 0001:00099662       ?Hide@KUiTongSetTax@@EAEXXZ 0049a662 f   UiTongSetTax .obj
 0001:00099692       ?Initialize@KUiTongSetTax@@AAEXXZ 0049a692 f   UiTongSetTax .obj
 0001:000997ea       ?LoadScheme@KUiTongSetTax@@SAXPBD@Z 0049a7ea f   UiTongSetTax .obj
 0001:00099acf       ?WndProc@KUiTongSetTax@@EAEHIIH@Z 0049aacf f   UiTongSetTax .obj
 0001:00099bff       ?OnIncrease@KUiTongSetTax@@AAEXH@Z 0049abff f   UiTongSetTax .obj
 0001:00099cb1       ?OnDecrease@KUiTongSetTax@@AAEXH@Z 0049acb1 f   UiTongSetTax .obj
 0001:00099d63       ?OnOk@KUiTongSetTax@@AAEXXZ 0049ad63 f   UiTongSetTax .obj
 0001:00099e0f       ?OnCancel@KUiTongSetTax@@AAEXXZ 0049ae0f f   UiTongSetTax .obj
 0001:00099e60       ??_EKUiTongSetTax@@EAEPAXI@Z 0049ae60 f i UiTongSetTax .obj
 0001:00099e60       ??_GKUiTongSetTax@@EAEPAXI@Z 0049ae60 f i UiTongSetTax .obj
 0001:00099ea0       ??1KUiTongSetTax@@EAE@XZ   0049aea0 f i UiTongSetTax .obj
 0001:00099fb0       ?Initialize@KUiRecovery@@QAEXXZ 0049afb0 f   UiAutoPlay.obj
 0001:0009a250       ?LoadScheme@KUiRecovery@@QAEXPAVKIniFile@@@Z 0049b250 f   UiAutoPlay.obj
 0001:0009a8ef       ?WndProc@KUiRecovery@@EAEHIIH@Z 0049b8ef f   UiAutoPlay.obj
 0001:0009b3c8       ?OnCheckInput@KUiRecovery@@AAEXXZ 0049c3c8 f   UiAutoPlay.obj
 0001:0009b5df       ?PopupSelRoomNE@KUiRecovery@@AAEXXZ 0049c5df f   UiAutoPlay.obj
 0001:0009b756       ?SetPortalRoomNE@KUiRecovery@@AAEXH@Z 0049c756 f   UiAutoPlay.obj
 0001:0009b7d0       ?Breathe@KUiRecovery@@UAEXXZ 0049c7d0 f   UiAutoPlay.obj
 0001:0009b849       ?LoadRecoverySetting@KUiRecovery@@QAEXXZ 0049c849 f   UiAutoPlay.obj
 0001:0009c206       ?SaveRecoverySetting@KUiRecovery@@QAEXXZ 0049d206 f   UiAutoPlay.obj
 0001:0009c9f6       ?Initialize@KUiPick@@QAEXXZ 0049d9f6 f   UiAutoPlay.obj
 0001:0009cc1f       ?LoadScheme@KUiPick@@QAEXPAVKIniFile@@@Z 0049dc1f f   UiAutoPlay.obj
 0001:0009cfca       ?WndProc@KUiPick@@EAEHIIH@Z 0049dfca f   UiAutoPlay.obj
 0001:0009d35e       ?OnPick@KUiPick@@AAEXXZ    0049e35e f   UiAutoPlay.obj
 0001:0009d3d1       ?OnFillterItem@KUiPick@@AAEXXZ 0049e3d1 f   UiAutoPlay.obj
 0001:0009d444       ?OnGiveItem@KUiPick@@AAEXXZ 0049e444 f   UiAutoPlay.obj
 0001:0009d4b7       ?OnCheckPrice@KUiPick@@AAEXXZ 0049e4b7 f   UiAutoPlay.obj
 0001:0009d52a       ?OnCheckLevel@KUiPick@@AAEXXZ 0049e52a f   UiAutoPlay.obj
 0001:0009d59d       ?OnCheckInput@KUiPick@@AAEXXZ 0049e59d f   UiAutoPlay.obj
 0001:0009d63b       ?SetFilterMagicList@KUiPick@@AAEXXZ 0049e63b f   UiAutoPlay.obj
 0001:0009d7b8       ?FilterSameMagic@KUiPick@@AAEHPBD@Z 0049e7b8 f   UiAutoPlay.obj
 0001:0009d822       ?FindSameMagic@KUiPick@@AAEHPBD@Z 0049e822 f   UiAutoPlay.obj
 0001:0009d888       ?SetPick@KUiPick@@AAEXHH@Z 0049e888 f   UiAutoPlay.obj
 0001:0009d960       ?OnSelectPickType@KUiPick@@AAEXH@Z 0049e960 f   UiAutoPlay.obj
 0001:0009dc40       ?LoadPickSetting@KUiPick@@QAEXXZ 0049ec40 f   UiAutoPlay.obj
 0001:0009e1d9       ?SavePickSetting@KUiPick@@QAEXXZ 0049f1d9 f   UiAutoPlay.obj
 0001:0009e495       ?Initialize@KUiFight@@QAEXXZ 0049f495 f   UiAutoPlay.obj
 0001:0009e799       ?LoadScheme@KUiFight@@QAEXPAVKIniFile@@@Z 0049f799 f   UiAutoPlay.obj
 0001:0009ee20       ?WndProc@KUiFight@@EAEHIIH@Z 0049fe20 f   UiAutoPlay.obj
 0001:0009f4c6       ?OnCheckInput@KUiFight@@QAEXXZ 004a04c6 f   UiAutoPlay.obj
 0001:0009f564       ?SupportAnyOption@KUiFight@@AAEXH@Z 004a0564 f   UiAutoPlay.obj
 0001:0009f826       ?SetSupportAnyOption@KUiFight@@AAEXHH@Z 004a0826 f   UiAutoPlay.obj
 0001:0009fa5b       ?SupportSkillPopup@KUiFight@@AAEXH@Z 004a0a5b f   UiAutoPlay.obj
 0001:0009fd93       ?SetSupportSkill@KUiFight@@AAEXHH@Z 004a0d93 f   UiAutoPlay.obj
 0001:0009ff98       ?SupportAuraPopup@KUiFight@@AAEXH@Z 004a0f98 f   UiAutoPlay.obj
 0001:000a027b       ?SetSupportAura@KUiFight@@AAEXHH@Z 004a127b f   UiAutoPlay.obj
 0001:000a03f8       ?SupportSkillWhenManaSmallPopup@KUiFight@@AAEXH@Z 004a13f8 f   UiAutoPlay.obj
 0001:000a068a       ?SetSupportWhenManaSmall@KUiFight@@AAEXHH@Z 004a168a f   UiAutoPlay.obj
 0001:000a077d       ?SetSupportRightHandPopup@KUiFight@@AAEXH@Z 004a177d f   UiAutoPlay.obj
 0001:000a0a0f       ?SetSupportRightHand@KUiFight@@AAEXHH@Z 004a1a0f f   UiAutoPlay.obj
 0001:000a0b02       ?LoadFightSetting@KUiFight@@QAEXXZ 004a1b02 f   UiAutoPlay.obj
 0001:000a10a9       ?SaveFightSetting@KUiFight@@QAEXXZ 004a20a9 f   UiAutoPlay.obj
 0001:000a141a       ?Initialize@KUiOther@@QAEXXZ 004a241a f   UiAutoPlay.obj
 0001:000a1649       ?LoadScheme@KUiOther@@QAEXPAVKIniFile@@@Z 004a2649 f   UiAutoPlay.obj
 0001:000a1a2a       ?WndProc@KUiOther@@EAEHIIH@Z 004a2a2a f   UiAutoPlay.obj
 0001:000a2416       ?MenuParty@KUiOther@@AAEXXZ 004a3416 f   UiAutoPlay.obj
 0001:000a2589       ?SetMenuParty@KUiOther@@AAEXH@Z 004a3589 f   UiAutoPlay.obj
 0001:000a267a       ?MenuListParty@KUiOther@@AAEXXZ 004a367a f   UiAutoPlay.obj
 0001:000a2944       ?SetMenuListParty@KUiOther@@AAEXH@Z 004a3944 f   UiAutoPlay.obj
 0001:000a299c       ?InsertNameList@KUiOther@@AAEHXZ 004a399c f   UiAutoPlay.obj
 0001:000a2a66       ?SetNameListPT@KUiOther@@AAEXXZ 004a3a66 f   UiAutoPlay.obj
 0001:000a2b5a       ?MenuJoinParty@KUiOther@@AAEXXZ 004a3b5a f   UiAutoPlay.obj
 0001:000a2ccd       ?SetMenuJoinParty@KUiOther@@AAEXH@Z 004a3ccd f   UiAutoPlay.obj
 0001:000a2d99       ?LoadOtherSetting@KUiOther@@QAEXXZ 004a3d99 f   UiAutoPlay.obj
 0001:000a31ba       ?SaveOtherSetting@KUiOther@@QAEXXZ 004a41ba f   UiAutoPlay.obj
 0001:000a347a       ?Initialize@KUiMovePlayer@@QAEXXZ 004a447a f   UiAutoPlay.obj
 0001:000a362e       ?LoadScheme@KUiMovePlayer@@QAEXPAVKIniFile@@@Z 004a462e f   UiAutoPlay.obj
 0001:000a3926       ?WndProc@KUiMovePlayer@@EAEHIIH@Z 004a4926 f   UiAutoPlay.obj
 0001:000a4515       ?OnCheckInput@KUiMovePlayer@@AAEXXZ 004a5515 f   UiAutoPlay.obj
 0001:000a4574       ?PopUpFollowPeople@KUiMovePlayer@@AAEXXZ 004a5574 f   UiAutoPlay.obj
 0001:000a483e       ?SetFollowPeople@KUiMovePlayer@@AAEXH@Z 004a583e f   UiAutoPlay.obj
 0001:000a48c5       ?InsertMoveMpsList@KUiMovePlayer@@AAEHHHH@Z 004a58c5 f   UiAutoPlay.obj
 0001:000a49dc       ?SetMoveMpsList@KUiMovePlayer@@AAEXXZ 004a59dc f   UiAutoPlay.obj
 0001:000a4b56       ?LoadMoveSetting@KUiMovePlayer@@QAEXXZ 004a5b56 f   UiAutoPlay.obj
 0001:000a4e7d       ?SaveMoveSetting@KUiMovePlayer@@QAEXXZ 004a5e7d f   UiAutoPlay.obj
 0001:000a5082       ?Initialize@KUiSupportPlayer@@QAEXXZ 004a6082 f   UiAutoPlay.obj
 0001:000a515b       ?LoadScheme@KUiSupportPlayer@@QAEXPAVKIniFile@@@Z 004a615b f   UiAutoPlay.obj
 0001:000a532a       ?WndProc@KUiSupportPlayer@@EAEHIIH@Z 004a632a f   UiAutoPlay.obj
 0001:000a55b1       ?UpdateClientDaTa@KUiSupportPlayer@@SAXXZ 004a65b1 f   UiAutoPlay.obj
 0001:000a56e8       ?OnCheckInput@KUiSupportPlayer@@AAEXXZ 004a66e8 f   UiAutoPlay.obj
 0001:000a5754       ?PopupSelMapTrain@KUiSupportPlayer@@AAEXXZ 004a6754 f   UiAutoPlay.obj
 0001:000a58af       ?SetPortalMapTrain@KUiSupportPlayer@@AAEXH@Z 004a68af f   UiAutoPlay.obj
 0001:000a5929       ?LoadSupportSetting@KUiSupportPlayer@@QAEXXZ 004a6929 f   UiAutoPlay.obj
 0001:000a5b8d       ?SaveSupportSetting@KUiSupportPlayer@@QAEXXZ 004a6b8d f   UiAutoPlay.obj
 0001:000a5cb0       ?OpenWindow@KUiAutoPlay@@SAPAV1@_N@Z 004a6cb0 f   UiAutoPlay.obj
 0001:000a5ddb       ?GetIfVisible@KUiAutoPlay@@SAPAV1@XZ 004a6ddb f   UiAutoPlay.obj
 0001:000a5e08       ?CloseWindow@KUiAutoPlay@@SAX_N@Z 004a6e08 f   UiAutoPlay.obj
 0001:000a5ec6       ?Initialize@KUiAutoPlay@@AAEXXZ 004a6ec6 f   UiAutoPlay.obj
 0001:000a60c3       ?LoadScheme@KUiAutoPlay@@SAXPBD@Z 004a70c3 f   UiAutoPlay.obj
 0001:000a649d       ?WndProc@KUiAutoPlay@@EAEHIIH@Z 004a749d f   UiAutoPlay.obj
 0001:000a660e       ?UpdateButton@KUiAutoPlay@@AAEXH@Z 004a760e f   UiAutoPlay.obj
 0001:000a66ae       ?UpdateData@KUiAutoPlay@@SAXXZ 004a76ae f   UiAutoPlay.obj
 0001:000a6736       ?OnAuto@KUiAutoPlay@@AAEXH@Z 004a7736 f   UiAutoPlay.obj
 0001:000a677d       ?UpdateSceneTimeInfo@KUiAutoPlay@@SAXPAUKUiSceneTimeInfo@@@Z 004a777d f   UiAutoPlay.obj
 0001:000a67ab       ?Breathe@KUiAutoPlay@@EAEXXZ 004a77ab f   UiAutoPlay.obj
 0001:000a67ec       ?SavePrivateSetting@KUiAutoPlay@@SAHXZ 004a77ec f   UiAutoPlay.obj
 0001:000a68aa       ?LoadPrivateSetting@KUiAutoPlay@@SAHXZ 004a78aa f   UiAutoPlay.obj
 0001:000a6950       ?GetCurSel@KWndList2@@QAEHXZ 004a7950 f i UiAutoPlay.obj
 0001:000a6970       ??0KUiAutoPlay@@AAE@XZ     004a7970 f i UiAutoPlay.obj
 0001:000a6ae0       ??_EKUiAutoPlay@@EAEPAXI@Z 004a7ae0 f i UiAutoPlay.obj
 0001:000a6ae0       ??_GKUiAutoPlay@@EAEPAXI@Z 004a7ae0 f i UiAutoPlay.obj
 0001:000a6b20       ??1KUiAutoPlay@@EAE@XZ     004a7b20 f i UiAutoPlay.obj
 0001:000a6c90       ??0KUiRecovery@@QAE@XZ     004a7c90 f i UiAutoPlay.obj
 0001:000a6f90       ??1KUiRecovery@@UAE@XZ     004a7f90 f i UiAutoPlay.obj
 0001:000a7280       ??0KUiPick@@QAE@XZ         004a8280 f i UiAutoPlay.obj
 0001:000a7490       ??1KUiPick@@UAE@XZ         004a8490 f i UiAutoPlay.obj
 0001:000a7690       ??0KUiFight@@QAE@XZ        004a8690 f i UiAutoPlay.obj
 0001:000a7980       ??1KUiFight@@UAE@XZ        004a8980 f i UiAutoPlay.obj
 0001:000a7c60       ??0KUiOther@@QAE@XZ        004a8c60 f i UiAutoPlay.obj
 0001:000a7e80       ??1KUiOther@@UAE@XZ        004a8e80 f i UiAutoPlay.obj
 0001:000a8090       ??0KUiMovePlayer@@QAE@XZ   004a9090 f i UiAutoPlay.obj
 0001:000a8220       ??1KUiMovePlayer@@UAE@XZ   004a9220 f i UiAutoPlay.obj
 0001:000a83a0       ??0KUiSupportPlayer@@QAE@XZ 004a93a0 f i UiAutoPlay.obj
 0001:000a84b0       ??1KUiSupportPlayer@@UAE@XZ 004a94b0 f i UiAutoPlay.obj
 0001:000a85c0       ??_EKUiRecovery@@UAEPAXI@Z 004a95c0 f i UiAutoPlay.obj
 0001:000a85c0       ??_GKUiRecovery@@UAEPAXI@Z 004a95c0 f i UiAutoPlay.obj
 0001:000a8600       ??_EKUiPick@@UAEPAXI@Z     004a9600 f i UiAutoPlay.obj
 0001:000a8600       ??_GKUiPick@@UAEPAXI@Z     004a9600 f i UiAutoPlay.obj
 0001:000a8640       ??_EKUiFight@@UAEPAXI@Z    004a9640 f i UiAutoPlay.obj
 0001:000a8640       ??_GKUiFight@@UAEPAXI@Z    004a9640 f i UiAutoPlay.obj
 0001:000a8680       ??_GKUiOther@@UAEPAXI@Z    004a9680 f i UiAutoPlay.obj
 0001:000a8680       ??_EKUiOther@@UAEPAXI@Z    004a9680 f i UiAutoPlay.obj
 0001:000a86c0       ??_EKUiMovePlayer@@UAEPAXI@Z 004a96c0 f i UiAutoPlay.obj
 0001:000a86c0       ??_GKUiMovePlayer@@UAEPAXI@Z 004a96c0 f i UiAutoPlay.obj
 0001:000a8700       ??_GKUiSupportPlayer@@UAEPAXI@Z 004a9700 f i UiAutoPlay.obj
 0001:000a8700       ??_EKUiSupportPlayer@@UAEPAXI@Z 004a9700 f i UiAutoPlay.obj
 0001:000a8740       ??0UiMiniBuff@@AAE@XZ      004a9740 f   UiMiniBuff.obj
 0001:000a8849       ??1UiMiniBuff@@EAE@XZ      004a9849 f   UiMiniBuff.obj
 0001:000a8953       ?OpenWindow@UiMiniBuff@@SAPAV1@XZ 004a9953 f   UiMiniBuff.obj
 0001:000a8a29       ?GetIfVisible@UiMiniBuff@@SAPAV1@XZ 004a9a29 f   UiMiniBuff.obj
 0001:000a8a56       ?CloseWindow@UiMiniBuff@@SAX_N@Z 004a9a56 f   UiMiniBuff.obj
 0001:000a8aa7       ?Initialize@UiMiniBuff@@AAEXXZ 004a9aa7 f   UiMiniBuff.obj
 0001:000a8b71       ?LoadScheme@UiMiniBuff@@SAXPBD@Z 004a9b71 f   UiMiniBuff.obj
 0001:000a8e0a       ?Breathe@UiMiniBuff@@EAEXXZ 004a9e0a f   UiMiniBuff.obj
 0001:000a8fb0       ?Add@UiMiniBuff@@AAEXHPAUKStateControl@@@Z 004a9fb0 f   UiMiniBuff.obj
 0001:000a9740       ?Release@UiMiniBuff@@AAEXXZ 004aa740 f   UiMiniBuff.obj
 0001:000a9830       ??_EUiMiniBuff@@EAEPAXI@Z  004aa830 f i UiMiniBuff.obj
 0001:000a9830       ??_GUiMiniBuff@@EAEPAXI@Z  004aa830 f i UiMiniBuff.obj
 0001:000a9870       ??0KUiTopTKNew@@AAE@XZ     004aa870 f   UiTopTKNew.obj
 0001:000aa073       ?OpenWindow@KUiTopTKNew@@SAPAV1@XZ 004ab073 f   UiTopTKNew.obj
 0001:000aa15e       ?GetIfVisible@KUiTopTKNew@@SAPAV1@XZ 004ab15e f   UiTopTKNew.obj
 0001:000aa18b       ?Initialize@KUiTopTKNew@@AAEXXZ 004ab18b f   UiTopTKNew.obj
 0001:000aac04       ?CloseWindow@KUiTopTKNew@@SAXXZ 004abc04 f   UiTopTKNew.obj
 0001:000aac2e       ?UpdateDataTop@KUiTopTKNew@@SAXPAUKUiTopTKNewData@@@Z 004abc2e f   UiTopTKNew.obj
 0001:000acce2       ?LoadScheme@KUiTopTKNew@@SAXPBD@Z 004adce2 f   UiTopTKNew.obj
 0001:000acdcf       ?LoadScheme@KUiTopTKNew@@AAEXPAVKIniFile@@@Z 004addcf f   UiTopTKNew.obj
 0001:000adeb2       ?WndProc@KUiTopTKNew@@EAEHIIH@Z 004aeeb2 f   UiTopTKNew.obj
 0001:000adee4       ?PaintWindow@KUiTopTKNew@@EAEXXZ 004aeee4 f   UiTopTKNew.obj
 0001:000adf94       ?Show@KUiTopTKNew@@UAEXXZ  004aef94 f   UiTopTKNew.obj
 0001:000adfb8       ?Hide@KUiTopTKNew@@UAEXXZ  004aefb8 f   UiTopTKNew.obj
 0001:000adfe0       ??_GKUiTopTKNew@@EAEPAXI@Z 004aefe0 f i UiTopTKNew.obj
 0001:000adfe0       ??_EKUiTopTKNew@@EAEPAXI@Z 004aefe0 f i UiTopTKNew.obj
 0001:000ae020       ??1KUiTopTKNew@@EAE@XZ     004af020 f i UiTopTKNew.obj
 0001:000ae820       ?OpenWindow@KUiTrembleItem@@SAPAV1@XZ 004af820 f   UiTrembleItem.obj
 0001:000ae93d       ?GetIfVisible@KUiTrembleItem@@SAPAV1@XZ 004af93d f   UiTrembleItem.obj
 0001:000ae96a       ?CloseWindow@KUiTrembleItem@@SAX_N@Z 004af96a f   UiTrembleItem.obj
 0001:000ae9d3       ?Initialize@KUiTrembleItem@@AAEXXZ 004af9d3 f   UiTrembleItem.obj
 0001:000aeb1a       ?LoadScheme@KUiTrembleItem@@SAXPBD@Z 004afb1a f   UiTrembleItem.obj
 0001:000aee23       ?WndProc@KUiTrembleItem@@EAEHIIH@Z 004afe23 f   UiTrembleItem.obj
 0001:000aefeb       ?EnoughItemToGo@KUiTrembleItem@@AAEHXZ 004affeb f   UiTrembleItem.obj
 0001:000af120       ?EnoughItemPickDrop@KUiTrembleItem@@AAEHPAVKWndWindow@@H@Z 004b0120 f   UiTrembleItem.obj
 0001:000af6e4       ?OnItemPickDrop@KUiTrembleItem@@AAEXPAUITEM_PICKDROP_PLACE@@0@Z 004b06e4 f   UiTrembleItem.obj
 0001:000af848       ?Breathe@KUiTrembleItem@@EAEXXZ 004b0848 f   UiTrembleItem.obj
 0001:000af8de       ?StopEffect@KUiTrembleItem@@AAEXXZ 004b08de f   UiTrembleItem.obj
 0001:000af92c       ?StartEffect@KUiTrembleItem@@AAEXXZ 004b092c f   UiTrembleItem.obj
 0001:000af972       ?IsEffect@KUiTrembleItem@@AAEHXZ 004b0972 f   UiTrembleItem.obj
 0001:000af999       ?UpdateItem@KUiTrembleItem@@QAEXPAUKUiObjAtRegion@@H@Z 004b0999 f   UiTrembleItem.obj
 0001:000afa53       ?UpdateData@KUiTrembleItem@@UAEXXZ 004b0a53 f   UiTrembleItem.obj
 0001:000afb56       ?OnOk@KUiTrembleItem@@AAEXXZ 004b0b56 f   UiTrembleItem.obj
 0001:000afbe0       ?OnCancel@KUiTrembleItem@@AAEXXZ 004b0be0 f   UiTrembleItem.obj
 0001:000afc74       ?UpdatePickPut@KUiTrembleItem@@AAEX_N@Z 004b0c74 f   UiTrembleItem.obj
 0001:000afd23       ?PecentSuccess@KUiTrembleItem@@AAEXE@Z 004b0d23 f   UiTrembleItem.obj
 0001:000afdb0       ??0KUiTrembleItem@@AAE@XZ  004b0db0 f i UiTrembleItem.obj
 0001:000afe80       ??_EKUiTrembleItem@@EAEPAXI@Z 004b0e80 f i UiTrembleItem.obj
 0001:000afe80       ??_GKUiTrembleItem@@EAEPAXI@Z 004b0e80 f i UiTrembleItem.obj
 0001:000afec0       ??1KUiTrembleItem@@EAE@XZ  004b0ec0 f i UiTrembleItem.obj
 0001:000aff80       ??0KCanGetNumImage@@QAE@XZ 004b0f80 f i UiTrembleItem.obj
 0001:000affb0       ??1KCanGetNumImage@@UAE@XZ 004b0fb0 f i UiTrembleItem.obj
 0001:000affe0       ??_EKCanGetNumImage@@UAEPAXI@Z 004b0fe0 f i UiTrembleItem.obj
 0001:000affe0       ??_GKCanGetNumImage@@UAEPAXI@Z 004b0fe0 f i UiTrembleItem.obj
 0001:000b0020       ?ShowNotify@TrayMode@@QAEX_N@Z 004b1020 f   TrayMode.obj
 0001:000b01e4       ?CheckTrayFPS@TrayMode@@SAHXZ 004b11e4 f   TrayMode.obj
 0001:000b01fb       ?WndProc@TrayMode@@QAEJPAUHWND__@@KIJ@Z 004b11fb f   TrayMode.obj
 0001:000b02a0       ?UiSoundLoadSetting@@YA_NXZ 004b12a0 f   UiSoundSetting.obj
 0001:000b03c3       ?UiSoundPlay@@YAXW4UI_SOUND_INDEX@@@Z 004b13c3 f   UiSoundSetting.obj
 0001:000b0404       ?UiSoundPlay@@YAXPAD@Z     004b1404 f   UiSoundSetting.obj
 0001:000b0440       ?CoreDataChangedCallback@@YAXIIH@Z 004b1440 f   GameSpaceChangedNotify.obj
 0001:000b11fb       ?CoreDataChanged@KClientCallback@@UAEXIIH@Z 004b21fb f   GameSpaceChangedNotify.obj
 0001:000b12cd       ?ClearBlackList@@YAXXZ     004b22cd f   GameSpaceChangedNotify.obj
 0001:000b12e3       ?CreateBlackListUnit@@YAXXZ 004b22e3 f   GameSpaceChangedNotify.obj
 0001:000b1306       ?AddBlackList@@YAXPBD0@Z   004b2306 f   GameSpaceChangedNotify.obj
 0001:000b1409       ?RemoveBlackList@@YAXPAD@Z 004b2409 f   GameSpaceChangedNotify.obj
 0001:000b1512       ?IsInBlackName@@YA_NPAD@Z  004b2512 f   GameSpaceChangedNotify.obj
 0001:000b15e0       ?SaveBlackListPrivateSetting@@YAHPAVKIniFile@@PBDH@Z 004b25e0 f   GameSpaceChangedNotify.obj
 0001:000b172e       ?RenameUnitGroup@BlacklistNotify@@UAEHPBD00ABV?$list@V?$basic_string@DU?$char_traits@D@std@@V?$allocator@D@2@@std@@V?$allocator@V?$basic_string@DU?$char_traits@D@std@@V?$allocator@D@2@@std@@@2@@std@@@Z 004b272e f   GameSpaceChangedNotify.obj
 0001:000b1806       ?MoveUnitGroup@BlacklistNotify@@UAEHPBD00ABV?$list@V?$basic_string@DU?$char_traits@D@std@@V?$allocator@D@2@@std@@V?$allocator@V?$basic_string@DU?$char_traits@D@std@@V?$allocator@D@2@@std@@@2@@std@@@Z 004b2806 f   GameSpaceChangedNotify.obj
 0001:000b18de       ?DeleteUnitGroup@BlacklistNotify@@UAEHPBD0ABV?$list@V?$basic_string@DU?$char_traits@D@std@@V?$allocator@D@2@@std@@V?$allocator@V?$basic_string@DU?$char_traits@D@std@@V?$allocator@D@2@@std@@@2@@std@@@Z 004b28de f   GameSpaceChangedNotify.obj
 0001:000b19a4       ?DeleteUnitMember@BlacklistNotify@@UAEHPBD0@Z 004b29a4 f   GameSpaceChangedNotify.obj
 0001:000b19e4       ?MoveUnitMember@BlacklistNotify@@UAEHPBD00@Z 004b29e4 f   GameSpaceChangedNotify.obj
 0001:000b1b09       ?SendNotifyGroupFriend@BlacklistNotify@@QAEXPBDABV?$basic_string@DU?$char_traits@D@std@@V?$allocator@D@2@@std@@ABV?$list@V?$basic_string@DU?$char_traits@D@std@@V?$allocator@D@2@@std@@V?$allocator@V?$basic_string@DU?$char_traits@D@std@@V?$allocator@D@2@@std@@@2@@3@@Z 004b2b09 f   GameSpaceChangedNotify.obj
 0001:000b1bb4       ?SendNotifyDeleteFriend@BlacklistNotify@@QAEXPBD0@Z 004b2bb4 f   GameSpaceChangedNotify.obj
 0001:000b1bf3       ?ChannelMessageArrival@KClientCallback@@UAEXKPADPBDG_N@Z 004b2bf3 f   GameSpaceChangedNotify.obj
 0001:000b1e81       ?MSNMessageArrival@KClientCallback@@UAEXPAD0PBDG_N@Z 004b2e81 f   GameSpaceChangedNotify.obj
 0001:000b1fb7       ?NotifyChannelID@KClientCallback@@UAEXPADKE@Z 004b2fb7 f   GameSpaceChangedNotify.obj
 0001:000b1fe9       ?FriendInvite@KClientCallback@@UAEXPAD@Z 004b2fe9 f   GameSpaceChangedNotify.obj
 0001:000b20b4       ?AddFriend@KClientCallback@@UAEXPADE@Z 004b30b4 f   GameSpaceChangedNotify.obj
 0001:000b22cd       ?FriendStatus@KClientCallback@@UAEXPADE@Z 004b32cd f   GameSpaceChangedNotify.obj
 0001:000b23f0       ?FriendInfo@KClientCallback@@UAEXPAD00E@Z 004b33f0 f   GameSpaceChangedNotify.obj
 0001:000b24c3       ?AddPeople@KClientCallback@@UAEXPAD0@Z 004b34c3 f   GameSpaceChangedNotify.obj
 0001:000b2572       ?LevelTips@@YAXH@Z         004b3572 f   GameSpaceChangedNotify.obj
 0001:000b269f       ?FactionTips@@YAXH@Z       004b369f f   GameSpaceChangedNotify.obj
 0001:000b27d3       ?GameWorldTips@@YAXIH@Z    004b37d3 f   GameSpaceChangedNotify.obj
 0001:000b2810       ??0BlacklistNotify@@QAE@XZ 004b3810 f i GameSpaceChangedNotify.obj
 0001:000b2840       ?size@?$map@V?$basic_string@DU?$char_traits@D@std@@V?$allocator@D@2@@std@@V12@U?$less@V?$basic_string@DU?$char_traits@D@std@@V?$allocator@D@2@@std@@@2@V?$allocator@V?$basic_string@DU?$char_traits@D@std@@V?$allocator@D@2@@std@@@2@@std@@QBEIXZ 004b3840 f i GameSpaceChangedNotify.obj
 0001:000b2996       ?HandleKeyInput@KShortcutKeyCentre@@SAHIH@Z 004b3996 f   ShortcutKey.obj
 0001:000b29f6       ?HandleMouseInput@KShortcutKeyCentre@@SAHIHHH@Z 004b39f6 f   ShortcutKey.obj
 0001:000b2a97       ?Enable@KShortcutKeyCentre@@SAX_N@Z 004b3a97 f   ShortcutKey.obj
 0001:000b2aa4       ?FindWindowA@@YAHPBD@Z     004b3aa4 f   ShortcutKey.obj
 0001:000b2b06       ?LuaOpenWindow@@YAHPAUlua_State@@@Z 004b3b06 f   ShortcutKey.obj
 0001:000b2e8d       ?FindWndWindow@@YAPAVKWndWindow@@PBD@Z 004b3e8d f   ShortcutKey.obj
 0001:000b2ef8       ?LuaMoveWindow@@YAHPAUlua_State@@@Z 004b3ef8 f   ShortcutKey.obj
 0001:000b2fc3       ?LuaSizeWindow@@YAHPAUlua_State@@@Z 004b3fc3 f   ShortcutKey.obj
 0001:000b309a       ?LuaShowWindow@@YAHPAUlua_State@@@Z 004b409a f   ShortcutKey.obj
 0001:000b316f       ?LuaFocusWindow@@YAHPAUlua_State@@@Z 004b416f f   ShortcutKey.obj
 0001:000b31fd       ?LuaShortcutSkill@@YAHPAUlua_State@@@Z 004b41fd f   ShortcutKey.obj
 0001:000b3265       ?LuaDirectShortcutSkill@@YAHPAUlua_State@@@Z 004b4265 f   ShortcutKey.obj
 0001:000b32cd       ?LuaShortcutUseItem@@YAHPAUlua_State@@@Z 004b42cd f   ShortcutKey.obj
 0001:000b3335       ?FindStatus@@YAHPBD@Z      004b4335 f   ShortcutKey.obj
 0001:000b3397       ?LuaSwitchStatus@@YAHPAUlua_State@@@Z 004b4397 f   ShortcutKey.obj
 0001:000b37a0       ?LuaSwitchChannel@@YAHPAUlua_State@@@Z 004b47a0 f   ShortcutKey.obj
 0001:000b380b       ?LuaRegisterEvent@@YAHPAUlua_State@@@Z 004b480b f   ShortcutKey.obj
 0001:000b3899       ?LuaUnregisterEvent@@YAHPAUlua_State@@@Z 004b4899 f   ShortcutKey.obj
 0001:000b3927       ?LuaSendEvent@@YAHPAUlua_State@@@Z 004b4927 f   ShortcutKey.obj
 0001:000b3a34       ?LuaGetAppStatus@@YAHPAUlua_State@@@Z 004b4a34 f   ShortcutKey.obj
 0001:000b3b55       ?DescHotKey@hotkey_str@@YA?AV?$basic_string@DU?$char_traits@D@std@@V?$allocator@D@2@@std@@K@Z 004b4b55 f   ShortcutKey.obj
 0001:000b3d95       ?ParseHotKey@hotkey_str@@YAKABV?$basic_string@DU?$char_traits@D@std@@V?$allocator@D@2@@std@@@Z 004b4d95 f   ShortcutKey.obj
 0001:000b4094       ??0PATTERNMAP@?1??ParseHotKey@hotkey_str@@YAKABV?$basic_string@DU?$char_traits@D@std@@V?$allocator@D@2@@std@@@Z@QAE@XZ 004b5094 f   ShortcutKey.obj
 0001:000b5292       ?LuaAddCommand@@YAHPAUlua_State@@@Z 004b6292 f   ShortcutKey.obj
 0001:000b5418       ?LuaRemoveCommand@@YAHPAUlua_State@@@Z 004b6418 f   ShortcutKey.obj
 0001:000b55a3       ?LuaMakeFriend@@YAHPAUlua_State@@@Z 004b65a3 f   ShortcutKey.obj
 0001:000b5650       ?LuaCreateTeam@@YAHPAUlua_State@@@Z 004b6650 f   ShortcutKey.obj
 0001:000b5688       ?LuaJoinTeam@@YAHPAUlua_State@@@Z 004b6688 f   ShortcutKey.obj
 0001:000b5749       ?LuaInviteTeam@@YAHPAUlua_State@@@Z 004b6749 f   ShortcutKey.obj
 0001:000b580a       ?LuaTrade@@YAHPAUlua_State@@@Z 004b680a f   ShortcutKey.obj
 0001:000b58cb       ?LuaRevenge@@YAHPAUlua_State@@@Z 004b68cb f   ShortcutKey.obj
 0001:000b598c       ?LuaFollow@@YAHPAUlua_State@@@Z 004b698c f   ShortcutKey.obj
 0001:000b5a4d       ?LuaViewItem@@YAHPAUlua_State@@@Z 004b6a4d f   ShortcutKey.obj
 0001:000b5b0e       ?LuaPrintScreen@@YAHPAUlua_State@@@Z 004b6b0e f   ShortcutKey.obj
 0001:000b5b28       ?LuaClearMessage@@YAHPAUlua_State@@@Z 004b6b28 f   ShortcutKey.obj
 0001:000b5b3b       ?LuaSay@@YAHPAUlua_State@@@Z 004b6b3b f   ShortcutKey.obj
 0001:000b5c55       ?LuaChat@@YAHPAUlua_State@@@Z 004b6c55 f   ShortcutKey.obj
 0001:000b5d9b       ?LuaRegisterFunctionAlias@@YAHPAUlua_State@@@Z 004b6d9b f   ShortcutKey.obj
 0001:000b5f81       ?LuaSayPhrase@@YAHPAUlua_State@@@Z 004b6f81 f   ShortcutKey.obj
 0001:000b60fb       ?LuaSayEmote@@YAHPAUlua_State@@@Z 004b70fb f   ShortcutKey.obj
 0001:000b61b1       ?LuaGetCurrentChannelName@@YAHPAUlua_State@@@Z 004b71b1 f   ShortcutKey.obj
 0001:000b6229       ?LuaGetRecentPlayerName@@YAHPAUlua_State@@@Z 004b7229 f   ShortcutKey.obj
 0001:000b629b       ?LuaConvertEmotes@@YAHPAUlua_State@@@Z 004b729b f   ShortcutKey.obj
 0001:000b62b3       ?LuaSetEmote@@YAHPAUlua_State@@@Z 004b72b3 f   ShortcutKey.obj
 0001:000b63cc       ?LuaSetScreenShotFolder@@YAHPAUlua_State@@@Z 004b73cc f   ShortcutKey.obj
 0001:000b64da       ?LuaSetPhrase@@YAHPAUlua_State@@@Z 004b74da f   ShortcutKey.obj
 0001:000b659b       ?LuaAutoReply@@YAHPAUlua_State@@@Z 004b759b f   ShortcutKey.obj
 0001:000b68eb       ?LuaExitGame@@YAHPAUlua_State@@@Z 004b78eb f   ShortcutKey.obj
 0001:000b695b       ?LuaExit@@YAHPAUlua_State@@@Z 004b795b f   ShortcutKey.obj
 0001:000b696e       ?LuaSet3D@@YAHPAUlua_State@@@Z 004b796e f   ShortcutKey.obj
 0001:000b6b95       ?LuaSetFullWindow@@YAHPAUlua_State@@@Z 004b7b95 f   ShortcutKey.obj
 0001:000b6dbc       ?LuaMoveTo@@YAHPAUlua_State@@@Z 004b7dbc f   ShortcutKey.obj
 0001:000b6ea3       ?LuaTurnTo@@YAHPAUlua_State@@@Z 004b7ea3 f   ShortcutKey.obj
 0001:000b6f3f       ?Mouse_Action@@YAHPAUlua_State@@@Z 004b7f3f f   ShortcutKey.obj
 0001:000b71f0       ?Mouse_Force0@@YAHPAUlua_State@@@Z 004b81f0 f   ShortcutKey.obj
 0001:000b7329       ?Mouse_Force1@@YAHPAUlua_State@@@Z 004b8329 f   ShortcutKey.obj
 0001:000b7462       ?Mouse_MoveTo@@YAHPAUlua_State@@@Z 004b8462 f   ShortcutKey.obj
 0001:000b754d       ?Mouse_Menu@@YAHPAUlua_State@@@Z 004b854d f   ShortcutKey.obj
 0001:000b761e       ?Mouse_Emote_Menu@@YAHPAUlua_State@@@Z 004b861e f   ShortcutKey.obj
 0001:000b76ef       ?Mouse_Say@@YAHPAUlua_State@@@Z 004b86ef f   ShortcutKey.obj
 0001:000b77b2       ?Mouse_MakeFriend@@YAHPAUlua_State@@@Z 004b87b2 f   ShortcutKey.obj
 0001:000b7875       ?Mouse_JoinTeam@@YAHPAUlua_State@@@Z 004b8875 f   ShortcutKey.obj
 0001:000b7938       ?Mouse_InviteTeam@@YAHPAUlua_State@@@Z 004b8938 f   ShortcutKey.obj
 0001:000b79fb       ?Mouse_Trade@@YAHPAUlua_State@@@Z 004b89fb f   ShortcutKey.obj
 0001:000b7abe       ?Mouse_Revenge@@YAHPAUlua_State@@@Z 004b8abe f   ShortcutKey.obj
 0001:000b7b81       ?Mouse_Follow@@YAHPAUlua_State@@@Z 004b8b81 f   ShortcutKey.obj
 0001:000b7c44       ?Mouse_ViewItem@@YAHPAUlua_State@@@Z 004b8c44 f   ShortcutKey.obj
 0001:000b7d07       ?Mouse_BlackList@@YAHPAUlua_State@@@Z 004b8d07 f   ShortcutKey.obj
 0001:000b7dca       ?LuaThrowAwayItem@@YAHPAUlua_State@@@Z 004b8dca f   ShortcutKey.obj
 0001:000b7e00       ?LuaSetChatFontSzie@@YAHPAUlua_State@@@Z 004b8e00 f   ShortcutKey.obj
 0001:000b7e68       ?LuaSetChannelTextColor@@YAHPAUlua_State@@@Z 004b8e68 f   ShortcutKey.obj
 0001:000b7f3a       ?LuaSetMeTextColor@@YAHPAUlua_State@@@Z 004b8f3a f   ShortcutKey.obj
 0001:000b7fdf       ?LuaSetFriendTextColor@@YAHPAUlua_State@@@Z 004b8fdf f   ShortcutKey.obj
 0001:000b8084       ?LuaSetStrangerTextColor@@YAHPAUlua_State@@@Z 004b9084 f   ShortcutKey.obj
 0001:000b8129       ?LuaDebug@@YAHPAUlua_State@@@Z 004b9129 f   ShortcutKey.obj
 0001:000b81b0       ?LuaAddBlackList@@YAHPAUlua_State@@@Z 004b91b0 f   ShortcutKey.obj
 0001:000b82f0       ?LuaRemoveBlackList@@YAHPAUlua_State@@@Z 004b92f0 f   ShortcutKey.obj
 0001:000b836a       ?LuaCreateAddinUnit@@YAHPAUlua_State@@@Z 004b936a f   ShortcutKey.obj
 0001:000b83cd       ?LuaDeleteAddinUnit@@YAHPAUlua_State@@@Z 004b93cd f   ShortcutKey.obj
 0001:000b8430       ?LuaCreateUnitGroup@@YAHPAUlua_State@@@Z 004b9430 f   ShortcutKey.obj
 0001:000b84d7       ?LuaRenameUnitGroup@@YAHPAUlua_State@@@Z 004b94d7 f   ShortcutKey.obj
 0001:000b8599       ?LuaMoveUnitGroup@@YAHPAUlua_State@@@Z 004b9599 f   ShortcutKey.obj
 0001:000b865d       ?LuaDeleteUnitGroup@@YAHPAUlua_State@@@Z 004b965d f   ShortcutKey.obj
 0001:000b870b       ?LuaMoveUnitMember@@YAHPAUlua_State@@@Z 004b970b f   ShortcutKey.obj
 0001:000b87cd       ?LuaCreateAddinUnitMember@@YAHPAUlua_State@@@Z 004b97cd f   ShortcutKey.obj
 0001:000b888f       ?LuaDeleteAddinUnitMember@@YAHPAUlua_State@@@Z 004b988f f   ShortcutKey.obj
 0001:000b8938       ?LuaSetAddinUnitMemberStatus@@YAHPAUlua_State@@@Z 004b9938 f   ShortcutKey.obj
 0001:000b8a1e       ?LuaShowSomeoneMessage@@YAHPAUlua_State@@@Z 004b9a1e f   ShortcutKey.obj
 0001:000b8b3a       ?g_GetGameScriptFunNum@@YAHXZ 004b9b3a f   ShortcutKey.obj
 0001:000b8b44       ?InitScript@KShortcutKeyCentre@@SAHXZ 004b9b44 f   ShortcutKey.obj
 0001:000b8b9e       ?LoadScript@KShortcutKeyCentre@@SAHPAD@Z 004b9b9e f   ShortcutKey.obj
 0001:000b8bc9       ?UninitScript@KShortcutKeyCentre@@SAHXZ 004b9bc9 f   ShortcutKey.obj
 0001:000b8bda       ?ClearScript@KShortcutKeyCentre@@SAHXZ 004b9bda f   ShortcutKey.obj
 0001:000b8c36       ?LoadPrivateSetting@KShortcutKeyCentre@@SAHPAVKIniFile@@@Z 004b9c36 f   ShortcutKey.obj
 0001:000b8dd2       ?SavePrivateSetting@KShortcutKeyCentre@@SAHPAVKIniFile@@@Z 004b9dd2 f   ShortcutKey.obj
 0001:000b9dc6       ?Compile@@YAIPBDPADI@Z     004badc6 f   ShortcutKey.obj
 0001:000ba34b       ?TranslateExcuteScript@KShortcutKeyCentre@@SAHPBD@Z 004bb34b f   ShortcutKey.obj
 0001:000ba424       ?ExcuteScript@KShortcutKeyCentre@@SAHPBD@Z 004bb424 f   ShortcutKey.obj
 0001:000ba50d       ?ExcuteHWNDScript@KShortcutKeyCentre@@SAHPBD@Z 004bb50d f   ShortcutKey.obj
 0001:000ba56c       ?AddCommand@KShortcutKeyCentre@@SAHPAUCOMMAND_SETTING@@@Z 004bb56c f   ShortcutKey.obj
 0001:000ba6b4       ?RemoveCommand@KShortcutKeyCentre@@SAHH@Z 004bb6b4 f   ShortcutKey.obj
 0001:000ba73c       ?RemoveCommandAll@KShortcutKeyCentre@@SAXXZ 004bb73c f   ShortcutKey.obj
 0001:000ba74b       ?FindCommand@KShortcutKeyCentre@@SAHK@Z 004bb74b f   ShortcutKey.obj
 0001:000ba7b7       ?FindCommand@KShortcutKeyCentre@@SAHPBD@Z 004bb7b7 f   ShortcutKey.obj
 0001:000ba853       ?FindCommandByScript@KShortcutKeyCentre@@SAHPBD@Z 004bb853 f   ShortcutKey.obj
 0001:000ba8ef       ?GetCommandKey@KShortcutKeyCentre@@SAKH@Z 004bb8ef f   ShortcutKey.obj
 0001:000ba91b       ?GetKeyName@KShortcutKeyCentre@@SAPBDK@Z 004bb91b f   ShortcutKey.obj
 0001:000baa33       ?RegisterFunctionAlias@KShortcutKeyCentre@@SAHPBD0HABV?$list@V?$basic_string@DU?$char_traits@D@std@@V?$allocator@D@2@@std@@V?$allocator@V?$basic_string@DU?$char_traits@D@std@@V?$allocator@D@2@@std@@@2@@std@@@Z 004bba33 f   ShortcutKey.obj
 0001:000bac30       ??1?$map@V?$basic_string@DU?$char_traits@D@std@@V?$allocator@D@2@@std@@UShortFuncInfo@@Ustring_iless@@V?$allocator@UShortFuncInfo@@@2@@std@@QAE@XZ 004bbc30 f i ShortcutKey.obj
 0001:000bac60       ?GetSelf@KUiMsgCentrePad@@SAPAV1@XZ 004bbc60 f i ShortcutKey.obj
 0001:000bac70       ?GetSelf@KUiMiniMap@@SAPAV1@XZ 004bbc70 f i ShortcutKey.obj
 0001:000bac80       ?GetSelf@KUiHeaderControlBar@@SAPAV1@XZ 004bbc80 f i ShortcutKey.obj
 0001:000bac90       ??1PATTERNMAP@?1??ParseHotKey@hotkey_str@@YAKABV?$basic_string@DU?$char_traits@D@std@@V?$allocator@D@2@@std@@@Z@QAE@XZ 004bbc90 f i ShortcutKey.obj
 0001:000bacc0       ??1?$map@V?$basic_string@DU?$char_traits@D@std@@V?$allocator@D@2@@std@@U?$pair@KK@2@Ustring_iless@@V?$allocator@U?$pair@KK@std@@@2@@std@@QAE@XZ 004bbcc0 f i ShortcutKey.obj
 0001:000bacf0       ?__x_memcpy_n@@YA_NPAXIPBXI@Z 004bbcf0 f i ShortcutKey.obj
 0001:000bad20       ??0ShortFuncInfo@@QAE@XZ   004bbd20 f i ShortcutKey.obj
 0001:000badb0       ??1ShortFuncInfo@@QAE@XZ   004bbdb0 f i ShortcutKey.obj
 0001:000bae20       ??4ShortFuncInfo@@QAEAAU0@ABU0@@Z 004bbe20 f i ShortcutKey.obj
 0001:000bae80       ??4?$list@V?$basic_string@DU?$char_traits@D@std@@V?$allocator@D@2@@std@@V?$allocator@V?$basic_string@DU?$char_traits@D@std@@V?$allocator@D@2@@std@@@2@@std@@QAEAAV01@ABV01@@Z 004bbe80 f i ShortcutKey.obj
 0001:000baf90       ?pop_back@?$list@V?$basic_string@DU?$char_traits@D@std@@V?$allocator@D@2@@std@@V?$allocator@V?$basic_string@DU?$char_traits@D@std@@V?$allocator@D@2@@std@@@2@@std@@QAEXXZ 004bbf90 f i ShortcutKey.obj
 0001:000bafe0       ??Diterator@?$list@V?$basic_string@DU?$char_traits@D@std@@V?$allocator@D@2@@std@@V?$allocator@V?$basic_string@DU?$char_traits@D@std@@V?$allocator@D@2@@std@@@2@@std@@QBEAAV?$basic_string@DU?$char_traits@D@std@@V?$allocator@D@2@@2@XZ 004bbfe0 f i ShortcutKey.obj
 0001:000bb010       ??0?$map@V?$basic_string@DU?$char_traits@D@std@@V?$allocator@D@2@@std@@UShortFuncInfo@@Ustring_iless@@V?$allocator@UShortFuncInfo@@@2@@std@@QAE@ABUstring_iless@@ABV?$allocator@UShortFuncInfo@@@1@@Z 004bc010 f i ShortcutKey.obj
 0001:000bb050       ?begin@?$map@V?$basic_string@DU?$char_traits@D@std@@V?$allocator@D@2@@std@@UShortFuncInfo@@Ustring_iless@@V?$allocator@UShortFuncInfo@@@2@@std@@QAE?AViterator@?$_Tree@V?$basic_string@DU?$char_traits@D@std@@V?$allocator@D@2@@std@@U?$pair@$$CBV?$basic_string@DU?$char_traits@D@std@@V?$allocator@D@2@@std@@UShortFuncInfo@@@2@U_Kfn@?$map@V?$basic_string@DU?$char_traits@D@std@@V?$allocator@D@2@@std@@UShortFuncInfo@@Ustring_iless@@V?$allocator@UShortFuncInfo@@@2@@2@Ustring_iless@@V?$allocator@UShortFuncInfo@@@2@@2@XZ 004bc050 f i ShortcutKey.obj
 0001:000bb090       ??A?$map@V?$basic_string@DU?$char_traits@D@std@@V?$allocator@D@2@@std@@UShortFuncInfo@@Ustring_iless@@V?$allocator@UShortFuncInfo@@@2@@std@@QAEAAUShortFuncInfo@@ABV?$basic_string@DU?$char_traits@D@std@@V?$allocator@D@2@@1@@Z 004bc090 f i ShortcutKey.obj
 0001:000bb150       ?clear@?$map@V?$basic_string@DU?$char_traits@D@std@@V?$allocator@D@2@@std@@UShortFuncInfo@@Ustring_iless@@V?$allocator@UShortFuncInfo@@@2@@std@@QAEXXZ 004bc150 f i ShortcutKey.obj
 0001:000bb180       ??1?$_Tree@V?$basic_string@DU?$char_traits@D@std@@V?$allocator@D@2@@std@@U?$pair@$$CBV?$basic_string@DU?$char_traits@D@std@@V?$allocator@D@2@@std@@UShortFuncInfo@@@2@U_Kfn@?$map@V?$basic_string@DU?$char_traits@D@std@@V?$allocator@D@2@@std@@UShortFuncInfo@@Ustring_iless@@V?$allocator@UShortFuncInfo@@@2@@2@Ustring_iless@@V?$allocator@UShortFuncInfo@@@2@@std@@QAE@XZ 004bc180 f i ShortcutKey.obj
 0001:000bb280       ??Citerator@?$_Tree@V?$basic_string@DU?$char_traits@D@std@@V?$allocator@D@2@@std@@U?$pair@$$CBV?$basic_string@DU?$char_traits@D@std@@V?$allocator@D@2@@std@@UShortFuncInfo@@@2@U_Kfn@?$map@V?$basic_string@DU?$char_traits@D@std@@V?$allocator@D@2@@std@@UShortFuncInfo@@Ustring_iless@@V?$allocator@UShortFuncInfo@@@2@@2@Ustring_iless@@V?$allocator@UShortFuncInfo@@@2@@std@@QBEPAU?$pair@$$CBV?$basic_string@DU?$char_traits@D@std@@V?$allocator@D@2@@std@@UShortFuncInfo@@@2@XZ 004bc280 f i ShortcutKey.obj
 0001:000bb2b0       ??Eiterator@?$_Tree@V?$basic_string@DU?$char_traits@D@std@@V?$allocator@D@2@@std@@U?$pair@$$CBV?$basic_string@DU?$char_traits@D@std@@V?$allocator@D@2@@std@@UShortFuncInfo@@@2@U_Kfn@?$map@V?$basic_string@DU?$char_traits@D@std@@V?$allocator@D@2@@std@@UShortFuncInfo@@Ustring_iless@@V?$allocator@UShortFuncInfo@@@2@@2@Ustring_iless@@V?$allocator@UShortFuncInfo@@@2@@std@@QAE?AV012@H@Z 004bc2b0 f i ShortcutKey.obj
 0001:000bb300       ??0?$map@V?$basic_string@DU?$char_traits@D@std@@V?$allocator@D@2@@std@@U?$pair@KK@2@Ustring_iless@@V?$allocator@U?$pair@KK@std@@@2@@std@@QAE@ABUstring_iless@@ABV?$allocator@U?$pair@KK@std@@@1@@Z 004bc300 f i ShortcutKey.obj
 0001:000bb340       ?end@?$map@V?$basic_string@DU?$char_traits@D@std@@V?$allocator@D@2@@std@@U?$pair@KK@2@Ustring_iless@@V?$allocator@U?$pair@KK@std@@@2@@std@@QBE?AVconst_iterator@?$_Tree@V?$basic_string@DU?$char_traits@D@std@@V?$allocator@D@2@@std@@U?$pair@$$CBV?$basic_string@DU?$char_traits@D@std@@V?$allocator@D@2@@std@@U?$pair@KK@2@@2@U_Kfn@?$map@V?$basic_string@DU?$char_traits@D@std@@V?$allocator@D@2@@std@@U?$pair@KK@2@Ustring_iless@@V?$allocator@U?$pair@KK@std@@@2@@2@Ustring_iless@@V?$allocator@U?$pair@KK@std@@@2@@2@XZ 004bc340 f i ShortcutKey.obj
 0001:000bb380       ??A?$map@V?$basic_string@DU?$char_traits@D@std@@V?$allocator@D@2@@std@@U?$pair@KK@2@Ustring_iless@@V?$allocator@U?$pair@KK@std@@@2@@std@@QAEAAU?$pair@KK@1@ABV?$basic_string@DU?$char_traits@D@std@@V?$allocator@D@2@@1@@Z 004bc380 f i ShortcutKey.obj
 0001:000bb420       ?find@?$map@V?$basic_string@DU?$char_traits@D@std@@V?$allocator@D@2@@std@@U?$pair@KK@2@Ustring_iless@@V?$allocator@U?$pair@KK@std@@@2@@std@@QBE?AVconst_iterator@?$_Tree@V?$basic_string@DU?$char_traits@D@std@@V?$allocator@D@2@@std@@U?$pair@$$CBV?$basic_string@DU?$char_traits@D@std@@V?$allocator@D@2@@std@@U?$pair@KK@2@@2@U_Kfn@?$map@V?$basic_string@DU?$char_traits@D@std@@V?$allocator@D@2@@std@@U?$pair@KK@2@Ustring_iless@@V?$allocator@U?$pair@KK@std@@@2@@2@Ustring_iless@@V?$allocator@U?$pair@KK@std@@@2@@2@ABV?$basic_string@DU?$char_traits@D@std@@V?$allocator@D@2@@2@@Z 004bc420 f i ShortcutKey.obj
 0001:000bb470       ??1?$_Tree@V?$basic_string@DU?$char_traits@D@std@@V?$allocator@D@2@@std@@U?$pair@$$CBV?$basic_string@DU?$char_traits@D@std@@V?$allocator@D@2@@std@@U?$pair@KK@2@@2@U_Kfn@?$map@V?$basic_string@DU?$char_traits@D@std@@V?$allocator@D@2@@std@@U?$pair@KK@2@Ustring_iless@@V?$allocator@U?$pair@KK@std@@@2@@2@Ustring_iless@@V?$allocator@U?$pair@KK@std@@@2@@std@@QAE@XZ 004bc470 f i ShortcutKey.obj
 0001:000bb570       ??Dconst_iterator@?$_Tree@V?$basic_string@DU?$char_traits@D@std@@V?$allocator@D@2@@std@@U?$pair@$$CBV?$basic_string@DU?$char_traits@D@std@@V?$allocator@D@2@@std@@U?$pair@KK@2@@2@U_Kfn@?$map@V?$basic_string@DU?$char_traits@D@std@@V?$allocator@D@2@@std@@U?$pair@KK@2@Ustring_iless@@V?$allocator@U?$pair@KK@std@@@2@@2@Ustring_iless@@V?$allocator@U?$pair@KK@std@@@2@@std@@QBEABU?$pair@$$CBV?$basic_string@DU?$char_traits@D@std@@V?$allocator@D@2@@std@@U?$pair@KK@2@@2@XZ 004bc570 f i ShortcutKey.obj
 0001:000bb5a0       ??8const_iterator@?$_Tree@V?$basic_string@DU?$char_traits@D@std@@V?$allocator@D@2@@std@@U?$pair@$$CBV?$basic_string@DU?$char_traits@D@std@@V?$allocator@D@2@@std@@U?$pair@KK@2@@2@U_Kfn@?$map@V?$basic_string@DU?$char_traits@D@std@@V?$allocator@D@2@@std@@U?$pair@KK@2@Ustring_iless@@V?$allocator@U?$pair@KK@std@@@2@@2@Ustring_iless@@V?$allocator@U?$pair@KK@std@@@2@@std@@QBE_NABV012@@Z 004bc5a0 f i ShortcutKey.obj
 0001:000bb5d0       ??1?$pair@$$CBV?$basic_string@DU?$char_traits@D@std@@V?$allocator@D@2@@std@@UShortFuncInfo@@@std@@QAE@XZ 004bc5d0 f i ShortcutKey.obj
 0001:000bb640       ??1?$pair@$$CBV?$basic_string@DU?$char_traits@D@std@@V?$allocator@D@2@@std@@U?$pair@KK@2@@std@@QAE@XZ 004bc640 f i ShortcutKey.obj
 0001:000bb670       ?insert@?$list@V?$basic_string@DU?$char_traits@D@std@@V?$allocator@D@2@@std@@V?$allocator@V?$basic_string@DU?$char_traits@D@std@@V?$allocator@D@2@@std@@@2@@std@@QAEXViterator@12@Vconst_iterator@12@1@Z 004bc670 f i ShortcutKey.obj
 0001:000bb6e0       ??Fiterator@?$list@V?$basic_string@DU?$char_traits@D@std@@V?$allocator@D@2@@std@@V?$allocator@V?$basic_string@DU?$char_traits@D@std@@V?$allocator@D@2@@std@@@2@@std@@QAEAAV012@XZ 004bc6e0 f i ShortcutKey.obj
 0001:000bb720       ?insert@?$map@V?$basic_string@DU?$char_traits@D@std@@V?$allocator@D@2@@std@@UShortFuncInfo@@Ustring_iless@@V?$allocator@UShortFuncInfo@@@2@@std@@QAE?AU?$pair@Viterator@?$_Tree@V?$basic_string@DU?$char_traits@D@std@@V?$allocator@D@2@@std@@U?$pair@$$CBV?$basic_string@DU?$char_traits@D@std@@V?$allocator@D@2@@std@@UShortFuncInfo@@@2@U_Kfn@?$map@V?$basic_string@DU?$char_traits@D@std@@V?$allocator@D@2@@std@@UShortFuncInfo@@Ustring_iless@@V?$allocator@UShortFuncInfo@@@2@@2@Ustring_iless@@V?$allocator@UShortFuncInfo@@@2@@std@@_N@2@ABU?$pair@$$CBV?$basic_string@DU?$char_traits@D@std@@V?$allocator@D@2@@std@@UShortFuncInfo@@@2@@Z 004bc720 f i ShortcutKey.obj
 0001:000bb790       ??0?$_Tree@V?$basic_string@DU?$char_traits@D@std@@V?$allocator@D@2@@std@@U?$pair@$$CBV?$basic_string@DU?$char_traits@D@std@@V?$allocator@D@2@@std@@UShortFuncInfo@@@2@U_Kfn@?$map@V?$basic_string@DU?$char_traits@D@std@@V?$allocator@D@2@@std@@UShortFuncInfo@@Ustring_iless@@V?$allocator@UShortFuncInfo@@@2@@2@Ustring_iless@@V?$allocator@UShortFuncInfo@@@2@@std@@QAE@ABUstring_iless@@_NABV?$allocator@UShortFuncInfo@@@1@@Z 004bc790 f i ShortcutKey.obj
 0001:000bb7e0       ?begin@?$_Tree@V?$basic_string@DU?$char_traits@D@std@@V?$allocator@D@2@@std@@U?$pair@$$CBV?$basic_string@DU?$char_traits@D@std@@V?$allocator@D@2@@std@@UShortFuncInfo@@@2@U_Kfn@?$map@V?$basic_string@DU?$char_traits@D@std@@V?$allocator@D@2@@std@@UShortFuncInfo@@Ustring_iless@@V?$allocator@UShortFuncInfo@@@2@@2@Ustring_iless@@V?$allocator@UShortFuncInfo@@@2@@std@@QAE?AViterator@12@XZ 004bc7e0 f i ShortcutKey.obj
 0001:000bb830       ?erase@?$_Tree@V?$basic_string@DU?$char_traits@D@std@@V?$allocator@D@2@@std@@U?$pair@$$CBV?$basic_string@DU?$char_traits@D@std@@V?$allocator@D@2@@std@@UShortFuncInfo@@@2@U_Kfn@?$map@V?$basic_string@DU?$char_traits@D@std@@V?$allocator@D@2@@std@@UShortFuncInfo@@Ustring_iless@@V?$allocator@UShortFuncInfo@@@2@@2@Ustring_iless@@V?$allocator@UShortFuncInfo@@@2@@std@@QAE?AViterator@12@V312@0@Z 004bc830 f i ShortcutKey.obj
 0001:000bb9b0       ?clear@?$_Tree@V?$basic_string@DU?$char_traits@D@std@@V?$allocator@D@2@@std@@U?$pair@$$CBV?$basic_string@DU?$char_traits@D@std@@V?$allocator@D@2@@std@@UShortFuncInfo@@@2@U_Kfn@?$map@V?$basic_string@DU?$char_traits@D@std@@V?$allocator@D@2@@std@@UShortFuncInfo@@Ustring_iless@@V?$allocator@UShortFuncInfo@@@2@@2@Ustring_iless@@V?$allocator@UShortFuncInfo@@@2@@std@@QAEXXZ 004bc9b0 f i ShortcutKey.obj
 0001:000bba10       ?_Freenode@?$_Tree@V?$basic_string@DU?$char_traits@D@std@@V?$allocator@D@2@@std@@U?$pair@$$CBV?$basic_string@DU?$char_traits@D@std@@V?$allocator@D@2@@std@@UShortFuncInfo@@@2@U_Kfn@?$map@V?$basic_string@DU?$char_traits@D@std@@V?$allocator@D@2@@std@@UShortFuncInfo@@Ustring_iless@@V?$allocator@UShortFuncInfo@@@2@@2@Ustring_iless@@V?$allocator@UShortFuncInfo@@@2@@std@@IAEXPAU_Node@12@@Z 004bca10 f i ShortcutKey.obj
 0001:000bba40       ??0?$pair@$$CBV?$basic_string@DU?$char_traits@D@std@@V?$allocator@D@2@@std@@UShortFuncInfo@@@std@@QAE@ABV?$basic_string@DU?$char_traits@D@std@@V?$allocator@D@2@@1@ABUShortFuncInfo@@@Z 004bca40 f i ShortcutKey.obj
 0001:000bbac0       ??Diterator@?$_Tree@V?$basic_string@DU?$char_traits@D@std@@V?$allocator@D@2@@std@@U?$pair@$$CBV?$basic_string@DU?$char_traits@D@std@@V?$allocator@D@2@@std@@UShortFuncInfo@@@2@U_Kfn@?$map@V?$basic_string@DU?$char_traits@D@std@@V?$allocator@D@2@@std@@UShortFuncInfo@@Ustring_iless@@V?$allocator@UShortFuncInfo@@@2@@2@Ustring_iless@@V?$allocator@UShortFuncInfo@@@2@@std@@QBEAAU?$pair@$$CBV?$basic_string@DU?$char_traits@D@std@@V?$allocator@D@2@@std@@UShortFuncInfo@@@2@XZ 004bcac0 f i ShortcutKey.obj
 0001:000bbaf0       ??Eiterator@?$_Tree@V?$basic_string@DU?$char_traits@D@std@@V?$allocator@D@2@@std@@U?$pair@$$CBV?$basic_string@DU?$char_traits@D@std@@V?$allocator@D@2@@std@@UShortFuncInfo@@@2@U_Kfn@?$map@V?$basic_string@DU?$char_traits@D@std@@V?$allocator@D@2@@std@@UShortFuncInfo@@Ustring_iless@@V?$allocator@UShortFuncInfo@@@2@@2@Ustring_iless@@V?$allocator@UShortFuncInfo@@@2@@std@@QAEAAV012@XZ 004bcaf0 f i ShortcutKey.obj
 0001:000bbb20       ?insert@?$map@V?$basic_string@DU?$char_traits@D@std@@V?$allocator@D@2@@std@@U?$pair@KK@2@Ustring_iless@@V?$allocator@U?$pair@KK@std@@@2@@std@@QAE?AU?$pair@Viterator@?$_Tree@V?$basic_string@DU?$char_traits@D@std@@V?$allocator@D@2@@std@@U?$pair@$$CBV?$basic_string@DU?$char_traits@D@std@@V?$allocator@D@2@@std@@U?$pair@KK@2@@2@U_Kfn@?$map@V?$basic_string@DU?$char_traits@D@std@@V?$allocator@D@2@@std@@U?$pair@KK@2@Ustring_iless@@V?$allocator@U?$pair@KK@std@@@2@@2@Ustring_iless@@V?$allocator@U?$pair@KK@std@@@2@@std@@_N@2@ABU?$pair@$$CBV?$basic_string@DU?$char_traits@D@std@@V?$allocator@D@2@@std@@U?$pair@KK@2@@2@@Z 004bcb20 f i ShortcutKey.obj
 0001:000bbb90       ?_Value@?$_Tree@V?$basic_string@DU?$char_traits@D@std@@V?$allocator@D@2@@std@@U?$pair@$$CBV?$basic_string@DU?$char_traits@D@std@@V?$allocator@D@2@@std@@U?$pair@KK@2@@2@U_Kfn@?$map@V?$basic_string@DU?$char_traits@D@std@@V?$allocator@D@2@@std@@U?$pair@KK@2@Ustring_iless@@V?$allocator@U?$pair@KK@std@@@2@@2@Ustring_iless@@V?$allocator@U?$pair@KK@std@@@2@@std@@KAAAU?$pair@$$CBV?$basic_string@DU?$char_traits@D@std@@V?$allocator@D@2@@std@@U?$pair@KK@2@@2@PAU_Node@12@@Z 004bcb90 f i ShortcutKey.obj
 0001:000bbba0       ??0?$_Tree@V?$basic_string@DU?$char_traits@D@std@@V?$allocator@D@2@@std@@U?$pair@$$CBV?$basic_string@DU?$char_traits@D@std@@V?$allocator@D@2@@std@@U?$pair@KK@2@@2@U_Kfn@?$map@V?$basic_string@DU?$char_traits@D@std@@V?$allocator@D@2@@std@@U?$pair@KK@2@Ustring_iless@@V?$allocator@U?$pair@KK@std@@@2@@2@Ustring_iless@@V?$allocator@U?$pair@KK@std@@@2@@std@@QAE@ABUstring_iless@@_NABV?$allocator@U?$pair@KK@std@@@1@@Z 004bcba0 f i ShortcutKey.obj
 0001:000bbbf0       ?begin@?$_Tree@V?$basic_string@DU?$char_traits@D@std@@V?$allocator@D@2@@std@@U?$pair@$$CBV?$basic_string@DU?$char_traits@D@std@@V?$allocator@D@2@@std@@U?$pair@KK@2@@2@U_Kfn@?$map@V?$basic_string@DU?$char_traits@D@std@@V?$allocator@D@2@@std@@U?$pair@KK@2@Ustring_iless@@V?$allocator@U?$pair@KK@std@@@2@@2@Ustring_iless@@V?$allocator@U?$pair@KK@std@@@2@@std@@QAE?AViterator@12@XZ 004bcbf0 f i ShortcutKey.obj
 0001:000bbc40       ?end@?$_Tree@V?$basic_string@DU?$char_traits@D@std@@V?$allocator@D@2@@std@@U?$pair@$$CBV?$basic_string@DU?$char_traits@D@std@@V?$allocator@D@2@@std@@U?$pair@KK@2@@2@U_Kfn@?$map@V?$basic_string@DU?$char_traits@D@std@@V?$allocator@D@2@@std@@U?$pair@KK@2@Ustring_iless@@V?$allocator@U?$pair@KK@std@@@2@@2@Ustring_iless@@V?$allocator@U?$pair@KK@std@@@2@@std@@QAE?AViterator@12@XZ 004bcc40 f i ShortcutKey.obj
 0001:000bbc80       ?end@?$_Tree@V?$basic_string@DU?$char_traits@D@std@@V?$allocator@D@2@@std@@U?$pair@$$CBV?$basic_string@DU?$char_traits@D@std@@V?$allocator@D@2@@std@@U?$pair@KK@2@@2@U_Kfn@?$map@V?$basic_string@DU?$char_traits@D@std@@V?$allocator@D@2@@std@@U?$pair@KK@2@Ustring_iless@@V?$allocator@U?$pair@KK@std@@@2@@2@Ustring_iless@@V?$allocator@U?$pair@KK@std@@@2@@std@@QBE?AVconst_iterator@12@XZ 004bcc80 f i ShortcutKey.obj
 0001:000bbcc0       ?erase@?$_Tree@V?$basic_string@DU?$char_traits@D@std@@V?$allocator@D@2@@std@@U?$pair@$$CBV?$basic_string@DU?$char_traits@D@std@@V?$allocator@D@2@@std@@U?$pair@KK@2@@2@U_Kfn@?$map@V?$basic_string@DU?$char_traits@D@std@@V?$allocator@D@2@@std@@U?$pair@KK@2@Ustring_iless@@V?$allocator@U?$pair@KK@std@@@2@@2@Ustring_iless@@V?$allocator@U?$pair@KK@std@@@2@@std@@QAE?AViterator@12@V312@0@Z 004bccc0 f i ShortcutKey.obj
 0001:000bbe40       ?find@?$_Tree@V?$basic_string@DU?$char_traits@D@std@@V?$allocator@D@2@@std@@U?$pair@$$CBV?$basic_string@DU?$char_traits@D@std@@V?$allocator@D@2@@std@@U?$pair@KK@2@@2@U_Kfn@?$map@V?$basic_string@DU?$char_traits@D@std@@V?$allocator@D@2@@std@@U?$pair@KK@2@Ustring_iless@@V?$allocator@U?$pair@KK@std@@@2@@2@Ustring_iless@@V?$allocator@U?$pair@KK@std@@@2@@std@@QBE?AVconst_iterator@12@ABV?$basic_string@DU?$char_traits@D@std@@V?$allocator@D@2@@2@@Z 004bce40 f i ShortcutKey.obj
 0001:000bbf00       ?_Init@?$_Tree@V?$basic_string@DU?$char_traits@D@std@@V?$allocator@D@2@@std@@U?$pair@$$CBV?$basic_string@DU?$char_traits@D@std@@V?$allocator@D@2@@std@@U?$pair@KK@2@@2@U_Kfn@?$map@V?$basic_string@DU?$char_traits@D@std@@V?$allocator@D@2@@std@@U?$pair@KK@2@Ustring_iless@@V?$allocator@U?$pair@KK@std@@@2@@2@Ustring_iless@@V?$allocator@U?$pair@KK@std@@@2@@std@@IAEXXZ 004bcf00 f i ShortcutKey.obj
 0001:000bc010       ?_Freenode@?$_Tree@V?$basic_string@DU?$char_traits@D@std@@V?$allocator@D@2@@std@@U?$pair@$$CBV?$basic_string@DU?$char_traits@D@std@@V?$allocator@D@2@@std@@U?$pair@KK@2@@2@U_Kfn@?$map@V?$basic_string@DU?$char_traits@D@std@@V?$allocator@D@2@@std@@U?$pair@KK@2@Ustring_iless@@V?$allocator@U?$pair@KK@std@@@2@@2@Ustring_iless@@V?$allocator@U?$pair@KK@std@@@2@@std@@IAEXPAU_Node@12@@Z 004bd010 f i ShortcutKey.obj
 0001:000bc040       ??0?$pair@$$CBV?$basic_string@DU?$char_traits@D@std@@V?$allocator@D@2@@std@@U?$pair@KK@2@@std@@QAE@ABV?$basic_string@DU?$char_traits@D@std@@V?$allocator@D@2@@1@ABU?$pair@KK@1@@Z 004bd040 f i ShortcutKey.obj
 0001:000bc090       ??0?$pair@KK@std@@QAE@XZ   004bd090 f i ShortcutKey.obj
 0001:000bc0c0       ??Diterator@?$_Tree@V?$basic_string@DU?$char_traits@D@std@@V?$allocator@D@2@@std@@U?$pair@$$CBV?$basic_string@DU?$char_traits@D@std@@V?$allocator@D@2@@std@@U?$pair@KK@2@@2@U_Kfn@?$map@V?$basic_string@DU?$char_traits@D@std@@V?$allocator@D@2@@std@@U?$pair@KK@2@Ustring_iless@@V?$allocator@U?$pair@KK@std@@@2@@2@Ustring_iless@@V?$allocator@U?$pair@KK@std@@@2@@std@@QBEAAU?$pair@$$CBV?$basic_string@DU?$char_traits@D@std@@V?$allocator@D@2@@std@@U?$pair@KK@2@@2@XZ 004bd0c0 f i ShortcutKey.obj
 0001:000bc0f0       ??0ShortFuncInfo@@QAE@ABU0@@Z 004bd0f0 f i ShortcutKey.obj
 0001:000bc180       ??0?$list@V?$basic_string@DU?$char_traits@D@std@@V?$allocator@D@2@@std@@V?$allocator@V?$basic_string@DU?$char_traits@D@std@@V?$allocator@D@2@@std@@@2@@std@@QAE@ABV01@@Z 004bd180 f i ShortcutKey.obj
 0001:000bc210       ?deallocate@?$allocator@UShortFuncInfo@@@std@@QAEXPAXI@Z 004bd210 f i ShortcutKey.obj
 0001:000bc240       ?size@?$_Tree@V?$basic_string@DU?$char_traits@D@std@@V?$allocator@D@2@@std@@U?$pair@$$CBV?$basic_string@DU?$char_traits@D@std@@V?$allocator@D@2@@std@@UShortFuncInfo@@@2@U_Kfn@?$map@V?$basic_string@DU?$char_traits@D@std@@V?$allocator@D@2@@std@@UShortFuncInfo@@Ustring_iless@@V?$allocator@UShortFuncInfo@@@2@@2@Ustring_iless@@V?$allocator@UShortFuncInfo@@@2@@std@@QBEIXZ 004bd240 f i ShortcutKey.obj
 0001:000bc260       ?insert@?$_Tree@V?$basic_string@DU?$char_traits@D@std@@V?$allocator@D@2@@std@@U?$pair@$$CBV?$basic_string@DU?$char_traits@D@std@@V?$allocator@D@2@@std@@UShortFuncInfo@@@2@U_Kfn@?$map@V?$basic_string@DU?$char_traits@D@std@@V?$allocator@D@2@@std@@UShortFuncInfo@@Ustring_iless@@V?$allocator@UShortFuncInfo@@@2@@2@Ustring_iless@@V?$allocator@UShortFuncInfo@@@2@@std@@QAE?AU?$pair@Viterator@?$_Tree@V?$basic_string@DU?$char_traits@D@std@@V?$allocator@D@2@@std@@U?$pair@$$CBV?$basic_string@DU?$char_traits@D@std@@V?$allocator@D@2@@std@@UShortFuncInfo@@@2@U_Kfn@?$map@V?$basic_string@DU?$char_traits@D@std@@V?$allocator@D@2@@std@@UShortFuncInfo@@Ustring_iless@@V?$allocator@UShortFuncInfo@@@2@@2@Ustring_iless@@V?$allocator@UShortFuncInfo@@@2@@std@@_N@2@ABU?$pair@$$CBV?$basic_string@DU?$char_traits@D@std@@V?$allocator@D@2@@std@@UShortFuncInfo@@@2@@Z 004bd260 f i ShortcutKey.obj
 0001:000bc4d0       ?erase@?$_Tree@V?$basic_string@DU?$char_traits@D@std@@V?$allocator@D@2@@std@@U?$pair@$$CBV?$basic_string@DU?$char_traits@D@std@@V?$allocator@D@2@@std@@UShortFuncInfo@@@2@U_Kfn@?$map@V?$basic_string@DU?$char_traits@D@std@@V?$allocator@D@2@@std@@UShortFuncInfo@@Ustring_iless@@V?$allocator@UShortFuncInfo@@@2@@2@Ustring_iless@@V?$allocator@UShortFuncInfo@@@2@@std@@QAE?AViterator@12@V312@@Z 004bd4d0 f i ShortcutKey.obj
 0001:000bcd60       ?_Erase@?$_Tree@V?$basic_string@DU?$char_traits@D@std@@V?$allocator@D@2@@std@@U?$pair@$$CBV?$basic_string@DU?$char_traits@D@std@@V?$allocator@D@2@@std@@UShortFuncInfo@@@2@U_Kfn@?$map@V?$basic_string@DU?$char_traits@D@std@@V?$allocator@D@2@@std@@UShortFuncInfo@@Ustring_iless@@V?$allocator@UShortFuncInfo@@@2@@2@Ustring_iless@@V?$allocator@UShortFuncInfo@@@2@@std@@IAEXPAU_Node@12@@Z 004bdd60 f i ShortcutKey.obj
 0001:000bce50       ?_Init@?$_Tree@V?$basic_string@DU?$char_traits@D@std@@V?$allocator@D@2@@std@@U?$pair@$$CBV?$basic_string@DU?$char_traits@D@std@@V?$allocator@D@2@@std@@UShortFuncInfo@@@2@U_Kfn@?$map@V?$basic_string@DU?$char_traits@D@std@@V?$allocator@D@2@@std@@UShortFuncInfo@@Ustring_iless@@V?$allocator@UShortFuncInfo@@@2@@2@Ustring_iless@@V?$allocator@UShortFuncInfo@@@2@@std@@IAEXXZ 004bde50 f i ShortcutKey.obj
 0001:000bcf60       ?_Lmost@?$_Tree@V?$basic_string@DU?$char_traits@D@std@@V?$allocator@D@2@@std@@U?$pair@$$CBV?$basic_string@DU?$char_traits@D@std@@V?$allocator@D@2@@std@@UShortFuncInfo@@@2@U_Kfn@?$map@V?$basic_string@DU?$char_traits@D@std@@V?$allocator@D@2@@std@@UShortFuncInfo@@Ustring_iless@@V?$allocator@UShortFuncInfo@@@2@@2@Ustring_iless@@V?$allocator@UShortFuncInfo@@@2@@std@@IAEAAPAU_Node@12@XZ 004bdf60 f i ShortcutKey.obj
 0001:000bcf90       ?_Rmost@?$_Tree@V?$basic_string@DU?$char_traits@D@std@@V?$allocator@D@2@@std@@U?$pair@$$CBV?$basic_string@DU?$char_traits@D@std@@V?$allocator@D@2@@std@@UShortFuncInfo@@@2@U_Kfn@?$map@V?$basic_string@DU?$char_traits@D@std@@V?$allocator@D@2@@std@@UShortFuncInfo@@Ustring_iless@@V?$allocator@UShortFuncInfo@@@2@@2@Ustring_iless@@V?$allocator@UShortFuncInfo@@@2@@std@@IAEAAPAU_Node@12@XZ 004bdf90 f i ShortcutKey.obj
 0001:000bcfc0       ?_Root@?$_Tree@V?$basic_string@DU?$char_traits@D@std@@V?$allocator@D@2@@std@@U?$pair@$$CBV?$basic_string@DU?$char_traits@D@std@@V?$allocator@D@2@@std@@UShortFuncInfo@@@2@U_Kfn@?$map@V?$basic_string@DU?$char_traits@D@std@@V?$allocator@D@2@@std@@UShortFuncInfo@@Ustring_iless@@V?$allocator@UShortFuncInfo@@@2@@2@Ustring_iless@@V?$allocator@UShortFuncInfo@@@2@@std@@IAEAAPAU_Node@12@XZ 004bdfc0 f i ShortcutKey.obj
 0001:000bcff0       ?_Inc@const_iterator@?$_Tree@V?$basic_string@DU?$char_traits@D@std@@V?$allocator@D@2@@std@@U?$pair@$$CBV?$basic_string@DU?$char_traits@D@std@@V?$allocator@D@2@@std@@UShortFuncInfo@@@2@U_Kfn@?$map@V?$basic_string@DU?$char_traits@D@std@@V?$allocator@D@2@@std@@UShortFuncInfo@@Ustring_iless@@V?$allocator@UShortFuncInfo@@@2@@2@Ustring_iless@@V?$allocator@UShortFuncInfo@@@2@@std@@QAEXXZ 004bdff0 f i ShortcutKey.obj
 0001:000bd100       ?deallocate@?$allocator@U?$pair@KK@std@@@std@@QAEXPAXI@Z 004be100 f i ShortcutKey.obj
 0001:000bd130       ?_Key@?$_Tree@V?$basic_string@DU?$char_traits@D@std@@V?$allocator@D@2@@std@@U?$pair@$$CBV?$basic_string@DU?$char_traits@D@std@@V?$allocator@D@2@@std@@U?$pair@KK@2@@2@U_Kfn@?$map@V?$basic_string@DU?$char_traits@D@std@@V?$allocator@D@2@@std@@U?$pair@KK@2@Ustring_iless@@V?$allocator@U?$pair@KK@std@@@2@@2@Ustring_iless@@V?$allocator@U?$pair@KK@std@@@2@@std@@KAABV?$basic_string@DU?$char_traits@D@std@@V?$allocator@D@2@@2@PAU_Node@12@@Z 004be130 f i ShortcutKey.obj
 0001:000bd160       ?_Left@?$_Tree@V?$basic_string@DU?$char_traits@D@std@@V?$allocator@D@2@@std@@U?$pair@$$CBV?$basic_string@DU?$char_traits@D@std@@V?$allocator@D@2@@std@@U?$pair@KK@2@@2@U_Kfn@?$map@V?$basic_string@DU?$char_traits@D@std@@V?$allocator@D@2@@std@@U?$pair@KK@2@Ustring_iless@@V?$allocator@U?$pair@KK@std@@@2@@2@Ustring_iless@@V?$allocator@U?$pair@KK@std@@@2@@std@@KAAAPAU_Node@12@PAU312@@Z 004be160 f i ShortcutKey.obj
 0001:000bd170       ?_Right@?$_Tree@V?$basic_string@DU?$char_traits@D@std@@V?$allocator@D@2@@std@@U?$pair@$$CBV?$basic_string@DU?$char_traits@D@std@@V?$allocator@D@2@@std@@U?$pair@KK@2@@2@U_Kfn@?$map@V?$basic_string@DU?$char_traits@D@std@@V?$allocator@D@2@@std@@U?$pair@KK@2@Ustring_iless@@V?$allocator@U?$pair@KK@std@@@2@@2@Ustring_iless@@V?$allocator@U?$pair@KK@std@@@2@@std@@KAAAPAU_Node@12@PAU312@@Z 004be170 f i ShortcutKey.obj
 0001:000bd180       ?size@?$_Tree@V?$basic_string@DU?$char_traits@D@std@@V?$allocator@D@2@@std@@U?$pair@$$CBV?$basic_string@DU?$char_traits@D@std@@V?$allocator@D@2@@std@@U?$pair@KK@2@@2@U_Kfn@?$map@V?$basic_string@DU?$char_traits@D@std@@V?$allocator@D@2@@std@@U?$pair@KK@2@Ustring_iless@@V?$allocator@U?$pair@KK@std@@@2@@2@Ustring_iless@@V?$allocator@U?$pair@KK@std@@@2@@std@@QBEIXZ 004be180 f i ShortcutKey.obj
 0001:000bd1a0       ?insert@?$_Tree@V?$basic_string@DU?$char_traits@D@std@@V?$allocator@D@2@@std@@U?$pair@$$CBV?$basic_string@DU?$char_traits@D@std@@V?$allocator@D@2@@std@@U?$pair@KK@2@@2@U_Kfn@?$map@V?$basic_string@DU?$char_traits@D@std@@V?$allocator@D@2@@std@@U?$pair@KK@2@Ustring_iless@@V?$allocator@U?$pair@KK@std@@@2@@2@Ustring_iless@@V?$allocator@U?$pair@KK@std@@@2@@std@@QAE?AU?$pair@Viterator@?$_Tree@V?$basic_string@DU?$char_traits@D@std@@V?$allocator@D@2@@std@@U?$pair@$$CBV?$basic_string@DU?$char_traits@D@std@@V?$allocator@D@2@@std@@U?$pair@KK@2@@2@U_Kfn@?$map@V?$basic_string@DU?$char_traits@D@std@@V?$allocator@D@2@@std@@U?$pair@KK@2@Ustring_iless@@V?$allocator@U?$pair@KK@std@@@2@@2@Ustring_iless@@V?$allocator@U?$pair@KK@std@@@2@@std@@_N@2@ABU?$pair@$$CBV?$basic_string@DU?$char_traits@D@std@@V?$allocator@D@2@@std@@U?$pair@KK@2@@2@@Z 004be1a0 f i ShortcutKey.obj
 0001:000bd410       ?erase@?$_Tree@V?$basic_string@DU?$char_traits@D@std@@V?$allocator@D@2@@std@@U?$pair@$$CBV?$basic_string@DU?$char_traits@D@std@@V?$allocator@D@2@@std@@U?$pair@KK@2@@2@U_Kfn@?$map@V?$basic_string@DU?$char_traits@D@std@@V?$allocator@D@2@@std@@U?$pair@KK@2@Ustring_iless@@V?$allocator@U?$pair@KK@std@@@2@@2@Ustring_iless@@V?$allocator@U?$pair@KK@std@@@2@@std@@QAE?AViterator@12@V312@@Z 004be410 f i ShortcutKey.obj
 0001:000bdca0       ?lower_bound@?$_Tree@V?$basic_string@DU?$char_traits@D@std@@V?$allocator@D@2@@std@@U?$pair@$$CBV?$basic_string@DU?$char_traits@D@std@@V?$allocator@D@2@@std@@U?$pair@KK@2@@2@U_Kfn@?$map@V?$basic_string@DU?$char_traits@D@std@@V?$allocator@D@2@@std@@U?$pair@KK@2@Ustring_iless@@V?$allocator@U?$pair@KK@std@@@2@@2@Ustring_iless@@V?$allocator@U?$pair@KK@std@@@2@@std@@QBE?AVconst_iterator@12@ABV?$basic_string@DU?$char_traits@D@std@@V?$allocator@D@2@@2@@Z 004beca0 f i ShortcutKey.obj
 0001:000bdcf0       ?_Erase@?$_Tree@V?$basic_string@DU?$char_traits@D@std@@V?$allocator@D@2@@std@@U?$pair@$$CBV?$basic_string@DU?$char_traits@D@std@@V?$allocator@D@2@@std@@U?$pair@KK@2@@2@U_Kfn@?$map@V?$basic_string@DU?$char_traits@D@std@@V?$allocator@D@2@@std@@U?$pair@KK@2@Ustring_iless@@V?$allocator@U?$pair@KK@std@@@2@@2@Ustring_iless@@V?$allocator@U?$pair@KK@std@@@2@@std@@IAEXPAU_Node@12@@Z 004becf0 f i ShortcutKey.obj
 0001:000bdde0       ?_Lmost@?$_Tree@V?$basic_string@DU?$char_traits@D@std@@V?$allocator@D@2@@std@@U?$pair@$$CBV?$basic_string@DU?$char_traits@D@std@@V?$allocator@D@2@@std@@U?$pair@KK@2@@2@U_Kfn@?$map@V?$basic_string@DU?$char_traits@D@std@@V?$allocator@D@2@@std@@U?$pair@KK@2@Ustring_iless@@V?$allocator@U?$pair@KK@std@@@2@@2@Ustring_iless@@V?$allocator@U?$pair@KK@std@@@2@@std@@IAEAAPAU_Node@12@XZ 004bede0 f i ShortcutKey.obj
 0001:000bde10       ?_Max@?$_Tree@V?$basic_string@DU?$char_traits@D@std@@V?$allocator@D@2@@std@@U?$pair@$$CBV?$basic_string@DU?$char_traits@D@std@@V?$allocator@D@2@@std@@U?$pair@KK@2@@2@U_Kfn@?$map@V?$basic_string@DU?$char_traits@D@std@@V?$allocator@D@2@@std@@U?$pair@KK@2@Ustring_iless@@V?$allocator@U?$pair@KK@std@@@2@@2@Ustring_iless@@V?$allocator@U?$pair@KK@std@@@2@@std@@KAPAU_Node@12@PAU312@@Z 004bee10 f i ShortcutKey.obj
 0001:000bdec0       ?_Min@?$_Tree@V?$basic_string@DU?$char_traits@D@std@@V?$allocator@D@2@@std@@U?$pair@$$CBV?$basic_string@DU?$char_traits@D@std@@V?$allocator@D@2@@std@@U?$pair@KK@2@@2@U_Kfn@?$map@V?$basic_string@DU?$char_traits@D@std@@V?$allocator@D@2@@std@@U?$pair@KK@2@Ustring_iless@@V?$allocator@U?$pair@KK@std@@@2@@2@Ustring_iless@@V?$allocator@U?$pair@KK@std@@@2@@std@@KAPAU_Node@12@PAU312@@Z 004beec0 f i ShortcutKey.obj
 0001:000bdf70       ?_Rmost@?$_Tree@V?$basic_string@DU?$char_traits@D@std@@V?$allocator@D@2@@std@@U?$pair@$$CBV?$basic_string@DU?$char_traits@D@std@@V?$allocator@D@2@@std@@U?$pair@KK@2@@2@U_Kfn@?$map@V?$basic_string@DU?$char_traits@D@std@@V?$allocator@D@2@@std@@U?$pair@KK@2@Ustring_iless@@V?$allocator@U?$pair@KK@std@@@2@@2@Ustring_iless@@V?$allocator@U?$pair@KK@std@@@2@@std@@IAEAAPAU_Node@12@XZ 004bef70 f i ShortcutKey.obj
 0001:000bdfa0       ?_Root@?$_Tree@V?$basic_string@DU?$char_traits@D@std@@V?$allocator@D@2@@std@@U?$pair@$$CBV?$basic_string@DU?$char_traits@D@std@@V?$allocator@D@2@@std@@U?$pair@KK@2@@2@U_Kfn@?$map@V?$basic_string@DU?$char_traits@D@std@@V?$allocator@D@2@@std@@U?$pair@KK@2@Ustring_iless@@V?$allocator@U?$pair@KK@std@@@2@@2@Ustring_iless@@V?$allocator@U?$pair@KK@std@@@2@@std@@IAEAAPAU_Node@12@XZ 004befa0 f i ShortcutKey.obj
 0001:000bdfd0       ?_Buynode@?$_Tree@V?$basic_string@DU?$char_traits@D@std@@V?$allocator@D@2@@std@@U?$pair@$$CBV?$basic_string@DU?$char_traits@D@std@@V?$allocator@D@2@@std@@U?$pair@KK@2@@2@U_Kfn@?$map@V?$basic_string@DU?$char_traits@D@std@@V?$allocator@D@2@@std@@U?$pair@KK@2@Ustring_iless@@V?$allocator@U?$pair@KK@std@@@2@@2@Ustring_iless@@V?$allocator@U?$pair@KK@std@@@2@@std@@IAEPAU_Node@12@PAU312@W4_Redbl@12@@Z 004befd0 f i ShortcutKey.obj
 0001:000be030       ??0const_iterator@?$_Tree@V?$basic_string@DU?$char_traits@D@std@@V?$allocator@D@2@@std@@U?$pair@$$CBV?$basic_string@DU?$char_traits@D@std@@V?$allocator@D@2@@std@@U?$pair@KK@2@@2@U_Kfn@?$map@V?$basic_string@DU?$char_traits@D@std@@V?$allocator@D@2@@std@@U?$pair@KK@2@Ustring_iless@@V?$allocator@U?$pair@KK@std@@@2@@2@Ustring_iless@@V?$allocator@U?$pair@KK@std@@@2@@std@@QAE@PAU_Node@12@@Z 004bf030 f i ShortcutKey.obj
 0001:000be050       ?_Mynode@const_iterator@?$_Tree@V?$basic_string@DU?$char_traits@D@std@@V?$allocator@D@2@@std@@U?$pair@$$CBV?$basic_string@DU?$char_traits@D@std@@V?$allocator@D@2@@std@@U?$pair@KK@2@@2@U_Kfn@?$map@V?$basic_string@DU?$char_traits@D@std@@V?$allocator@D@2@@std@@U?$pair@KK@2@Ustring_iless@@V?$allocator@U?$pair@KK@std@@@2@@2@Ustring_iless@@V?$allocator@U?$pair@KK@std@@@2@@std@@QBEPAU_Node@23@XZ 004bf050 f i ShortcutKey.obj
 0001:000be070       ??0iterator@?$_Tree@V?$basic_string@DU?$char_traits@D@std@@V?$allocator@D@2@@std@@U?$pair@$$CBV?$basic_string@DU?$char_traits@D@std@@V?$allocator@D@2@@std@@U?$pair@KK@2@@2@U_Kfn@?$map@V?$basic_string@DU?$char_traits@D@std@@V?$allocator@D@2@@std@@U?$pair@KK@2@Ustring_iless@@V?$allocator@U?$pair@KK@std@@@2@@2@Ustring_iless@@V?$allocator@U?$pair@KK@std@@@2@@std@@QAE@PAU_Node@12@@Z 004bf070 f i ShortcutKey.obj
 0001:000be0a0       ??Eiterator@?$_Tree@V?$basic_string@DU?$char_traits@D@std@@V?$allocator@D@2@@std@@U?$pair@$$CBV?$basic_string@DU?$char_traits@D@std@@V?$allocator@D@2@@std@@U?$pair@KK@2@@2@U_Kfn@?$map@V?$basic_string@DU?$char_traits@D@std@@V?$allocator@D@2@@std@@U?$pair@KK@2@Ustring_iless@@V?$allocator@U?$pair@KK@std@@@2@@2@Ustring_iless@@V?$allocator@U?$pair@KK@std@@@2@@std@@QAE?AV012@H@Z 004bf0a0 f i ShortcutKey.obj
 0001:000be0f0       ??9iterator@?$_Tree@V?$basic_string@DU?$char_traits@D@std@@V?$allocator@D@2@@std@@U?$pair@$$CBV?$basic_string@DU?$char_traits@D@std@@V?$allocator@D@2@@std@@U?$pair@KK@2@@2@U_Kfn@?$map@V?$basic_string@DU?$char_traits@D@std@@V?$allocator@D@2@@std@@U?$pair@KK@2@Ustring_iless@@V?$allocator@U?$pair@KK@std@@@2@@2@Ustring_iless@@V?$allocator@U?$pair@KK@std@@@2@@std@@QBE_NABV012@@Z 004bf0f0 f i ShortcutKey.obj
 0001:000be130       ??0?$pair@Viterator@?$_Tree@V?$basic_string@DU?$char_traits@D@std@@V?$allocator@D@2@@std@@U?$pair@$$CBV?$basic_string@DU?$char_traits@D@std@@V?$allocator@D@2@@std@@UShortFuncInfo@@@2@U_Kfn@?$map@V?$basic_string@DU?$char_traits@D@std@@V?$allocator@D@2@@std@@UShortFuncInfo@@Ustring_iless@@V?$allocator@UShortFuncInfo@@@2@@2@Ustring_iless@@V?$allocator@UShortFuncInfo@@@2@@std@@_N@std@@QAE@ABViterator@?$_Tree@V?$basic_string@DU?$char_traits@D@std@@V?$allocator@D@2@@std@@U?$pair@$$CBV?$basic_string@DU?$char_traits@D@std@@V?$allocator@D@2@@std@@UShortFuncInfo@@@2@U_Kfn@?$map@V?$basic_string@DU?$char_traits@D@std@@V?$allocator@D@2@@std@@UShortFuncInfo@@Ustring_iless@@V?$allocator@UShortFuncInfo@@@2@@2@Ustring_iless@@V?$allocator@UShortFuncInfo@@@2@@1@AB_N@Z 004bf130 f i ShortcutKey.obj
 0001:000be160       ??0?$pair@Viterator@?$_Tree@V?$basic_string@DU?$char_traits@D@std@@V?$allocator@D@2@@std@@U?$pair@$$CBV?$basic_string@DU?$char_traits@D@std@@V?$allocator@D@2@@std@@U?$pair@KK@2@@2@U_Kfn@?$map@V?$basic_string@DU?$char_traits@D@std@@V?$allocator@D@2@@std@@U?$pair@KK@2@Ustring_iless@@V?$allocator@U?$pair@KK@std@@@2@@2@Ustring_iless@@V?$allocator@U?$pair@KK@std@@@2@@std@@_N@std@@QAE@ABViterator@?$_Tree@V?$basic_string@DU?$char_traits@D@std@@V?$allocator@D@2@@std@@U?$pair@$$CBV?$basic_string@DU?$char_traits@D@std@@V?$allocator@D@2@@std@@U?$pair@KK@2@@2@U_Kfn@?$map@V?$basic_string@DU?$char_traits@D@std@@V?$allocator@D@2@@std@@U?$pair@KK@2@Ustring_iless@@V?$allocator@U?$pair@KK@std@@@2@@2@Ustring_iless@@V?$allocator@U?$pair@KK@std@@@2@@1@AB_N@Z 004bf160 f i ShortcutKey.obj
 0001:000be190       ?_Color@?$_Tree@V?$basic_string@DU?$char_traits@D@std@@V?$allocator@D@2@@std@@U?$pair@$$CBV?$basic_string@DU?$char_traits@D@std@@V?$allocator@D@2@@std@@UShortFuncInfo@@@2@U_Kfn@?$map@V?$basic_string@DU?$char_traits@D@std@@V?$allocator@D@2@@std@@UShortFuncInfo@@Ustring_iless@@V?$allocator@UShortFuncInfo@@@2@@2@Ustring_iless@@V?$allocator@UShortFuncInfo@@@2@@std@@KAAAW4_Redbl@12@PAU_Node@12@@Z 004bf190 f i ShortcutKey.obj
 0001:000be1a0       ?_Insert@?$_Tree@V?$basic_string@DU?$char_traits@D@std@@V?$allocator@D@2@@std@@U?$pair@$$CBV?$basic_string@DU?$char_traits@D@std@@V?$allocator@D@2@@std@@UShortFuncInfo@@@2@U_Kfn@?$map@V?$basic_string@DU?$char_traits@D@std@@V?$allocator@D@2@@std@@UShortFuncInfo@@Ustring_iless@@V?$allocator@UShortFuncInfo@@@2@@2@Ustring_iless@@V?$allocator@UShortFuncInfo@@@2@@std@@IAE?AViterator@12@PAU_Node@12@0ABU?$pair@$$CBV?$basic_string@DU?$char_traits@D@std@@V?$allocator@D@2@@std@@UShortFuncInfo@@@2@@Z 004bf1a0 f i ShortcutKey.obj
 0001:000be6a0       ?_Lrotate@?$_Tree@V?$basic_string@DU?$char_traits@D@std@@V?$allocator@D@2@@std@@U?$pair@$$CBV?$basic_string@DU?$char_traits@D@std@@V?$allocator@D@2@@std@@UShortFuncInfo@@@2@U_Kfn@?$map@V?$basic_string@DU?$char_traits@D@std@@V?$allocator@D@2@@std@@UShortFuncInfo@@Ustring_iless@@V?$allocator@UShortFuncInfo@@@2@@2@Ustring_iless@@V?$allocator@UShortFuncInfo@@@2@@std@@IAEXPAU_Node@12@@Z 004bf6a0 f i ShortcutKey.obj
 0001:000be840       ?_Max@?$_Tree@V?$basic_string@DU?$char_traits@D@std@@V?$allocator@D@2@@std@@U?$pair@$$CBV?$basic_string@DU?$char_traits@D@std@@V?$allocator@D@2@@std@@UShortFuncInfo@@@2@U_Kfn@?$map@V?$basic_string@DU?$char_traits@D@std@@V?$allocator@D@2@@std@@UShortFuncInfo@@Ustring_iless@@V?$allocator@UShortFuncInfo@@@2@@2@Ustring_iless@@V?$allocator@UShortFuncInfo@@@2@@std@@KAPAU_Node@12@PAU312@@Z 004bf840 f i ShortcutKey.obj
 0001:000be8f0       ?_Min@?$_Tree@V?$basic_string@DU?$char_traits@D@std@@V?$allocator@D@2@@std@@U?$pair@$$CBV?$basic_string@DU?$char_traits@D@std@@V?$allocator@D@2@@std@@UShortFuncInfo@@@2@U_Kfn@?$map@V?$basic_string@DU?$char_traits@D@std@@V?$allocator@D@2@@std@@UShortFuncInfo@@Ustring_iless@@V?$allocator@UShortFuncInfo@@@2@@2@Ustring_iless@@V?$allocator@UShortFuncInfo@@@2@@std@@KAPAU_Node@12@PAU312@@Z 004bf8f0 f i ShortcutKey.obj
 0001:000be9a0       ?_Rrotate@?$_Tree@V?$basic_string@DU?$char_traits@D@std@@V?$allocator@D@2@@std@@U?$pair@$$CBV?$basic_string@DU?$char_traits@D@std@@V?$allocator@D@2@@std@@UShortFuncInfo@@@2@U_Kfn@?$map@V?$basic_string@DU?$char_traits@D@std@@V?$allocator@D@2@@std@@UShortFuncInfo@@Ustring_iless@@V?$allocator@UShortFuncInfo@@@2@@2@Ustring_iless@@V?$allocator@UShortFuncInfo@@@2@@std@@IAEXPAU_Node@12@@Z 004bf9a0 f i ShortcutKey.obj
 0001:000beb40       ?_Buynode@?$_Tree@V?$basic_string@DU?$char_traits@D@std@@V?$allocator@D@2@@std@@U?$pair@$$CBV?$basic_string@DU?$char_traits@D@std@@V?$allocator@D@2@@std@@UShortFuncInfo@@@2@U_Kfn@?$map@V?$basic_string@DU?$char_traits@D@std@@V?$allocator@D@2@@std@@UShortFuncInfo@@Ustring_iless@@V?$allocator@UShortFuncInfo@@@2@@2@Ustring_iless@@V?$allocator@UShortFuncInfo@@@2@@std@@IAEPAU_Node@12@PAU312@W4_Redbl@12@@Z 004bfb40 f i ShortcutKey.obj
 0001:000beba0       ?_Destval@?$_Tree@V?$basic_string@DU?$char_traits@D@std@@V?$allocator@D@2@@std@@U?$pair@$$CBV?$basic_string@DU?$char_traits@D@std@@V?$allocator@D@2@@std@@UShortFuncInfo@@@2@U_Kfn@?$map@V?$basic_string@DU?$char_traits@D@std@@V?$allocator@D@2@@std@@UShortFuncInfo@@Ustring_iless@@V?$allocator@UShortFuncInfo@@@2@@2@Ustring_iless@@V?$allocator@UShortFuncInfo@@@2@@std@@IAEXPAU?$pair@$$CBV?$basic_string@DU?$char_traits@D@std@@V?$allocator@D@2@@std@@UShortFuncInfo@@@2@@Z 004bfba0 f i ShortcutKey.obj
 0001:000bebd0       ??Fiterator@?$_Tree@V?$basic_string@DU?$char_traits@D@std@@V?$allocator@D@2@@std@@U?$pair@$$CBV?$basic_string@DU?$char_traits@D@std@@V?$allocator@D@2@@std@@UShortFuncInfo@@@2@U_Kfn@?$map@V?$basic_string@DU?$char_traits@D@std@@V?$allocator@D@2@@std@@UShortFuncInfo@@Ustring_iless@@V?$allocator@UShortFuncInfo@@@2@@2@Ustring_iless@@V?$allocator@UShortFuncInfo@@@2@@std@@QAEAAV012@XZ 004bfbd0 f i ShortcutKey.obj
 0001:000bec00       ??R_Kfn@?$map@V?$basic_string@DU?$char_traits@D@std@@V?$allocator@D@2@@std@@U?$pair@KK@2@Ustring_iless@@V?$allocator@U?$pair@KK@std@@@2@@std@@QBEABV?$basic_string@DU?$char_traits@D@std@@V?$allocator@D@2@@2@ABU?$pair@$$CBV?$basic_string@DU?$char_traits@D@std@@V?$allocator@D@2@@std@@U?$pair@KK@2@@2@@Z 004bfc00 f i ShortcutKey.obj
 0001:000bec20       ?_Charalloc@?$allocator@U?$pair@KK@std@@@std@@QAEPADI@Z 004bfc20 f i ShortcutKey.obj
 0001:000bec50       ?_Color@?$_Tree@V?$basic_string@DU?$char_traits@D@std@@V?$allocator@D@2@@std@@U?$pair@$$CBV?$basic_string@DU?$char_traits@D@std@@V?$allocator@D@2@@std@@U?$pair@KK@2@@2@U_Kfn@?$map@V?$basic_string@DU?$char_traits@D@std@@V?$allocator@D@2@@std@@U?$pair@KK@2@Ustring_iless@@V?$allocator@U?$pair@KK@std@@@2@@2@Ustring_iless@@V?$allocator@U?$pair@KK@std@@@2@@std@@KAAAW4_Redbl@12@PAU_Node@12@@Z 004bfc50 f i ShortcutKey.obj
 0001:000bec60       ?_Parent@?$_Tree@V?$basic_string@DU?$char_traits@D@std@@V?$allocator@D@2@@std@@U?$pair@$$CBV?$basic_string@DU?$char_traits@D@std@@V?$allocator@D@2@@std@@U?$pair@KK@2@@2@U_Kfn@?$map@V?$basic_string@DU?$char_traits@D@std@@V?$allocator@D@2@@std@@U?$pair@KK@2@Ustring_iless@@V?$allocator@U?$pair@KK@std@@@2@@2@Ustring_iless@@V?$allocator@U?$pair@KK@std@@@2@@std@@KAAAPAU_Node@12@PAU312@@Z 004bfc60 f i ShortcutKey.obj
 0001:000bec70       ?_Insert@?$_Tree@V?$basic_string@DU?$char_traits@D@std@@V?$allocator@D@2@@std@@U?$pair@$$CBV?$basic_string@DU?$char_traits@D@std@@V?$allocator@D@2@@std@@U?$pair@KK@2@@2@U_Kfn@?$map@V?$basic_string@DU?$char_traits@D@std@@V?$allocator@D@2@@std@@U?$pair@KK@2@Ustring_iless@@V?$allocator@U?$pair@KK@std@@@2@@2@Ustring_iless@@V?$allocator@U?$pair@KK@std@@@2@@std@@IAE?AViterator@12@PAU_Node@12@0ABU?$pair@$$CBV?$basic_string@DU?$char_traits@D@std@@V?$allocator@D@2@@std@@U?$pair@KK@2@@2@@Z 004bfc70 f i ShortcutKey.obj
 0001:000bf170       ?_Lbound@?$_Tree@V?$basic_string@DU?$char_traits@D@std@@V?$allocator@D@2@@std@@U?$pair@$$CBV?$basic_string@DU?$char_traits@D@std@@V?$allocator@D@2@@std@@U?$pair@KK@2@@2@U_Kfn@?$map@V?$basic_string@DU?$char_traits@D@std@@V?$allocator@D@2@@std@@U?$pair@KK@2@Ustring_iless@@V?$allocator@U?$pair@KK@std@@@2@@2@Ustring_iless@@V?$allocator@U?$pair@KK@std@@@2@@std@@IBEPAU_Node@12@ABV?$basic_string@DU?$char_traits@D@std@@V?$allocator@D@2@@2@@Z 004c0170 f i ShortcutKey.obj
 0001:000bf270       ?_Root@?$_Tree@V?$basic_string@DU?$char_traits@D@std@@V?$allocator@D@2@@std@@U?$pair@$$CBV?$basic_string@DU?$char_traits@D@std@@V?$allocator@D@2@@std@@U?$pair@KK@2@@2@U_Kfn@?$map@V?$basic_string@DU?$char_traits@D@std@@V?$allocator@D@2@@std@@U?$pair@KK@2@Ustring_iless@@V?$allocator@U?$pair@KK@std@@@2@@2@Ustring_iless@@V?$allocator@U?$pair@KK@std@@@2@@std@@IBEAAPAU_Node@12@XZ 004c0270 f i ShortcutKey.obj
 0001:000bf2a0       ?_Lrotate@?$_Tree@V?$basic_string@DU?$char_traits@D@std@@V?$allocator@D@2@@std@@U?$pair@$$CBV?$basic_string@DU?$char_traits@D@std@@V?$allocator@D@2@@std@@U?$pair@KK@2@@2@U_Kfn@?$map@V?$basic_string@DU?$char_traits@D@std@@V?$allocator@D@2@@std@@U?$pair@KK@2@Ustring_iless@@V?$allocator@U?$pair@KK@std@@@2@@2@Ustring_iless@@V?$allocator@U?$pair@KK@std@@@2@@std@@IAEXPAU_Node@12@@Z 004c02a0 f i ShortcutKey.obj
 0001:000bf440       ?_Rrotate@?$_Tree@V?$basic_string@DU?$char_traits@D@std@@V?$allocator@D@2@@std@@U?$pair@$$CBV?$basic_string@DU?$char_traits@D@std@@V?$allocator@D@2@@std@@U?$pair@KK@2@@2@U_Kfn@?$map@V?$basic_string@DU?$char_traits@D@std@@V?$allocator@D@2@@std@@U?$pair@KK@2@Ustring_iless@@V?$allocator@U?$pair@KK@std@@@2@@2@Ustring_iless@@V?$allocator@U?$pair@KK@std@@@2@@std@@IAEXPAU_Node@12@@Z 004c0440 f i ShortcutKey.obj
 0001:000bf5e0       ?_Consval@?$_Tree@V?$basic_string@DU?$char_traits@D@std@@V?$allocator@D@2@@std@@U?$pair@$$CBV?$basic_string@DU?$char_traits@D@std@@V?$allocator@D@2@@std@@U?$pair@KK@2@@2@U_Kfn@?$map@V?$basic_string@DU?$char_traits@D@std@@V?$allocator@D@2@@std@@U?$pair@KK@2@Ustring_iless@@V?$allocator@U?$pair@KK@std@@@2@@2@Ustring_iless@@V?$allocator@U?$pair@KK@std@@@2@@std@@IAEXPAU?$pair@$$CBV?$basic_string@DU?$char_traits@D@std@@V?$allocator@D@2@@std@@U?$pair@KK@2@@2@ABU32@@Z 004c05e0 f i ShortcutKey.obj
 0001:000bf610       ?_Destval@?$_Tree@V?$basic_string@DU?$char_traits@D@std@@V?$allocator@D@2@@std@@U?$pair@$$CBV?$basic_string@DU?$char_traits@D@std@@V?$allocator@D@2@@std@@U?$pair@KK@2@@2@U_Kfn@?$map@V?$basic_string@DU?$char_traits@D@std@@V?$allocator@D@2@@std@@U?$pair@KK@2@Ustring_iless@@V?$allocator@U?$pair@KK@std@@@2@@2@Ustring_iless@@V?$allocator@U?$pair@KK@std@@@2@@std@@IAEXPAU?$pair@$$CBV?$basic_string@DU?$char_traits@D@std@@V?$allocator@D@2@@std@@U?$pair@KK@2@@2@@Z 004c0610 f i ShortcutKey.obj
 0001:000bf640       ??Eiterator@?$_Tree@V?$basic_string@DU?$char_traits@D@std@@V?$allocator@D@2@@std@@U?$pair@$$CBV?$basic_string@DU?$char_traits@D@std@@V?$allocator@D@2@@std@@U?$pair@KK@2@@2@U_Kfn@?$map@V?$basic_string@DU?$char_traits@D@std@@V?$allocator@D@2@@std@@U?$pair@KK@2@Ustring_iless@@V?$allocator@U?$pair@KK@std@@@2@@2@Ustring_iless@@V?$allocator@U?$pair@KK@std@@@2@@std@@QAEAAV012@XZ 004c0640 f i ShortcutKey.obj
 0001:000bf670       ??Fiterator@?$_Tree@V?$basic_string@DU?$char_traits@D@std@@V?$allocator@D@2@@std@@U?$pair@$$CBV?$basic_string@DU?$char_traits@D@std@@V?$allocator@D@2@@std@@U?$pair@KK@2@@2@U_Kfn@?$map@V?$basic_string@DU?$char_traits@D@std@@V?$allocator@D@2@@std@@U?$pair@KK@2@Ustring_iless@@V?$allocator@U?$pair@KK@std@@@2@@2@Ustring_iless@@V?$allocator@U?$pair@KK@std@@@2@@std@@QAEAAV012@XZ 004c0670 f i ShortcutKey.obj
 0001:000bf6a0       ??8iterator@?$_Tree@V?$basic_string@DU?$char_traits@D@std@@V?$allocator@D@2@@std@@U?$pair@$$CBV?$basic_string@DU?$char_traits@D@std@@V?$allocator@D@2@@std@@U?$pair@KK@2@@2@U_Kfn@?$map@V?$basic_string@DU?$char_traits@D@std@@V?$allocator@D@2@@std@@U?$pair@KK@2@Ustring_iless@@V?$allocator@U?$pair@KK@std@@@2@@2@Ustring_iless@@V?$allocator@U?$pair@KK@std@@@2@@std@@QBE_NABV012@@Z 004c06a0 f i ShortcutKey.obj
 0001:000bf6d0       ?_Charalloc@?$allocator@UShortFuncInfo@@@std@@QAEPADI@Z 004c06d0 f i ShortcutKey.obj
 0001:000bf700       ?_Consval@?$_Tree@V?$basic_string@DU?$char_traits@D@std@@V?$allocator@D@2@@std@@U?$pair@$$CBV?$basic_string@DU?$char_traits@D@std@@V?$allocator@D@2@@std@@UShortFuncInfo@@@2@U_Kfn@?$map@V?$basic_string@DU?$char_traits@D@std@@V?$allocator@D@2@@std@@UShortFuncInfo@@Ustring_iless@@V?$allocator@UShortFuncInfo@@@2@@2@Ustring_iless@@V?$allocator@UShortFuncInfo@@@2@@std@@IAEXPAU?$pair@$$CBV?$basic_string@DU?$char_traits@D@std@@V?$allocator@D@2@@std@@UShortFuncInfo@@@2@ABU32@@Z 004c0700 f i ShortcutKey.obj
 0001:000bf730       ?_Dec@const_iterator@?$_Tree@V?$basic_string@DU?$char_traits@D@std@@V?$allocator@D@2@@std@@U?$pair@$$CBV?$basic_string@DU?$char_traits@D@std@@V?$allocator@D@2@@std@@UShortFuncInfo@@@2@U_Kfn@?$map@V?$basic_string@DU?$char_traits@D@std@@V?$allocator@D@2@@std@@UShortFuncInfo@@Ustring_iless@@V?$allocator@UShortFuncInfo@@@2@@2@Ustring_iless@@V?$allocator@UShortFuncInfo@@@2@@std@@QAEXXZ 004c0730 f i ShortcutKey.obj
 0001:000bf870       ?_Dec@const_iterator@?$_Tree@V?$basic_string@DU?$char_traits@D@std@@V?$allocator@D@2@@std@@U?$pair@$$CBV?$basic_string@DU?$char_traits@D@std@@V?$allocator@D@2@@std@@U?$pair@KK@2@@2@U_Kfn@?$map@V?$basic_string@DU?$char_traits@D@std@@V?$allocator@D@2@@std@@U?$pair@KK@2@Ustring_iless@@V?$allocator@U?$pair@KK@std@@@2@@2@Ustring_iless@@V?$allocator@U?$pair@KK@std@@@2@@std@@QAEXXZ 004c0870 f i ShortcutKey.obj
 0001:000bf9b0       ?_Inc@const_iterator@?$_Tree@V?$basic_string@DU?$char_traits@D@std@@V?$allocator@D@2@@std@@U?$pair@$$CBV?$basic_string@DU?$char_traits@D@std@@V?$allocator@D@2@@std@@U?$pair@KK@2@@2@U_Kfn@?$map@V?$basic_string@DU?$char_traits@D@std@@V?$allocator@D@2@@std@@U?$pair@KK@2@Ustring_iless@@V?$allocator@U?$pair@KK@std@@@2@@2@Ustring_iless@@V?$allocator@U?$pair@KK@std@@@2@@std@@QAEXXZ 004c09b0 f i ShortcutKey.obj
 0001:000bfac0       ?make_pair@std@@YA?AU?$pair@KK@1@ABK0@Z 004c0ac0 f i ShortcutKey.obj
 0001:000bfb10       ?swap@std@@YAXAAW4_Redbl@?$_Tree@V?$basic_string@DU?$char_traits@D@std@@V?$allocator@D@2@@std@@U?$pair@$$CBV?$basic_string@DU?$char_traits@D@std@@V?$allocator@D@2@@std@@UShortFuncInfo@@@2@U_Kfn@?$map@V?$basic_string@DU?$char_traits@D@std@@V?$allocator@D@2@@std@@UShortFuncInfo@@Ustring_iless@@V?$allocator@UShortFuncInfo@@@2@@2@Ustring_iless@@V?$allocator@UShortFuncInfo@@@2@@1@0@Z 004c0b10 f i ShortcutKey.obj
 0001:000bfb40       ?swap@std@@YAXAAW4_Redbl@?$_Tree@V?$basic_string@DU?$char_traits@D@std@@V?$allocator@D@2@@std@@U?$pair@$$CBV?$basic_string@DU?$char_traits@D@std@@V?$allocator@D@2@@std@@U?$pair@KK@2@@2@U_Kfn@?$map@V?$basic_string@DU?$char_traits@D@std@@V?$allocator@D@2@@std@@U?$pair@KK@2@Ustring_iless@@V?$allocator@U?$pair@KK@std@@@2@@2@Ustring_iless@@V?$allocator@U?$pair@KK@std@@@2@@1@0@Z 004c0b40 f i ShortcutKey.obj
 0001:000bfb70       ?_Destroy@std@@YAXPAU?$pair@$$CBV?$basic_string@DU?$char_traits@D@std@@V?$allocator@D@2@@std@@UShortFuncInfo@@@1@@Z 004c0b70 f i ShortcutKey.obj
 0001:000bfb90       ?_Construct@std@@YAXPAU?$pair@$$CBV?$basic_string@DU?$char_traits@D@std@@V?$allocator@D@2@@std@@U?$pair@KK@2@@1@ABU21@@Z 004c0b90 f i ShortcutKey.obj
 0001:000bfc20       ?_Destroy@std@@YAXPAU?$pair@$$CBV?$basic_string@DU?$char_traits@D@std@@V?$allocator@D@2@@std@@U?$pair@KK@2@@1@@Z 004c0c20 f i ShortcutKey.obj
 0001:000bfc40       ?_Construct@std@@YAXPAU?$pair@$$CBV?$basic_string@DU?$char_traits@D@std@@V?$allocator@D@2@@std@@UShortFuncInfo@@@1@ABU21@@Z 004c0c40 f i ShortcutKey.obj
 0001:000bfcd0       ??_G?$pair@$$CBV?$basic_string@DU?$char_traits@D@std@@V?$allocator@D@2@@std@@UShortFuncInfo@@@std@@QAEPAXI@Z 004c0cd0 f i ShortcutKey.obj
 0001:000bfd10       ??0?$pair@$$CBV?$basic_string@DU?$char_traits@D@std@@V?$allocator@D@2@@std@@U?$pair@KK@2@@std@@QAE@ABU01@@Z 004c0d10 f i ShortcutKey.obj
 0001:000bfd60       ??_G?$pair@$$CBV?$basic_string@DU?$char_traits@D@std@@V?$allocator@D@2@@std@@U?$pair@KK@2@@std@@QAEPAXI@Z 004c0d60 f i ShortcutKey.obj
 0001:000bfda0       ??0?$pair@$$CBV?$basic_string@DU?$char_traits@D@std@@V?$allocator@D@2@@std@@UShortFuncInfo@@@std@@QAE@ABU01@@Z 004c0da0 f i ShortcutKey.obj
 0001:000bfe20       ??0?$pair@KK@std@@QAE@ABK0@Z 004c0e20 f i ShortcutKey.obj
 0001:000bfeab       ??0KUiBase@@QAE@XZ         004c0eab f   UiBase.obj
 0001:000bff1f       ??1KUiBase@@QAE@XZ         004c0f1f f   UiBase.obj
 0001:000bff46       ?Exit@KUiBase@@QAEXXZ      004c0f46 f   UiBase.obj
 0001:000bff85       ?GetUserTempDataFolder@KUiBase@@QAEPBDXZ 004c0f85 f   UiBase.obj
 0001:000bff9c       ?CleanTempDataFolder@KUiBase@@QAEXXZ 004c0f9c f   UiBase.obj
 0001:000bffc7       ?ClearFolder@KUiBase@@AAEXPBD_N@Z 004c0fc7 f   UiBase.obj
 0001:000c0138       ?Init@KUiBase@@QAEHXZ      004c1138 f   UiBase.obj
 0001:000c02da       ?SetUserAccount@KUiBase@@QAEXPAD0@Z 004c12da f   UiBase.obj
 0001:000c03b5       ?CleanPrivateDataFolder@KUiBase@@QAEXXZ 004c13b5 f   UiBase.obj
 0001:000c0428       ?DeletePrivateDataFile@KUiBase@@QAEXPBD@Z 004c1428 f   UiBase.obj
 0001:000c04f2       ?LoadPrivateConfig@KUiBase@@QAEXXZ 004c14f2 f   UiBase.obj
 0001:000c05d2       ?SavePrivateConfig@KUiBase@@QAEHXZ 004c15d2 f   UiBase.obj
 0001:000c06bf       ?GetUserPrivateDataFolder@KUiBase@@QAEHPADH@Z 004c16bf f   UiBase.obj
 0001:000c0769       ?LoadScheme@KUiBase@@QAEHPBD@Z 004c1769 f   UiBase.obj
 0001:000c0c31       ?LoadSchemeForEachWnd@KUiBase@@AAEXXZ 004c1c31 f   UiBase.obj
 0001:000c0dbf       ?GetSchemePath@KUiBase@@AAEHPBD@Z 004c1dbf f   UiBase.obj
 0001:000c0fe9       ?SchemeCount@KUiBase@@QAEHXZ 004c1fe9 f   UiBase.obj
 0001:000c1069       ?GetScheme@KUiBase@@QAEHHPAD0@Z 004c2069 f   UiBase.obj
 0001:000c120b       ?GetCurSchemePath@KUiBase@@QAEHPADH@Z 004c220b f   UiBase.obj
 0001:000c1262       ?GetCommSettingFile@KUiBase@@QAEPAVKIniFile@@XZ 004c2262 f   UiBase.obj
 0001:000c132b       ?CloseCommSettingFile@KUiBase@@QAEX_N@Z 004c232b f   UiBase.obj
 0001:000c13bc       ?GetCommConfigFile@KUiBase@@QAEPAVKIniFile@@XZ 004c23bc f   UiBase.obj
 0001:000c14cb       ?CloseCommConfigFile@KUiBase@@QAEXXZ 004c24cb f   UiBase.obj
 0001:000c1531       ?GetPrivateSettingFile@KUiBase@@QAEPAVKIniFile@@XZ 004c2531 f   UiBase.obj
 0001:000c1679       ?ClosePrivateSettingFile@KUiBase@@QAEX_N@Z 004c2679 f   UiBase.obj
 0001:000c17b0       ?GetAutoSettingFile@KUiBase@@QAEPAVKIniFile@@XZ 004c27b0 f   UiBase.obj
 0001:000c18f8       ?CloseAutoSettingFile@KUiBase@@QAEX_N@Z 004c28f8 f   UiBase.obj
 0001:000c1a2f       ?SetStatus@KUiBase@@QAEXW4UISYS_STATUS@@@Z 004c2a2f f   UiBase.obj
 0001:000c1a7d       ?SetCurrentCursor@KUiBase@@QAEXXZ 004c2a7d f   UiBase.obj
 0001:000c1b40       ?IsOperationEnable@KUiBase@@QAEHW4UISYS_OPERATION@@@Z 004c2b40 f   UiBase.obj
 0001:000c1bca       ?RegisterEvent@KUiBase@@QAEXPBDPAX@Z 004c2bca f   UiBase.obj
 0001:000c1ce3       ?UnregisterEvent@KUiBase@@QAEXPBDPAX@Z 004c2ce3 f   UiBase.obj
 0001:000c1dd1       ?NotifyOneEvent@KUiBase@@QAEHPBD0@Z 004c2dd1 f   UiBase.obj
 0001:000c1f1f       ?NotifyEvent@KUiBase@@QAEHPBD@Z 004c2f1f f   UiBase.obj
 0001:000c2029       ?CreateUnit@AddinNotify@@UAEHPBD@Z 004c3029 f   UiBase.obj
 0001:000c20ad       ?DeleteUnit@AddinNotify@@UAEHPBD@Z 004c30ad f   UiBase.obj
 0001:000c2131       ?CreateUnitGroup@AddinNotify@@UAEHPBD0@Z 004c3131 f   UiBase.obj
 0001:000c21bf       ?RenameUnitGroup@AddinNotify@@UAEHPBD00ABV?$list@V?$basic_string@DU?$char_traits@D@std@@V?$allocator@D@2@@std@@V?$allocator@V?$basic_string@DU?$char_traits@D@std@@V?$allocator@D@2@@std@@@2@@std@@@Z 004c31bf f   UiBase.obj
 0001:000c225a       ?DeleteUnitGroup@AddinNotify@@UAEHPBD0ABV?$list@V?$basic_string@DU?$char_traits@D@std@@V?$allocator@D@2@@std@@V?$allocator@V?$basic_string@DU?$char_traits@D@std@@V?$allocator@D@2@@std@@@2@@std@@@Z 004c325a f   UiBase.obj
 0001:000c22eb       ?MoveUnitGroup@AddinNotify@@UAEHPBD00ABV?$list@V?$basic_string@DU?$char_traits@D@std@@V?$allocator@D@2@@std@@V?$allocator@V?$basic_string@DU?$char_traits@D@std@@V?$allocator@D@2@@std@@@2@@std@@@Z 004c32eb f   UiBase.obj
 0001:000c2386       ?CreateUnitMember@AddinNotify@@UAEHPBD00@Z 004c3386 f   UiBase.obj
 0001:000c241e       ?DeleteUnitMember@AddinNotify@@UAEHPBD0@Z 004c341e f   UiBase.obj
 0001:000c24ac       ?MoveUnitMember@AddinNotify@@UAEHPBD00@Z 004c34ac f   UiBase.obj
 0001:000c2544       ?SetUnitMemberStatus@AddinNotify@@UAEHPBD00@Z 004c3544 f   UiBase.obj
 0001:000c2603       ?CreateAddinUnit@@YAXPBD@Z 004c3603 f   UiBase.obj
 0001:000c2620       ?DeleteAddinUnit@@YAXPBD@Z 004c3620 f   UiBase.obj
 0001:000c2640       ??1?$map@V?$basic_string@DU?$char_traits@D@std@@V?$allocator@D@2@@std@@PAXU?$less@V?$basic_string@DU?$char_traits@D@std@@V?$allocator@D@2@@std@@@2@V?$allocator@PAX@2@@std@@QAE@XZ 004c3640 f i UiBase.obj
 0001:000c2670       ??_GKIniFile@@QAEPAXI@Z    004c3670 f i UiBase.obj
 0001:000c26c0       ??0?$map@V?$basic_string@DU?$char_traits@D@std@@V?$allocator@D@2@@std@@PAXU?$less@V?$basic_string@DU?$char_traits@D@std@@V?$allocator@D@2@@std@@@2@V?$allocator@PAX@2@@std@@QAE@ABU?$less@V?$basic_string@DU?$char_traits@D@std@@V?$allocator@D@2@@std@@@1@ABV?$allocator@PAX@1@@Z 004c36c0 f i UiBase.obj
 0001:000c2700       ?begin@?$map@V?$basic_string@DU?$char_traits@D@std@@V?$allocator@D@2@@std@@PAXU?$less@V?$basic_string@DU?$char_traits@D@std@@V?$allocator@D@2@@std@@@2@V?$allocator@PAX@2@@std@@QAE?AViterator@?$_Tree@V?$basic_string@DU?$char_traits@D@std@@V?$allocator@D@2@@std@@U?$pair@$$CBV?$basic_string@DU?$char_traits@D@std@@V?$allocator@D@2@@std@@PAX@2@U_Kfn@?$map@V?$basic_string@DU?$char_traits@D@std@@V?$allocator@D@2@@std@@PAXU?$less@V?$basic_string@DU?$char_traits@D@std@@V?$allocator@D@2@@std@@@2@V?$allocator@PAX@2@@2@U?$less@V?$basic_string@DU?$char_traits@D@std@@V?$allocator@D@2@@std@@@2@V?$allocator@PAX@2@@2@XZ 004c3700 f i UiBase.obj
 0001:000c2740       ?end@?$map@V?$basic_string@DU?$char_traits@D@std@@V?$allocator@D@2@@std@@PAXU?$less@V?$basic_string@DU?$char_traits@D@std@@V?$allocator@D@2@@std@@@2@V?$allocator@PAX@2@@std@@QAE?AViterator@?$_Tree@V?$basic_string@DU?$char_traits@D@std@@V?$allocator@D@2@@std@@U?$pair@$$CBV?$basic_string@DU?$char_traits@D@std@@V?$allocator@D@2@@std@@PAX@2@U_Kfn@?$map@V?$basic_string@DU?$char_traits@D@std@@V?$allocator@D@2@@std@@PAXU?$less@V?$basic_string@DU?$char_traits@D@std@@V?$allocator@D@2@@std@@@2@V?$allocator@PAX@2@@2@U?$less@V?$basic_string@DU?$char_traits@D@std@@V?$allocator@D@2@@std@@@2@V?$allocator@PAX@2@@2@XZ 004c3740 f i UiBase.obj
 0001:000c2780       ??A?$map@V?$basic_string@DU?$char_traits@D@std@@V?$allocator@D@2@@std@@PAXU?$less@V?$basic_string@DU?$char_traits@D@std@@V?$allocator@D@2@@std@@@2@V?$allocator@PAX@2@@std@@QAEAAPAXABV?$basic_string@DU?$char_traits@D@std@@V?$allocator@D@2@@1@@Z 004c3780 f i UiBase.obj
 0001:000c2830       ?erase@?$map@V?$basic_string@DU?$char_traits@D@std@@V?$allocator@D@2@@std@@PAXU?$less@V?$basic_string@DU?$char_traits@D@std@@V?$allocator@D@2@@std@@@2@V?$allocator@PAX@2@@std@@QAE?AViterator@?$_Tree@V?$basic_string@DU?$char_traits@D@std@@V?$allocator@D@2@@std@@U?$pair@$$CBV?$basic_string@DU?$char_traits@D@std@@V?$allocator@D@2@@std@@PAX@2@U_Kfn@?$map@V?$basic_string@DU?$char_traits@D@std@@V?$allocator@D@2@@std@@PAXU?$less@V?$basic_string@DU?$char_traits@D@std@@V?$allocator@D@2@@std@@@2@V?$allocator@PAX@2@@2@U?$less@V?$basic_string@DU?$char_traits@D@std@@V?$allocator@D@2@@std@@@2@V?$allocator@PAX@2@@2@V342@@Z 004c3830 f i UiBase.obj
 0001:000c2880       ?find@?$map@V?$basic_string@DU?$char_traits@D@std@@V?$allocator@D@2@@std@@PAXU?$less@V?$basic_string@DU?$char_traits@D@std@@V?$allocator@D@2@@std@@@2@V?$allocator@PAX@2@@std@@QAE?AViterator@?$_Tree@V?$basic_string@DU?$char_traits@D@std@@V?$allocator@D@2@@std@@U?$pair@$$CBV?$basic_string@DU?$char_traits@D@std@@V?$allocator@D@2@@std@@PAX@2@U_Kfn@?$map@V?$basic_string@DU?$char_traits@D@std@@V?$allocator@D@2@@std@@PAXU?$less@V?$basic_string@DU?$char_traits@D@std@@V?$allocator@D@2@@std@@@2@V?$allocator@PAX@2@@2@U?$less@V?$basic_string@DU?$char_traits@D@std@@V?$allocator@D@2@@std@@@2@V?$allocator@PAX@2@@2@ABV?$basic_string@DU?$char_traits@D@std@@V?$allocator@D@2@@2@@Z 004c3880 f i UiBase.obj
 0001:000c28d0       ??1?$_Tree@V?$basic_string@DU?$char_traits@D@std@@V?$allocator@D@2@@std@@U?$pair@$$CBV?$basic_string@DU?$char_traits@D@std@@V?$allocator@D@2@@std@@PAX@2@U_Kfn@?$map@V?$basic_string@DU?$char_traits@D@std@@V?$allocator@D@2@@std@@PAXU?$less@V?$basic_string@DU?$char_traits@D@std@@V?$allocator@D@2@@std@@@2@V?$allocator@PAX@2@@2@U?$less@V?$basic_string@DU?$char_traits@D@std@@V?$allocator@D@2@@std@@@2@V?$allocator@PAX@2@@std@@QAE@XZ 004c38d0 f i UiBase.obj
 0001:000c29d0       ??Citerator@?$_Tree@V?$basic_string@DU?$char_traits@D@std@@V?$allocator@D@2@@std@@U?$pair@$$CBV?$basic_string@DU?$char_traits@D@std@@V?$allocator@D@2@@std@@PAX@2@U_Kfn@?$map@V?$basic_string@DU?$char_traits@D@std@@V?$allocator@D@2@@std@@PAXU?$less@V?$basic_string@DU?$char_traits@D@std@@V?$allocator@D@2@@std@@@2@V?$allocator@PAX@2@@2@U?$less@V?$basic_string@DU?$char_traits@D@std@@V?$allocator@D@2@@std@@@2@V?$allocator@PAX@2@@std@@QBEPAU?$pair@$$CBV?$basic_string@DU?$char_traits@D@std@@V?$allocator@D@2@@std@@PAX@2@XZ 004c39d0 f i UiBase.obj
 0001:000c2a00       ??Eiterator@?$_Tree@V?$basic_string@DU?$char_traits@D@std@@V?$allocator@D@2@@std@@U?$pair@$$CBV?$basic_string@DU?$char_traits@D@std@@V?$allocator@D@2@@std@@PAX@2@U_Kfn@?$map@V?$basic_string@DU?$char_traits@D@std@@V?$allocator@D@2@@std@@PAXU?$less@V?$basic_string@DU?$char_traits@D@std@@V?$allocator@D@2@@std@@@2@V?$allocator@PAX@2@@2@U?$less@V?$basic_string@DU?$char_traits@D@std@@V?$allocator@D@2@@std@@@2@V?$allocator@PAX@2@@std@@QAE?AV012@H@Z 004c3a00 f i UiBase.obj
 0001:000c2a50       ??8iterator@?$_Tree@V?$basic_string@DU?$char_traits@D@std@@V?$allocator@D@2@@std@@U?$pair@$$CBV?$basic_string@DU?$char_traits@D@std@@V?$allocator@D@2@@std@@PAX@2@U_Kfn@?$map@V?$basic_string@DU?$char_traits@D@std@@V?$allocator@D@2@@std@@PAXU?$less@V?$basic_string@DU?$char_traits@D@std@@V?$allocator@D@2@@std@@@2@V?$allocator@PAX@2@@2@U?$less@V?$basic_string@DU?$char_traits@D@std@@V?$allocator@D@2@@std@@@2@V?$allocator@PAX@2@@std@@QBE_NABV012@@Z 004c3a50 f i UiBase.obj
 0001:000c2a80       ??9iterator@?$_Tree@V?$basic_string@DU?$char_traits@D@std@@V?$allocator@D@2@@std@@U?$pair@$$CBV?$basic_string@DU?$char_traits@D@std@@V?$allocator@D@2@@std@@PAX@2@U_Kfn@?$map@V?$basic_string@DU?$char_traits@D@std@@V?$allocator@D@2@@std@@PAXU?$less@V?$basic_string@DU?$char_traits@D@std@@V?$allocator@D@2@@std@@@2@V?$allocator@PAX@2@@2@U?$less@V?$basic_string@DU?$char_traits@D@std@@V?$allocator@D@2@@std@@@2@V?$allocator@PAX@2@@std@@QBE_NABV012@@Z 004c3a80 f i UiBase.obj
 0001:000c2ac0       ??1?$pair@$$CBV?$basic_string@DU?$char_traits@D@std@@V?$allocator@D@2@@std@@PAX@std@@QAE@XZ 004c3ac0 f i UiBase.obj
 0001:000c2af0       ?insert@?$map@V?$basic_string@DU?$char_traits@D@std@@V?$allocator@D@2@@std@@PAXU?$less@V?$basic_string@DU?$char_traits@D@std@@V?$allocator@D@2@@std@@@2@V?$allocator@PAX@2@@std@@QAE?AU?$pair@Viterator@?$_Tree@V?$basic_string@DU?$char_traits@D@std@@V?$allocator@D@2@@std@@U?$pair@$$CBV?$basic_string@DU?$char_traits@D@std@@V?$allocator@D@2@@std@@PAX@2@U_Kfn@?$map@V?$basic_string@DU?$char_traits@D@std@@V?$allocator@D@2@@std@@PAXU?$less@V?$basic_string@DU?$char_traits@D@std@@V?$allocator@D@2@@std@@@2@V?$allocator@PAX@2@@2@U?$less@V?$basic_string@DU?$char_traits@D@std@@V?$allocator@D@2@@std@@@2@V?$allocator@PAX@2@@std@@_N@2@ABU?$pair@$$CBV?$basic_string@DU?$char_traits@D@std@@V?$allocator@D@2@@std@@PAX@2@@Z 004c3af0 f i UiBase.obj
 0001:000c2b60       ??0?$_Tree@V?$basic_string@DU?$char_traits@D@std@@V?$allocator@D@2@@std@@U?$pair@$$CBV?$basic_string@DU?$char_traits@D@std@@V?$allocator@D@2@@std@@PAX@2@U_Kfn@?$map@V?$basic_string@DU?$char_traits@D@std@@V?$allocator@D@2@@std@@PAXU?$less@V?$basic_string@DU?$char_traits@D@std@@V?$allocator@D@2@@std@@@2@V?$allocator@PAX@2@@2@U?$less@V?$basic_string@DU?$char_traits@D@std@@V?$allocator@D@2@@std@@@2@V?$allocator@PAX@2@@std@@QAE@ABU?$less@V?$basic_string@DU?$char_traits@D@std@@V?$allocator@D@2@@std@@@1@_NABV?$allocator@PAX@1@@Z 004c3b60 f i UiBase.obj
 0001:000c2bb0       ?begin@?$_Tree@V?$basic_string@DU?$char_traits@D@std@@V?$allocator@D@2@@std@@U?$pair@$$CBV?$basic_string@DU?$char_traits@D@std@@V?$allocator@D@2@@std@@PAX@2@U_Kfn@?$map@V?$basic_string@DU?$char_traits@D@std@@V?$allocator@D@2@@std@@PAXU?$less@V?$basic_string@DU?$char_traits@D@std@@V?$allocator@D@2@@std@@@2@V?$allocator@PAX@2@@2@U?$less@V?$basic_string@DU?$char_traits@D@std@@V?$allocator@D@2@@std@@@2@V?$allocator@PAX@2@@std@@QAE?AViterator@12@XZ 004c3bb0 f i UiBase.obj
 0001:000c2c00       ?end@?$_Tree@V?$basic_string@DU?$char_traits@D@std@@V?$allocator@D@2@@std@@U?$pair@$$CBV?$basic_string@DU?$char_traits@D@std@@V?$allocator@D@2@@std@@PAX@2@U_Kfn@?$map@V?$basic_string@DU?$char_traits@D@std@@V?$allocator@D@2@@std@@PAXU?$less@V?$basic_string@DU?$char_traits@D@std@@V?$allocator@D@2@@std@@@2@V?$allocator@PAX@2@@2@U?$less@V?$basic_string@DU?$char_traits@D@std@@V?$allocator@D@2@@std@@@2@V?$allocator@PAX@2@@std@@QAE?AViterator@12@XZ 004c3c00 f i UiBase.obj
 0001:000c2c40       ?erase@?$_Tree@V?$basic_string@DU?$char_traits@D@std@@V?$allocator@D@2@@std@@U?$pair@$$CBV?$basic_string@DU?$char_traits@D@std@@V?$allocator@D@2@@std@@PAX@2@U_Kfn@?$map@V?$basic_string@DU?$char_traits@D@std@@V?$allocator@D@2@@std@@PAXU?$less@V?$basic_string@DU?$char_traits@D@std@@V?$allocator@D@2@@std@@@2@V?$allocator@PAX@2@@2@U?$less@V?$basic_string@DU?$char_traits@D@std@@V?$allocator@D@2@@std@@@2@V?$allocator@PAX@2@@std@@QAE?AViterator@12@V312@@Z 004c3c40 f i UiBase.obj
 0001:000c34d0       ?erase@?$_Tree@V?$basic_string@DU?$char_traits@D@std@@V?$allocator@D@2@@std@@U?$pair@$$CBV?$basic_string@DU?$char_traits@D@std@@V?$allocator@D@2@@std@@PAX@2@U_Kfn@?$map@V?$basic_string@DU?$char_traits@D@std@@V?$allocator@D@2@@std@@PAXU?$less@V?$basic_string@DU?$char_traits@D@std@@V?$allocator@D@2@@std@@@2@V?$allocator@PAX@2@@2@U?$less@V?$basic_string@DU?$char_traits@D@std@@V?$allocator@D@2@@std@@@2@V?$allocator@PAX@2@@std@@QAE?AViterator@12@V312@0@Z 004c44d0 f i UiBase.obj
 0001:000c3650       ?find@?$_Tree@V?$basic_string@DU?$char_traits@D@std@@V?$allocator@D@2@@std@@U?$pair@$$CBV?$basic_string@DU?$char_traits@D@std@@V?$allocator@D@2@@std@@PAX@2@U_Kfn@?$map@V?$basic_string@DU?$char_traits@D@std@@V?$allocator@D@2@@std@@PAXU?$less@V?$basic_string@DU?$char_traits@D@std@@V?$allocator@D@2@@std@@@2@V?$allocator@PAX@2@@2@U?$less@V?$basic_string@DU?$char_traits@D@std@@V?$allocator@D@2@@std@@@2@V?$allocator@PAX@2@@std@@QAE?AViterator@12@ABV?$basic_string@DU?$char_traits@D@std@@V?$allocator@D@2@@2@@Z 004c4650 f i UiBase.obj
 0001:000c3710       ?_Freenode@?$_Tree@V?$basic_string@DU?$char_traits@D@std@@V?$allocator@D@2@@std@@U?$pair@$$CBV?$basic_string@DU?$char_traits@D@std@@V?$allocator@D@2@@std@@PAX@2@U_Kfn@?$map@V?$basic_string@DU?$char_traits@D@std@@V?$allocator@D@2@@std@@PAXU?$less@V?$basic_string@DU?$char_traits@D@std@@V?$allocator@D@2@@std@@@2@V?$allocator@PAX@2@@2@U?$less@V?$basic_string@DU?$char_traits@D@std@@V?$allocator@D@2@@std@@@2@V?$allocator@PAX@2@@std@@IAEXPAU_Node@12@@Z 004c4710 f i UiBase.obj
 0001:000c3740       ??0?$pair@$$CBV?$basic_string@DU?$char_traits@D@std@@V?$allocator@D@2@@std@@PAX@std@@QAE@ABV?$basic_string@DU?$char_traits@D@std@@V?$allocator@D@2@@1@ABQAX@Z 004c4740 f i UiBase.obj
 0001:000c3790       ??Diterator@?$_Tree@V?$basic_string@DU?$char_traits@D@std@@V?$allocator@D@2@@std@@U?$pair@$$CBV?$basic_string@DU?$char_traits@D@std@@V?$allocator@D@2@@std@@PAX@2@U_Kfn@?$map@V?$basic_string@DU?$char_traits@D@std@@V?$allocator@D@2@@std@@PAXU?$less@V?$basic_string@DU?$char_traits@D@std@@V?$allocator@D@2@@std@@@2@V?$allocator@PAX@2@@2@U?$less@V?$basic_string@DU?$char_traits@D@std@@V?$allocator@D@2@@std@@@2@V?$allocator@PAX@2@@std@@QBEAAU?$pair@$$CBV?$basic_string@DU?$char_traits@D@std@@V?$allocator@D@2@@std@@PAX@2@XZ 004c4790 f i UiBase.obj
 0001:000c37c0       ??Eiterator@?$_Tree@V?$basic_string@DU?$char_traits@D@std@@V?$allocator@D@2@@std@@U?$pair@$$CBV?$basic_string@DU?$char_traits@D@std@@V?$allocator@D@2@@std@@PAX@2@U_Kfn@?$map@V?$basic_string@DU?$char_traits@D@std@@V?$allocator@D@2@@std@@PAXU?$less@V?$basic_string@DU?$char_traits@D@std@@V?$allocator@D@2@@std@@@2@V?$allocator@PAX@2@@2@U?$less@V?$basic_string@DU?$char_traits@D@std@@V?$allocator@D@2@@std@@@2@V?$allocator@PAX@2@@std@@QAEAAV012@XZ 004c47c0 f i UiBase.obj
 0001:000c37f0       ?deallocate@?$allocator@PAX@std@@QAEXPAXI@Z 004c47f0 f i UiBase.obj
 0001:000c3820       ?_Color@?$_Tree@V?$basic_string@DU?$char_traits@D@std@@V?$allocator@D@2@@std@@U?$pair@$$CBV?$basic_string@DU?$char_traits@D@std@@V?$allocator@D@2@@std@@PAX@2@U_Kfn@?$map@V?$basic_string@DU?$char_traits@D@std@@V?$allocator@D@2@@std@@PAXU?$less@V?$basic_string@DU?$char_traits@D@std@@V?$allocator@D@2@@std@@@2@V?$allocator@PAX@2@@2@U?$less@V?$basic_string@DU?$char_traits@D@std@@V?$allocator@D@2@@std@@@2@V?$allocator@PAX@2@@std@@KAAAW4_Redbl@12@PAU_Node@12@@Z 004c4820 f i UiBase.obj
 0001:000c3830       ?_Key@?$_Tree@V?$basic_string@DU?$char_traits@D@std@@V?$allocator@D@2@@std@@U?$pair@$$CBV?$basic_string@DU?$char_traits@D@std@@V?$allocator@D@2@@std@@PAX@2@U_Kfn@?$map@V?$basic_string@DU?$char_traits@D@std@@V?$allocator@D@2@@std@@PAXU?$less@V?$basic_string@DU?$char_traits@D@std@@V?$allocator@D@2@@std@@@2@V?$allocator@PAX@2@@2@U?$less@V?$basic_string@DU?$char_traits@D@std@@V?$allocator@D@2@@std@@@2@V?$allocator@PAX@2@@std@@KAABV?$basic_string@DU?$char_traits@D@std@@V?$allocator@D@2@@2@PAU_Node@12@@Z 004c4830 f i UiBase.obj
 0001:000c3860       ?_Left@?$_Tree@V?$basic_string@DU?$char_traits@D@std@@V?$allocator@D@2@@std@@U?$pair@$$CBV?$basic_string@DU?$char_traits@D@std@@V?$allocator@D@2@@std@@PAX@2@U_Kfn@?$map@V?$basic_string@DU?$char_traits@D@std@@V?$allocator@D@2@@std@@PAXU?$less@V?$basic_string@DU?$char_traits@D@std@@V?$allocator@D@2@@std@@@2@V?$allocator@PAX@2@@2@U?$less@V?$basic_string@DU?$char_traits@D@std@@V?$allocator@D@2@@std@@@2@V?$allocator@PAX@2@@std@@KAAAPAU_Node@12@PAU312@@Z 004c4860 f i UiBase.obj
 0001:000c3870       ?_Parent@?$_Tree@V?$basic_string@DU?$char_traits@D@std@@V?$allocator@D@2@@std@@U?$pair@$$CBV?$basic_string@DU?$char_traits@D@std@@V?$allocator@D@2@@std@@PAX@2@U_Kfn@?$map@V?$basic_string@DU?$char_traits@D@std@@V?$allocator@D@2@@std@@PAXU?$less@V?$basic_string@DU?$char_traits@D@std@@V?$allocator@D@2@@std@@@2@V?$allocator@PAX@2@@2@U?$less@V?$basic_string@DU?$char_traits@D@std@@V?$allocator@D@2@@std@@@2@V?$allocator@PAX@2@@std@@KAAAPAU_Node@12@PAU312@@Z 004c4870 f i UiBase.obj
 0001:000c3880       ?_Right@?$_Tree@V?$basic_string@DU?$char_traits@D@std@@V?$allocator@D@2@@std@@U?$pair@$$CBV?$basic_string@DU?$char_traits@D@std@@V?$allocator@D@2@@std@@PAX@2@U_Kfn@?$map@V?$basic_string@DU?$char_traits@D@std@@V?$allocator@D@2@@std@@PAXU?$less@V?$basic_string@DU?$char_traits@D@std@@V?$allocator@D@2@@std@@@2@V?$allocator@PAX@2@@2@U?$less@V?$basic_string@DU?$char_traits@D@std@@V?$allocator@D@2@@std@@@2@V?$allocator@PAX@2@@std@@KAAAPAU_Node@12@PAU312@@Z 004c4880 f i UiBase.obj
 0001:000c3890       ?_Value@?$_Tree@V?$basic_string@DU?$char_traits@D@std@@V?$allocator@D@2@@std@@U?$pair@$$CBV?$basic_string@DU?$char_traits@D@std@@V?$allocator@D@2@@std@@PAX@2@U_Kfn@?$map@V?$basic_string@DU?$char_traits@D@std@@V?$allocator@D@2@@std@@PAXU?$less@V?$basic_string@DU?$char_traits@D@std@@V?$allocator@D@2@@std@@@2@V?$allocator@PAX@2@@2@U?$less@V?$basic_string@DU?$char_traits@D@std@@V?$allocator@D@2@@std@@@2@V?$allocator@PAX@2@@std@@KAAAU?$pair@$$CBV?$basic_string@DU?$char_traits@D@std@@V?$allocator@D@2@@std@@PAX@2@PAU_Node@12@@Z 004c4890 f i UiBase.obj
 0001:000c38a0       ?size@?$_Tree@V?$basic_string@DU?$char_traits@D@std@@V?$allocator@D@2@@std@@U?$pair@$$CBV?$basic_string@DU?$char_traits@D@std@@V?$allocator@D@2@@std@@PAX@2@U_Kfn@?$map@V?$basic_string@DU?$char_traits@D@std@@V?$allocator@D@2@@std@@PAXU?$less@V?$basic_string@DU?$char_traits@D@std@@V?$allocator@D@2@@std@@@2@V?$allocator@PAX@2@@2@U?$less@V?$basic_string@DU?$char_traits@D@std@@V?$allocator@D@2@@std@@@2@V?$allocator@PAX@2@@std@@QBEIXZ 004c48a0 f i UiBase.obj
 0001:000c38c0       ?insert@?$_Tree@V?$basic_string@DU?$char_traits@D@std@@V?$allocator@D@2@@std@@U?$pair@$$CBV?$basic_string@DU?$char_traits@D@std@@V?$allocator@D@2@@std@@PAX@2@U_Kfn@?$map@V?$basic_string@DU?$char_traits@D@std@@V?$allocator@D@2@@std@@PAXU?$less@V?$basic_string@DU?$char_traits@D@std@@V?$allocator@D@2@@std@@@2@V?$allocator@PAX@2@@2@U?$less@V?$basic_string@DU?$char_traits@D@std@@V?$allocator@D@2@@std@@@2@V?$allocator@PAX@2@@std@@QAE?AU?$pair@Viterator@?$_Tree@V?$basic_string@DU?$char_traits@D@std@@V?$allocator@D@2@@std@@U?$pair@$$CBV?$basic_string@DU?$char_traits@D@std@@V?$allocator@D@2@@std@@PAX@2@U_Kfn@?$map@V?$basic_string@DU?$char_traits@D@std@@V?$allocator@D@2@@std@@PAXU?$less@V?$basic_string@DU?$char_traits@D@std@@V?$allocator@D@2@@std@@@2@V?$allocator@PAX@2@@2@U?$less@V?$basic_string@DU?$char_traits@D@std@@V?$allocator@D@2@@std@@@2@V?$allocator@PAX@2@@std@@_N@2@ABU?$pair@$$CBV?$basic_string@DU?$char_traits@D@std@@V?$allocator@D@2@@std@@PAX@2@@Z 004c48c0 f i UiBase.obj
 0001:000c3b30       ?lower_bound@?$_Tree@V?$basic_string@DU?$char_traits@D@std@@V?$allocator@D@2@@std@@U?$pair@$$CBV?$basic_string@DU?$char_traits@D@std@@V?$allocator@D@2@@std@@PAX@2@U_Kfn@?$map@V?$basic_string@DU?$char_traits@D@std@@V?$allocator@D@2@@std@@PAXU?$less@V?$basic_string@DU?$char_traits@D@std@@V?$allocator@D@2@@std@@@2@V?$allocator@PAX@2@@2@U?$less@V?$basic_string@DU?$char_traits@D@std@@V?$allocator@D@2@@std@@@2@V?$allocator@PAX@2@@std@@QAE?AViterator@12@ABV?$basic_string@DU?$char_traits@D@std@@V?$allocator@D@2@@2@@Z 004c4b30 f i UiBase.obj
 0001:000c3b80       ?_Erase@?$_Tree@V?$basic_string@DU?$char_traits@D@std@@V?$allocator@D@2@@std@@U?$pair@$$CBV?$basic_string@DU?$char_traits@D@std@@V?$allocator@D@2@@std@@PAX@2@U_Kfn@?$map@V?$basic_string@DU?$char_traits@D@std@@V?$allocator@D@2@@std@@PAXU?$less@V?$basic_string@DU?$char_traits@D@std@@V?$allocator@D@2@@std@@@2@V?$allocator@PAX@2@@2@U?$less@V?$basic_string@DU?$char_traits@D@std@@V?$allocator@D@2@@std@@@2@V?$allocator@PAX@2@@std@@IAEXPAU_Node@12@@Z 004c4b80 f i UiBase.obj
 0001:000c3c70       ?_Init@?$_Tree@V?$basic_string@DU?$char_traits@D@std@@V?$allocator@D@2@@std@@U?$pair@$$CBV?$basic_string@DU?$char_traits@D@std@@V?$allocator@D@2@@std@@PAX@2@U_Kfn@?$map@V?$basic_string@DU?$char_traits@D@std@@V?$allocator@D@2@@std@@PAXU?$less@V?$basic_string@DU?$char_traits@D@std@@V?$allocator@D@2@@std@@@2@V?$allocator@PAX@2@@2@U?$less@V?$basic_string@DU?$char_traits@D@std@@V?$allocator@D@2@@std@@@2@V?$allocator@PAX@2@@std@@IAEXXZ 004c4c70 f i UiBase.obj
 0001:000c3d80       ?_Lmost@?$_Tree@V?$basic_string@DU?$char_traits@D@std@@V?$allocator@D@2@@std@@U?$pair@$$CBV?$basic_string@DU?$char_traits@D@std@@V?$allocator@D@2@@std@@PAX@2@U_Kfn@?$map@V?$basic_string@DU?$char_traits@D@std@@V?$allocator@D@2@@std@@PAXU?$less@V?$basic_string@DU?$char_traits@D@std@@V?$allocator@D@2@@std@@@2@V?$allocator@PAX@2@@2@U?$less@V?$basic_string@DU?$char_traits@D@std@@V?$allocator@D@2@@std@@@2@V?$allocator@PAX@2@@std@@IAEAAPAU_Node@12@XZ 004c4d80 f i UiBase.obj
 0001:000c3db0       ?_Lrotate@?$_Tree@V?$basic_string@DU?$char_traits@D@std@@V?$allocator@D@2@@std@@U?$pair@$$CBV?$basic_string@DU?$char_traits@D@std@@V?$allocator@D@2@@std@@PAX@2@U_Kfn@?$map@V?$basic_string@DU?$char_traits@D@std@@V?$allocator@D@2@@std@@PAXU?$less@V?$basic_string@DU?$char_traits@D@std@@V?$allocator@D@2@@std@@@2@V?$allocator@PAX@2@@2@U?$less@V?$basic_string@DU?$char_traits@D@std@@V?$allocator@D@2@@std@@@2@V?$allocator@PAX@2@@std@@IAEXPAU_Node@12@@Z 004c4db0 f i UiBase.obj
 0001:000c3f50       ?_Max@?$_Tree@V?$basic_string@DU?$char_traits@D@std@@V?$allocator@D@2@@std@@U?$pair@$$CBV?$basic_string@DU?$char_traits@D@std@@V?$allocator@D@2@@std@@PAX@2@U_Kfn@?$map@V?$basic_string@DU?$char_traits@D@std@@V?$allocator@D@2@@std@@PAXU?$less@V?$basic_string@DU?$char_traits@D@std@@V?$allocator@D@2@@std@@@2@V?$allocator@PAX@2@@2@U?$less@V?$basic_string@DU?$char_traits@D@std@@V?$allocator@D@2@@std@@@2@V?$allocator@PAX@2@@std@@KAPAU_Node@12@PAU312@@Z 004c4f50 f i UiBase.obj
 0001:000c4000       ?_Min@?$_Tree@V?$basic_string@DU?$char_traits@D@std@@V?$allocator@D@2@@std@@U?$pair@$$CBV?$basic_string@DU?$char_traits@D@std@@V?$allocator@D@2@@std@@PAX@2@U_Kfn@?$map@V?$basic_string@DU?$char_traits@D@std@@V?$allocator@D@2@@std@@PAXU?$less@V?$basic_string@DU?$char_traits@D@std@@V?$allocator@D@2@@std@@@2@V?$allocator@PAX@2@@2@U?$less@V?$basic_string@DU?$char_traits@D@std@@V?$allocator@D@2@@std@@@2@V?$allocator@PAX@2@@std@@KAPAU_Node@12@PAU312@@Z 004c5000 f i UiBase.obj
 0001:000c40b0       ?_Rmost@?$_Tree@V?$basic_string@DU?$char_traits@D@std@@V?$allocator@D@2@@std@@U?$pair@$$CBV?$basic_string@DU?$char_traits@D@std@@V?$allocator@D@2@@std@@PAX@2@U_Kfn@?$map@V?$basic_string@DU?$char_traits@D@std@@V?$allocator@D@2@@std@@PAXU?$less@V?$basic_string@DU?$char_traits@D@std@@V?$allocator@D@2@@std@@@2@V?$allocator@PAX@2@@2@U?$less@V?$basic_string@DU?$char_traits@D@std@@V?$allocator@D@2@@std@@@2@V?$allocator@PAX@2@@std@@IAEAAPAU_Node@12@XZ 004c50b0 f i UiBase.obj
 0001:000c40e0       ?_Root@?$_Tree@V?$basic_string@DU?$char_traits@D@std@@V?$allocator@D@2@@std@@U?$pair@$$CBV?$basic_string@DU?$char_traits@D@std@@V?$allocator@D@2@@std@@PAX@2@U_Kfn@?$map@V?$basic_string@DU?$char_traits@D@std@@V?$allocator@D@2@@std@@PAXU?$less@V?$basic_string@DU?$char_traits@D@std@@V?$allocator@D@2@@std@@@2@V?$allocator@PAX@2@@2@U?$less@V?$basic_string@DU?$char_traits@D@std@@V?$allocator@D@2@@std@@@2@V?$allocator@PAX@2@@std@@IAEAAPAU_Node@12@XZ 004c50e0 f i UiBase.obj
 0001:000c4110       ?_Rrotate@?$_Tree@V?$basic_string@DU?$char_traits@D@std@@V?$allocator@D@2@@std@@U?$pair@$$CBV?$basic_string@DU?$char_traits@D@std@@V?$allocator@D@2@@std@@PAX@2@U_Kfn@?$map@V?$basic_string@DU?$char_traits@D@std@@V?$allocator@D@2@@std@@PAXU?$less@V?$basic_string@DU?$char_traits@D@std@@V?$allocator@D@2@@std@@@2@V?$allocator@PAX@2@@2@U?$less@V?$basic_string@DU?$char_traits@D@std@@V?$allocator@D@2@@std@@@2@V?$allocator@PAX@2@@std@@IAEXPAU_Node@12@@Z 004c5110 f i UiBase.obj
 0001:000c42b0       ?_Destval@?$_Tree@V?$basic_string@DU?$char_traits@D@std@@V?$allocator@D@2@@std@@U?$pair@$$CBV?$basic_string@DU?$char_traits@D@std@@V?$allocator@D@2@@std@@PAX@2@U_Kfn@?$map@V?$basic_string@DU?$char_traits@D@std@@V?$allocator@D@2@@std@@PAXU?$less@V?$basic_string@DU?$char_traits@D@std@@V?$allocator@D@2@@std@@@2@V?$allocator@PAX@2@@2@U?$less@V?$basic_string@DU?$char_traits@D@std@@V?$allocator@D@2@@std@@@2@V?$allocator@PAX@2@@std@@IAEXPAU?$pair@$$CBV?$basic_string@DU?$char_traits@D@std@@V?$allocator@D@2@@std@@PAX@2@@Z 004c52b0 f i UiBase.obj
 0001:000c42e0       ?_Inc@const_iterator@?$_Tree@V?$basic_string@DU?$char_traits@D@std@@V?$allocator@D@2@@std@@U?$pair@$$CBV?$basic_string@DU?$char_traits@D@std@@V?$allocator@D@2@@std@@PAX@2@U_Kfn@?$map@V?$basic_string@DU?$char_traits@D@std@@V?$allocator@D@2@@std@@PAXU?$less@V?$basic_string@DU?$char_traits@D@std@@V?$allocator@D@2@@std@@@2@V?$allocator@PAX@2@@2@U?$less@V?$basic_string@DU?$char_traits@D@std@@V?$allocator@D@2@@std@@@2@V?$allocator@PAX@2@@std@@QAEXXZ 004c52e0 f i UiBase.obj
 0001:000c43f0       ?_Mynode@const_iterator@?$_Tree@V?$basic_string@DU?$char_traits@D@std@@V?$allocator@D@2@@std@@U?$pair@$$CBV?$basic_string@DU?$char_traits@D@std@@V?$allocator@D@2@@std@@PAX@2@U_Kfn@?$map@V?$basic_string@DU?$char_traits@D@std@@V?$allocator@D@2@@std@@PAXU?$less@V?$basic_string@DU?$char_traits@D@std@@V?$allocator@D@2@@std@@@2@V?$allocator@PAX@2@@2@U?$less@V?$basic_string@DU?$char_traits@D@std@@V?$allocator@D@2@@std@@@2@V?$allocator@PAX@2@@std@@QBEPAU_Node@23@XZ 004c53f0 f i UiBase.obj
 0001:000c4410       ??0iterator@?$_Tree@V?$basic_string@DU?$char_traits@D@std@@V?$allocator@D@2@@std@@U?$pair@$$CBV?$basic_string@DU?$char_traits@D@std@@V?$allocator@D@2@@std@@PAX@2@U_Kfn@?$map@V?$basic_string@DU?$char_traits@D@std@@V?$allocator@D@2@@std@@PAXU?$less@V?$basic_string@DU?$char_traits@D@std@@V?$allocator@D@2@@std@@@2@V?$allocator@PAX@2@@2@U?$less@V?$basic_string@DU?$char_traits@D@std@@V?$allocator@D@2@@std@@@2@V?$allocator@PAX@2@@std@@QAE@PAU_Node@12@@Z 004c5410 f i UiBase.obj
 0001:000c4440       ??0?$pair@Viterator@?$_Tree@V?$basic_string@DU?$char_traits@D@std@@V?$allocator@D@2@@std@@U?$pair@$$CBV?$basic_string@DU?$char_traits@D@std@@V?$allocator@D@2@@std@@PAX@2@U_Kfn@?$map@V?$basic_string@DU?$char_traits@D@std@@V?$allocator@D@2@@std@@PAXU?$less@V?$basic_string@DU?$char_traits@D@std@@V?$allocator@D@2@@std@@@2@V?$allocator@PAX@2@@2@U?$less@V?$basic_string@DU?$char_traits@D@std@@V?$allocator@D@2@@std@@@2@V?$allocator@PAX@2@@std@@_N@std@@QAE@ABViterator@?$_Tree@V?$basic_string@DU?$char_traits@D@std@@V?$allocator@D@2@@std@@U?$pair@$$CBV?$basic_string@DU?$char_traits@D@std@@V?$allocator@D@2@@std@@PAX@2@U_Kfn@?$map@V?$basic_string@DU?$char_traits@D@std@@V?$allocator@D@2@@std@@PAXU?$less@V?$basic_string@DU?$char_traits@D@std@@V?$allocator@D@2@@std@@@2@V?$allocator@PAX@2@@2@U?$less@V?$basic_string@DU?$char_traits@D@std@@V?$allocator@D@2@@std@@@2@V?$allocator@PAX@2@@1@AB_N@Z 004c5440 f i UiBase.obj
 0001:000c4470       ??R_Kfn@?$map@V?$basic_string@DU?$char_traits@D@std@@V?$allocator@D@2@@std@@PAXU?$less@V?$basic_string@DU?$char_traits@D@std@@V?$allocator@D@2@@std@@@2@V?$allocator@PAX@2@@std@@QBEABV?$basic_string@DU?$char_traits@D@std@@V?$allocator@D@2@@2@ABU?$pair@$$CBV?$basic_string@DU?$char_traits@D@std@@V?$allocator@D@2@@std@@PAX@2@@Z 004c5470 f i UiBase.obj
 0001:000c4490       ?_Insert@?$_Tree@V?$basic_string@DU?$char_traits@D@std@@V?$allocator@D@2@@std@@U?$pair@$$CBV?$basic_string@DU?$char_traits@D@std@@V?$allocator@D@2@@std@@PAX@2@U_Kfn@?$map@V?$basic_string@DU?$char_traits@D@std@@V?$allocator@D@2@@std@@PAXU?$less@V?$basic_string@DU?$char_traits@D@std@@V?$allocator@D@2@@std@@@2@V?$allocator@PAX@2@@2@U?$less@V?$basic_string@DU?$char_traits@D@std@@V?$allocator@D@2@@std@@@2@V?$allocator@PAX@2@@std@@IAE?AViterator@12@PAU_Node@12@0ABU?$pair@$$CBV?$basic_string@DU?$char_traits@D@std@@V?$allocator@D@2@@std@@PAX@2@@Z 004c5490 f i UiBase.obj
 0001:000c4990       ?_Lbound@?$_Tree@V?$basic_string@DU?$char_traits@D@std@@V?$allocator@D@2@@std@@U?$pair@$$CBV?$basic_string@DU?$char_traits@D@std@@V?$allocator@D@2@@std@@PAX@2@U_Kfn@?$map@V?$basic_string@DU?$char_traits@D@std@@V?$allocator@D@2@@std@@PAXU?$less@V?$basic_string@DU?$char_traits@D@std@@V?$allocator@D@2@@std@@@2@V?$allocator@PAX@2@@2@U?$less@V?$basic_string@DU?$char_traits@D@std@@V?$allocator@D@2@@std@@@2@V?$allocator@PAX@2@@std@@IBEPAU_Node@12@ABV?$basic_string@DU?$char_traits@D@std@@V?$allocator@D@2@@2@@Z 004c5990 f i UiBase.obj
 0001:000c4a90       ?_Buynode@?$_Tree@V?$basic_string@DU?$char_traits@D@std@@V?$allocator@D@2@@std@@U?$pair@$$CBV?$basic_string@DU?$char_traits@D@std@@V?$allocator@D@2@@std@@PAX@2@U_Kfn@?$map@V?$basic_string@DU?$char_traits@D@std@@V?$allocator@D@2@@std@@PAXU?$less@V?$basic_string@DU?$char_traits@D@std@@V?$allocator@D@2@@std@@@2@V?$allocator@PAX@2@@2@U?$less@V?$basic_string@DU?$char_traits@D@std@@V?$allocator@D@2@@std@@@2@V?$allocator@PAX@2@@std@@IAEPAU_Node@12@PAU312@W4_Redbl@12@@Z 004c5a90 f i UiBase.obj
 0001:000c4af0       ??0const_iterator@?$_Tree@V?$basic_string@DU?$char_traits@D@std@@V?$allocator@D@2@@std@@U?$pair@$$CBV?$basic_string@DU?$char_traits@D@std@@V?$allocator@D@2@@std@@PAX@2@U_Kfn@?$map@V?$basic_string@DU?$char_traits@D@std@@V?$allocator@D@2@@std@@PAXU?$less@V?$basic_string@DU?$char_traits@D@std@@V?$allocator@D@2@@std@@@2@V?$allocator@PAX@2@@2@U?$less@V?$basic_string@DU?$char_traits@D@std@@V?$allocator@D@2@@std@@@2@V?$allocator@PAX@2@@std@@QAE@PAU_Node@12@@Z 004c5af0 f i UiBase.obj
 0001:000c4b10       ??Fiterator@?$_Tree@V?$basic_string@DU?$char_traits@D@std@@V?$allocator@D@2@@std@@U?$pair@$$CBV?$basic_string@DU?$char_traits@D@std@@V?$allocator@D@2@@std@@PAX@2@U_Kfn@?$map@V?$basic_string@DU?$char_traits@D@std@@V?$allocator@D@2@@std@@PAXU?$less@V?$basic_string@DU?$char_traits@D@std@@V?$allocator@D@2@@std@@@2@V?$allocator@PAX@2@@2@U?$less@V?$basic_string@DU?$char_traits@D@std@@V?$allocator@D@2@@std@@@2@V?$allocator@PAX@2@@std@@QAEAAV012@XZ 004c5b10 f i UiBase.obj
 0001:000c4b40       ?_Charalloc@?$allocator@PAX@std@@QAEPADI@Z 004c5b40 f i UiBase.obj
 0001:000c4b70       ?_Root@?$_Tree@V?$basic_string@DU?$char_traits@D@std@@V?$allocator@D@2@@std@@U?$pair@$$CBV?$basic_string@DU?$char_traits@D@std@@V?$allocator@D@2@@std@@PAX@2@U_Kfn@?$map@V?$basic_string@DU?$char_traits@D@std@@V?$allocator@D@2@@std@@PAXU?$less@V?$basic_string@DU?$char_traits@D@std@@V?$allocator@D@2@@std@@@2@V?$allocator@PAX@2@@2@U?$less@V?$basic_string@DU?$char_traits@D@std@@V?$allocator@D@2@@std@@@2@V?$allocator@PAX@2@@std@@IBEAAPAU_Node@12@XZ 004c5b70 f i UiBase.obj
 0001:000c4ba0       ?_Consval@?$_Tree@V?$basic_string@DU?$char_traits@D@std@@V?$allocator@D@2@@std@@U?$pair@$$CBV?$basic_string@DU?$char_traits@D@std@@V?$allocator@D@2@@std@@PAX@2@U_Kfn@?$map@V?$basic_string@DU?$char_traits@D@std@@V?$allocator@D@2@@std@@PAXU?$less@V?$basic_string@DU?$char_traits@D@std@@V?$allocator@D@2@@std@@@2@V?$allocator@PAX@2@@2@U?$less@V?$basic_string@DU?$char_traits@D@std@@V?$allocator@D@2@@std@@@2@V?$allocator@PAX@2@@std@@IAEXPAU?$pair@$$CBV?$basic_string@DU?$char_traits@D@std@@V?$allocator@D@2@@std@@PAX@2@ABU32@@Z 004c5ba0 f i UiBase.obj
 0001:000c4bd0       ?_Dec@const_iterator@?$_Tree@V?$basic_string@DU?$char_traits@D@std@@V?$allocator@D@2@@std@@U?$pair@$$CBV?$basic_string@DU?$char_traits@D@std@@V?$allocator@D@2@@std@@PAX@2@U_Kfn@?$map@V?$basic_string@DU?$char_traits@D@std@@V?$allocator@D@2@@std@@PAXU?$less@V?$basic_string@DU?$char_traits@D@std@@V?$allocator@D@2@@std@@@2@V?$allocator@PAX@2@@2@U?$less@V?$basic_string@DU?$char_traits@D@std@@V?$allocator@D@2@@std@@@2@V?$allocator@PAX@2@@std@@QAEXXZ 004c5bd0 f i UiBase.obj
 0001:000c4d10       ?swap@std@@YAXAAW4_Redbl@?$_Tree@V?$basic_string@DU?$char_traits@D@std@@V?$allocator@D@2@@std@@U?$pair@$$CBV?$basic_string@DU?$char_traits@D@std@@V?$allocator@D@2@@std@@PAX@2@U_Kfn@?$map@V?$basic_string@DU?$char_traits@D@std@@V?$allocator@D@2@@std@@PAXU?$less@V?$basic_string@DU?$char_traits@D@std@@V?$allocator@D@2@@std@@@2@V?$allocator@PAX@2@@2@U?$less@V?$basic_string@DU?$char_traits@D@std@@V?$allocator@D@2@@std@@@2@V?$allocator@PAX@2@@1@0@Z 004c5d10 f i UiBase.obj
 0001:000c4d40       ?_Destroy@std@@YAXPAU?$pair@$$CBV?$basic_string@DU?$char_traits@D@std@@V?$allocator@D@2@@std@@PAX@1@@Z 004c5d40 f i UiBase.obj
 0001:000c4d60       ?_Construct@std@@YAXPAU?$pair@$$CBV?$basic_string@DU?$char_traits@D@std@@V?$allocator@D@2@@std@@PAX@1@ABU21@@Z 004c5d60 f i UiBase.obj
 0001:000c4df0       ??_G?$pair@$$CBV?$basic_string@DU?$char_traits@D@std@@V?$allocator@D@2@@std@@PAX@std@@QAEPAXI@Z 004c5df0 f i UiBase.obj
 0001:000c4e30       ??0?$pair@$$CBV?$basic_string@DU?$char_traits@D@std@@V?$allocator@D@2@@std@@PAX@std@@QAE@ABU01@@Z 004c5e30 f i UiBase.obj
 0001:000c4e80       ?CreateObject@Player_Life@@SAPAVKWndWindow@@XZ 004c5e80 f i UiShell.obj
 0001:000c4f10       ??0Player_Life@@QAE@XZ     004c5f10 f i UiShell.obj
 0001:000c4f40       ??_GPlayer_Life@@UAEPAXI@Z 004c5f40 f i UiShell.obj
 0001:000c4f40       ??_EPlayer_Life@@UAEPAXI@Z 004c5f40 f i UiShell.obj
 0001:000c4f80       ??1Player_Life@@UAE@XZ     004c5f80 f i UiShell.obj
 0001:000c4fb0       ?CreateObject@Player_Mana@@SAPAVKWndWindow@@XZ 004c5fb0 f i UiShell.obj
 0001:000c5040       ??0Player_Mana@@QAE@XZ     004c6040 f i UiShell.obj
 0001:000c5070       ??_EPlayer_Mana@@UAEPAXI@Z 004c6070 f i UiShell.obj
 0001:000c5070       ??_GPlayer_Mana@@UAEPAXI@Z 004c6070 f i UiShell.obj
 0001:000c50b0       ??1Player_Mana@@UAE@XZ     004c60b0 f i UiShell.obj
 0001:000c50e0       ?CreateObject@Player_Stamina@@SAPAVKWndWindow@@XZ 004c60e0 f i UiShell.obj
 0001:000c5170       ??0Player_Stamina@@QAE@XZ  004c6170 f i UiShell.obj
 0001:000c51a0       ??_EPlayer_Stamina@@UAEPAXI@Z 004c61a0 f i UiShell.obj
 0001:000c51a0       ??_GPlayer_Stamina@@UAEPAXI@Z 004c61a0 f i UiShell.obj
 0001:000c51e0       ??1Player_Stamina@@UAE@XZ  004c61e0 f i UiShell.obj
 0001:000c5210       ?CreateObject@Player_Exp@@SAPAVKWndWindow@@XZ 004c6210 f i UiShell.obj
 0001:000c52a0       ??0Player_Exp@@QAE@XZ      004c62a0 f i UiShell.obj
 0001:000c52d0       ??_GPlayer_Exp@@UAEPAXI@Z  004c62d0 f i UiShell.obj
 0001:000c52d0       ??_EPlayer_Exp@@UAEPAXI@Z  004c62d0 f i UiShell.obj
 0001:000c5310       ??1Player_Exp@@UAE@XZ      004c6310 f i UiShell.obj
 0001:000c5340       ?CreateObject@Player_Level@@SAPAVKWndWindow@@XZ 004c6340 f i UiShell.obj
 0001:000c53d0       ??0Player_Level@@QAE@XZ    004c63d0 f i UiShell.obj
 0001:000c5400       ??_GPlayer_Level@@UAEPAXI@Z 004c6400 f i UiShell.obj
 0001:000c5400       ??_EPlayer_Level@@UAEPAXI@Z 004c6400 f i UiShell.obj
 0001:000c5440       ??1Player_Level@@UAE@XZ    004c6440 f i UiShell.obj
 0001:000c5470       ?CreateObject@Player_WorldSort@@SAPAVKWndWindow@@XZ 004c6470 f i UiShell.obj
 0001:000c5500       ??0Player_WorldSort@@QAE@XZ 004c6500 f i UiShell.obj
 0001:000c5530       ??_GPlayer_WorldSort@@UAEPAXI@Z 004c6530 f i UiShell.obj
 0001:000c5530       ??_EPlayer_WorldSort@@UAEPAXI@Z 004c6530 f i UiShell.obj
 0001:000c5570       ??1Player_WorldSort@@UAE@XZ 004c6570 f i UiShell.obj
 0001:000c55a0       ?CreateObject@Player_Status@@SAPAVKWndWindow@@XZ 004c65a0 f i UiShell.obj
 0001:000c5630       ??0Player_Status@@QAE@XZ   004c6630 f i UiShell.obj
 0001:000c5660       ??_GPlayer_Status@@UAEPAXI@Z 004c6660 f i UiShell.obj
 0001:000c5660       ??_EPlayer_Status@@UAEPAXI@Z 004c6660 f i UiShell.obj
 0001:000c56a0       ??1Player_Status@@UAE@XZ   004c66a0 f i UiShell.obj
 0001:000c56d0       ?CreateObject@Player_Items@@SAPAVKWndWindow@@XZ 004c66d0 f i UiShell.obj
 0001:000c5760       ??0Player_Items@@QAE@XZ    004c6760 f i UiShell.obj
 0001:000c5790       ??_EPlayer_Items@@UAEPAXI@Z 004c6790 f i UiShell.obj
 0001:000c5790       ??_GPlayer_Items@@UAEPAXI@Z 004c6790 f i UiShell.obj
 0001:000c57d0       ??1Player_Items@@UAE@XZ    004c67d0 f i UiShell.obj
 0001:000c5800       ?CreateObject@Player_ItemEx@@SAPAVKWndWindow@@XZ 004c6800 f i UiShell.obj
 0001:000c5890       ??0Player_ItemEx@@QAE@XZ   004c6890 f i UiShell.obj
 0001:000c58c0       ??_GPlayer_ItemEx@@UAEPAXI@Z 004c68c0 f i UiShell.obj
 0001:000c58c0       ??_EPlayer_ItemEx@@UAEPAXI@Z 004c68c0 f i UiShell.obj
 0001:000c5900       ??1Player_ItemEx@@UAE@XZ   004c6900 f i UiShell.obj
 0001:000c5930       ?CreateObject@Player_Skills@@SAPAVKWndWindow@@XZ 004c6930 f i UiShell.obj
 0001:000c59c0       ??0Player_Skills@@QAE@XZ   004c69c0 f i UiShell.obj
 0001:000c59f0       ??_EPlayer_Skills@@UAEPAXI@Z 004c69f0 f i UiShell.obj
 0001:000c59f0       ??_GPlayer_Skills@@UAEPAXI@Z 004c69f0 f i UiShell.obj
 0001:000c5a30       ??1Player_Skills@@UAE@XZ   004c6a30 f i UiShell.obj
 0001:000c5a60       ?CreateObject@Player_Team@@SAPAVKWndWindow@@XZ 004c6a60 f i UiShell.obj
 0001:000c5af0       ??0Player_Team@@QAE@XZ     004c6af0 f i UiShell.obj
 0001:000c5b20       ??_EPlayer_Team@@UAEPAXI@Z 004c6b20 f i UiShell.obj
 0001:000c5b20       ??_GPlayer_Team@@UAEPAXI@Z 004c6b20 f i UiShell.obj
 0001:000c5b60       ??1Player_Team@@UAE@XZ     004c6b60 f i UiShell.obj
 0001:000c5b90       ?CreateObject@Player_Faction@@SAPAVKWndWindow@@XZ 004c6b90 f i UiShell.obj
 0001:000c5c20       ??0Player_Faction@@QAE@XZ  004c6c20 f i UiShell.obj
 0001:000c5c50       ??_GPlayer_Faction@@UAEPAXI@Z 004c6c50 f i UiShell.obj
 0001:000c5c50       ??_EPlayer_Faction@@UAEPAXI@Z 004c6c50 f i UiShell.obj
 0001:000c5c90       ??1Player_Faction@@UAE@XZ  004c6c90 f i UiShell.obj
 0001:000c5cc0       ?CreateObject@Player_Sit@@SAPAVKWndWindow@@XZ 004c6cc0 f i UiShell.obj
 0001:000c5d50       ??0Player_Sit@@QAE@XZ      004c6d50 f i UiShell.obj
 0001:000c5d80       ??_EPlayer_Sit@@UAEPAXI@Z  004c6d80 f i UiShell.obj
 0001:000c5d80       ??_GPlayer_Sit@@UAEPAXI@Z  004c6d80 f i UiShell.obj
 0001:000c5dc0       ??1Player_Sit@@UAE@XZ      004c6dc0 f i UiShell.obj
 0001:000c5df0       ?CreateObject@Player_Run@@SAPAVKWndWindow@@XZ 004c6df0 f i UiShell.obj
 0001:000c5e80       ??0Player_Run@@QAE@XZ      004c6e80 f i UiShell.obj
 0001:000c5eb0       ??_GPlayer_Run@@UAEPAXI@Z  004c6eb0 f i UiShell.obj
 0001:000c5eb0       ??_EPlayer_Run@@UAEPAXI@Z  004c6eb0 f i UiShell.obj
 0001:000c5ef0       ??1Player_Run@@UAE@XZ      004c6ef0 f i UiShell.obj
 0001:000c5f20       ?CreateObject@Player_Horse@@SAPAVKWndWindow@@XZ 004c6f20 f i UiShell.obj
 0001:000c5fb0       ??0Player_Horse@@QAE@XZ    004c6fb0 f i UiShell.obj
 0001:000c5fe0       ??_EPlayer_Horse@@UAEPAXI@Z 004c6fe0 f i UiShell.obj
 0001:000c5fe0       ??_GPlayer_Horse@@UAEPAXI@Z 004c6fe0 f i UiShell.obj
 0001:000c6020       ??1Player_Horse@@UAE@XZ    004c7020 f i UiShell.obj
 0001:000c6050       ?CreateObject@Player_Exchange@@SAPAVKWndWindow@@XZ 004c7050 f i UiShell.obj
 0001:000c60e0       ??0Player_Exchange@@QAE@XZ 004c70e0 f i UiShell.obj
 0001:000c6110       ??_GPlayer_Exchange@@UAEPAXI@Z 004c7110 f i UiShell.obj
 0001:000c6110       ??_EPlayer_Exchange@@UAEPAXI@Z 004c7110 f i UiShell.obj
 0001:000c6150       ??1Player_Exchange@@UAE@XZ 004c7150 f i UiShell.obj
 0001:000c6180       ?CreateObject@Player_PK@@SAPAVKWndWindow@@XZ 004c7180 f i UiShell.obj
 0001:000c6210       ??0Player_PK@@QAE@XZ       004c7210 f i UiShell.obj
 0001:000c6240       ??_EPlayer_PK@@UAEPAXI@Z   004c7240 f i UiShell.obj
 0001:000c6240       ??_GPlayer_PK@@UAEPAXI@Z   004c7240 f i UiShell.obj
 0001:000c6280       ??1Player_PK@@UAE@XZ       004c7280 f i UiShell.obj
 0001:000c62b0       ?CreateObject@Player_Task@@SAPAVKWndWindow@@XZ 004c72b0 f i UiShell.obj
 0001:000c6340       ??0Player_Task@@QAE@XZ     004c7340 f i UiShell.obj
 0001:000c6370       ??_GPlayer_Task@@UAEPAXI@Z 004c7370 f i UiShell.obj
 0001:000c6370       ??_EPlayer_Task@@UAEPAXI@Z 004c7370 f i UiShell.obj
 0001:000c63b0       ??1Player_Task@@UAE@XZ     004c73b0 f i UiShell.obj
 0001:000c63e0       ?CreateObject@Player_AutoPlay@@SAPAVKWndWindow@@XZ 004c73e0 f i UiShell.obj
 0001:000c6470       ??0Player_AutoPlay@@QAE@XZ 004c7470 f i UiShell.obj
 0001:000c64a0       ??_EPlayer_AutoPlay@@UAEPAXI@Z 004c74a0 f i UiShell.obj
 0001:000c64a0       ??_GPlayer_AutoPlay@@UAEPAXI@Z 004c74a0 f i UiShell.obj
 0001:000c64e0       ??1Player_AutoPlay@@UAE@XZ 004c74e0 f i UiShell.obj
 0001:000c6510       ?CreateObject@Player_Lock@@SAPAVKWndWindow@@XZ 004c7510 f i UiShell.obj
 0001:000c65a0       ??0Player_Lock@@QAE@XZ     004c75a0 f i UiShell.obj
 0001:000c65d0       ??_GPlayer_Lock@@UAEPAXI@Z 004c75d0 f i UiShell.obj
 0001:000c65d0       ??_EPlayer_Lock@@UAEPAXI@Z 004c75d0 f i UiShell.obj
 0001:000c6610       ??1Player_Lock@@UAE@XZ     004c7610 f i UiShell.obj
 0001:000c6673       ?GetFileTimeVersionString@@YA_NPBDPADH@Z 004c7673 f   UiShell.obj
 0001:000c67c4       ?UiGetFrameRate@@YAHXZ     004c77c4 f   UiShell.obj
 0001:000c67f0       ?UiPostQuitMsg@@YAXXZ      004c77f0 f   UiShell.obj
 0001:000c67ff       ?UiIsAlreadyQuit@@YA_NXZ   004c77ff f   UiShell.obj
 0001:000c6810       ?UiInit@@YAHXZ             004c7810 f   UiShell.obj
 0001:000c6a33       ?UiExit@@YAXXZ             004c7a33 f   UiShell.obj
 0001:000c6ad9       ?UiStart@@YAHXZ            004c7ad9 f   UiShell.obj
 0001:000c6b2b       ?UiPaint@@YAXH@Z           004c7b2b f   UiShell.obj
 0001:000c6df0       ?UiHeartBeat@@YAHXZ        004c7df0 f   UiShell.obj
 0001:000c6f66       ?UiProcessInput@@YAXIIH@Z  004c7f66 f   UiShell.obj
 0001:000c7002       ?UiCloseWndsOutGame@@YAX_N@Z 004c8002 f   UiShell.obj
 0001:000c70a1       ?UiStartGame@@YAXXZ        004c80a1 f   UiShell.obj
 0001:000c71d3       ?UiResumeGame@@YAXXZ       004c81d3 f   UiShell.obj
 0001:000c71e2       ?UiCloseWndsInGame@@YA_N_N@Z 004c81e2 f   UiShell.obj
 0001:000c7732       ?UiEndGame@@YAXXZ          004c8732 f   UiShell.obj
 0001:000c77bb       ?UiSetScreenSize@@YAXHH@Z  004c87bb f   UiShell.obj
 0001:000c77d7       ?UiOnGameServerConnected@@YAXXZ 004c87d7 f   UiShell.obj
 0001:000c77ed       ?UiOnGameServerStartSyncEnd@@YAXXZ 004c87ed f   UiShell.obj
 0001:000c7812       ?UpdateData@Player_Life@@UAEXXZ 004c8812 f   UiShell.obj
 0001:000c78d9       ?OnButtonClick@Player_Life@@UAEXXZ 004c88d9 f   UiShell.obj
 0001:000c7918       ?UpdateData@Player_Mana@@UAEXXZ 004c8918 f   UiShell.obj
 0001:000c79df       ?OnButtonClick@Player_Mana@@UAEXXZ 004c89df f   UiShell.obj
 0001:000c7a1e       ?UpdateData@Player_Stamina@@UAEXXZ 004c8a1e f   UiShell.obj
 0001:000c7ae5       ?OnButtonClick@Player_Stamina@@UAEXXZ 004c8ae5 f   UiShell.obj
 0001:000c7b24       ?UpdateData@Player_Exp@@UAEXXZ 004c8b24 f   UiShell.obj
 0001:000c7cf1       ?OnButtonClick@Player_Exp@@UAEXXZ 004c8cf1 f   UiShell.obj
 0001:000c7d30       ?GetToolTipInfo@Player_Exp@@UAEHPADH@Z 004c8d30 f   UiShell.obj
 0001:000c7ddc       ?UpdateData@Player_Level@@UAEXXZ 004c8ddc f   UiShell.obj
 0001:000c7e51       ?UpdateData@Player_WorldSort@@UAEXXZ 004c8e51 f   UiShell.obj
 0001:000c7ec7       ?OnButtonClick@Player_WorldSort@@UAEXXZ 004c8ec7 f   UiShell.obj
 0001:000c7eed       ?OnButtonClick@Player_Status@@UAEXXZ 004c8eed f   UiShell.obj
 0001:000c7f16       ?GetShortKey@Player_Status@@UAEPBDXZ 004c8f16 f   UiShell.obj
 0001:000c7f51       ?OnButtonClick@Player_Items@@UAEXXZ 004c8f51 f   UiShell.obj
 0001:000c7f7a       ?GetShortKey@Player_Items@@UAEPBDXZ 004c8f7a f   UiShell.obj
 0001:000c7fb5       ?OnButtonClick@Player_ItemEx@@UAEXXZ 004c8fb5 f   UiShell.obj
 0001:000c7fdf       ?OnButtonClick@Player_Skills@@UAEXXZ 004c8fdf f   UiShell.obj
 0001:000c8008       ?GetShortKey@Player_Skills@@UAEPBDXZ 004c9008 f   UiShell.obj
 0001:000c8043       ?OnButtonClick@Player_Team@@UAEXXZ 004c9043 f   UiShell.obj
 0001:000c806c       ?GetShortKey@Player_Team@@UAEPBDXZ 004c906c f   UiShell.obj
 0001:000c80a7       ?OnButtonClick@Player_Faction@@UAEXXZ 004c90a7 f   UiShell.obj
 0001:000c80d0       ?GetShortKey@Player_Faction@@UAEPBDXZ 004c90d0 f   UiShell.obj
 0001:000c810b       ?OnButtonClick@Player_Sit@@UAEXXZ 004c910b f   UiShell.obj
 0001:000c8134       ?UpdateData@Player_Sit@@UAEXXZ 004c9134 f   UiShell.obj
 0001:000c81b0       ?GetShortKey@Player_Sit@@UAEPBDXZ 004c91b0 f   UiShell.obj
 0001:000c81eb       ?OnButtonClick@Player_Run@@UAEXXZ 004c91eb f   UiShell.obj
 0001:000c8214       ?UpdateData@Player_Run@@UAEXXZ 004c9214 f   UiShell.obj
 0001:000c8290       ?GetShortKey@Player_Run@@UAEPBDXZ 004c9290 f   UiShell.obj
 0001:000c82cb       ?OnButtonClick@Player_Horse@@UAEXXZ 004c92cb f   UiShell.obj
 0001:000c82f4       ?UpdateData@Player_Horse@@UAEXXZ 004c92f4 f   UiShell.obj
 0001:000c8370       ?GetShortKey@Player_Horse@@UAEPBDXZ 004c9370 f   UiShell.obj
 0001:000c83ab       ?OnButtonClick@Player_Exchange@@UAEXXZ 004c93ab f   UiShell.obj
 0001:000c83d4       ?UpdateData@Player_Exchange@@UAEXXZ 004c93d4 f   UiShell.obj
 0001:000c8423       ?GetShortKey@Player_Exchange@@UAEPBDXZ 004c9423 f   UiShell.obj
 0001:000c845e       ?OnButtonClick@Player_PK@@UAEXXZ 004c945e f   UiShell.obj
 0001:000c84ac       ?UpdateData@Player_PK@@UAEXXZ 004c94ac f   UiShell.obj
 0001:000c84fb       ?GetShortKey@Player_PK@@UAEPBDXZ 004c94fb f   UiShell.obj
 0001:000c8536       ?OnButtonClick@Player_Task@@UAEXXZ 004c9536 f   UiShell.obj
 0001:000c859e       ?OnButtonClick@Player_AutoPlay@@UAEXXZ 004c959e f   UiShell.obj
 0001:000c85c4       ?OnButtonClick@Player_Lock@@UAEXXZ 004c95c4 f   UiShell.obj
 0001:000c8690       ?RegisterSelfClass@Player_Life@@SAXXZ 004c9690 f i UiShell.obj
 0001:000c86b0       ?RegisterSelfClass@Player_Mana@@SAXXZ 004c96b0 f i UiShell.obj
 0001:000c86d0       ?RegisterSelfClass@Player_Stamina@@SAXXZ 004c96d0 f i UiShell.obj
 0001:000c86f0       ?RegisterSelfClass@Player_Exp@@SAXXZ 004c96f0 f i UiShell.obj
 0001:000c8710       ?RegisterSelfClass@Player_Level@@SAXXZ 004c9710 f i UiShell.obj
 0001:000c8730       ?RegisterSelfClass@Player_WorldSort@@SAXXZ 004c9730 f i UiShell.obj
 0001:000c8750       ?RegisterSelfClass@Player_Status@@SAXXZ 004c9750 f i UiShell.obj
 0001:000c8770       ?RegisterSelfClass@Player_Items@@SAXXZ 004c9770 f i UiShell.obj
 0001:000c8790       ?RegisterSelfClass@Player_ItemEx@@SAXXZ 004c9790 f i UiShell.obj
 0001:000c87b0       ?RegisterSelfClass@Player_Skills@@SAXXZ 004c97b0 f i UiShell.obj
 0001:000c87d0       ?RegisterSelfClass@Player_Team@@SAXXZ 004c97d0 f i UiShell.obj
 0001:000c87f0       ?RegisterSelfClass@Player_Faction@@SAXXZ 004c97f0 f i UiShell.obj
 0001:000c8810       ?RegisterSelfClass@Player_Sit@@SAXXZ 004c9810 f i UiShell.obj
 0001:000c8830       ?RegisterSelfClass@Player_Run@@SAXXZ 004c9830 f i UiShell.obj
 0001:000c8850       ?RegisterSelfClass@Player_Horse@@SAXXZ 004c9850 f i UiShell.obj
 0001:000c8870       ?RegisterSelfClass@Player_Exchange@@SAXXZ 004c9870 f i UiShell.obj
 0001:000c8890       ?RegisterSelfClass@Player_PK@@SAXXZ 004c9890 f i UiShell.obj
 0001:000c88b0       ?RegisterSelfClass@Player_Task@@SAXXZ 004c98b0 f i UiShell.obj
 0001:000c88d0       ?RegisterSelfClass@Player_AutoPlay@@SAXXZ 004c98d0 f i UiShell.obj
 0001:000c88f0       ?RegisterSelfClass@Player_Lock@@SAXXZ 004c98f0 f i UiShell.obj
 0001:000c8910       ?IsRoleNewCreated@KLogin@@QAEHXZ 004c9910 f i UiShell.obj
 0001:000c8930       ??0CChatFilter@@QAE@XZ     004c9930 f   ChatFilter.obj
 0001:000c8958       ??1CChatFilter@@UAE@XZ     004c9958 f   ChatFilter.obj
 0001:000c8973       ?Initialize@CChatFilter@@QAEHXZ 004c9973 f   ChatFilter.obj
 0001:000c8c30       ?Uninitialize@CChatFilter@@QAEHXZ 004c9c30 f   ChatFilter.obj
 0001:000c8c81       ?IsTextPass@CChatFilter@@QAEHPBD@Z 004c9c81 f   ChatFilter.obj
 0001:000c8cd0       ??_ECChatFilter@@UAEPAXI@Z 004c9cd0 f i ChatFilter.obj
 0001:000c8cd0       ??_GCChatFilter@@UAEPAXI@Z 004c9cd0 f i ChatFilter.obj
 0001:000c8d10       ??0CFilterTextLib@@QAE@XZ  004c9d10 f   FilterTextLib.obj
 0001:000c8d2e       ??1CFilterTextLib@@UAE@XZ  004c9d2e f   FilterTextLib.obj
 0001:000c8d49       ?Initialize@CFilterTextLib@@QAEHXZ 004c9d49 f   FilterTextLib.obj
 0001:000c8d60       ?Uninitialize@CFilterTextLib@@QAEHXZ 004c9d60 f   FilterTextLib.obj
 0001:000c8d77       ?CreateTextFilter@CFilterTextLib@@QAEJPAPAUITextFilter@@@Z 004c9d77 f   FilterTextLib.obj
 0001:000c8db0       ??_ECFilterTextLib@@UAEPAXI@Z 004c9db0 f i FilterTextLib.obj
 0001:000c8db0       ??_GCFilterTextLib@@UAEPAXI@Z 004c9db0 f i FilterTextLib.obj
 0001:000c8f9b       _WinMain@16                004c9f9b f   S3Client.obj
 0001:000c90d8       ??0KMyApp@@QAE@XZ          004ca0d8 f   S3Client.obj
 0001:000c9197       ?InitRepresentShell@@YAHHHH@Z 004ca197 f   S3Client.obj
 0001:000c92fa       ?GameInit@KMyApp@@UAEHXZ   004ca2fa f   S3Client.obj
 0001:000c99c0       ?GameExit@KMyApp@@UAEHXZ   004ca9c0 f   S3Client.obj
 0001:000c9b95       ?GameLoop@KMyApp@@UAEHXZ   004cab95 f   S3Client.obj
 0001:000c9d6e       ?HandleInput@KMyApp@@MAEHIIJ@Z 004cad6e f   S3Client.obj
 0001:000c9eb0       ??1KMyApp@@QAE@XZ          004caeb0 f i S3Client.obj
 0001:000c9f30       ??0KClientCallback@@QAE@XZ 004caf30 f i S3Client.obj
 0001:000c9f60       ??0IClientCallback@@QAE@XZ 004caf60 f i S3Client.obj
 0001:000c9f80       ??_GKInlinePicSink@@QAEPAXI@Z 004caf80 f i S3Client.obj
 0001:000c9fc0       ??1KInlinePicSink@@QAE@XZ  004cafc0 f i S3Client.obj
 0001:000ca09b       ??0KNetConnectAgent@@QAE@XZ 004cb09b f   NetConnectAgent.obj
 0001:000ca12b       ??1KNetConnectAgent@@QAE@XZ 004cb12b f   NetConnectAgent.obj
 0001:000ca14f       ?Initialize@KNetConnectAgent@@QAEHXZ 004cb14f f   NetConnectAgent.obj
 0001:000ca252       ?Exit@KNetConnectAgent@@QAEXXZ 004cb252 f   NetConnectAgent.obj
 0001:000ca30f       ?ClientConnectByNumericIp@KNetConnectAgent@@QAEHPBEG@Z 004cb30f f   NetConnectAgent.obj
 0001:000ca4c8       ?DisconnectClient@KNetConnectAgent@@QAEXXZ 004cb4c8 f   NetConnectAgent.obj
 0001:000ca596       ?ConnectToGameSvr@KNetConnectAgent@@QAEHPBEGPAU_GUID@@@Z 004cb596 f   NetConnectAgent.obj
 0001:000ca7b6       ?DisconnectGameSvr@KNetConnectAgent@@QAEXXZ 004cb7b6 f   NetConnectAgent.obj
 0001:000ca89d       ?SendMsg@KNetConnectAgent@@QAEHPBXH@Z 004cb89d f   NetConnectAgent.obj
 0001:000ca8fe       ?Breathe@KNetConnectAgent@@QAEXXZ 004cb8fe f   NetConnectAgent.obj
 0001:000cac81       ?RegisterMsgTargetObject@KNetConnectAgent@@QAEXEPAUiKNetMsgTargetObject@@@Z 004cbc81 f   NetConnectAgent.obj
 0001:000cacc5       ?TobeDisconnect@KNetConnectAgent@@QAEXXZ 004cbcc5 f   NetConnectAgent.obj
 0001:000cace1       ?UpdateClientRequestTime@KNetConnectAgent@@QAEX_NI@Z 004cbce1 f   NetConnectAgent.obj
 0001:000cad78       ?IsConnecting@KNetConnectAgent@@QAEHH@Z 004cbd78 f   NetConnectAgent.obj
 0001:000cadac       ?ClientCallBack@@YGXPAXABK@Z 004cbdac f   NetConnectAgent.obj
 0001:000cae0f       ?ProcessSwitchGameSvrMsg@KNetConnectAgent@@AAE_NPAX@Z 004cbe0f f   NetConnectAgent.obj
 0001:000cafeb       ?GetIpAddress@@YA_NPBDPAE@Z 004cbfeb f   Login.obj
 0001:000cb11b       ?RandMemSet@@YAXHPAE@Z     004cc11b f   Login.obj
 0001:000cb1d3       ??0KLogin@@QAE@XZ          004cc1d3 f   Login.obj
 0001:000cb256       ?ClearAccountPassword@KLogin@@AAEX_N0@Z 004cc256 f   Login.obj
 0001:000cb2be       ??1KLogin@@QAE@XZ          004cc2be f   Login.obj
 0001:000cb31d       ?CreateConnection@KLogin@@QAEHPBE@Z 004cc31d f   Login.obj
 0001:000cb40a       ?AccountLogin@KLogin@@QAEHPBDABUtagKSG_PASSWORD@@_N@Z 004cc40a f   Login.obj
 0001:000cb4b9       ?SelectRole@KLogin@@QAEHH@Z 004cc4b9 f   Login.obj
 0001:000cb59c       ?CreateRole@KLogin@@QAEHPAUKRoleChiefInfo@@@Z 004cc59c f   Login.obj
 0001:000cb722       ?DeleteRole@KLogin@@QAEHHABUtagKSG_PASSWORD@@@Z 004cc722 f   Login.obj
 0001:000cb889       ?NotifyTimeout@KLogin@@QAEXXZ 004cc889 f   Login.obj
 0001:000cb8c0       ?NotifyDisconnect@KLogin@@QAEXXZ 004cc8c0 f   Login.obj
 0001:000cb8f7       ?NotifyToStartGame@KLogin@@QAEXXZ 004cc8f7 f   Login.obj
 0001:000cb99a       ?ReturnToIdle@KLogin@@QAEXXZ 004cc99a f   Login.obj
 0001:000cba00       ?ReturnToIdleLixian@KLogin@@QAEXXZ 004cca00 f   Login.obj
 0001:000cba66       ?AutoLogin@KLogin@@QAEXXZ  004cca66 f   Login.obj
 0001:000cbb34       ?IsAutoLoginEnable@KLogin@@QAEHXZ 004ccb34 f   Login.obj
 0001:000cbb9e       ?SetRememberAccountFlag@KLogin@@QAEX_N@Z 004ccb9e f   Login.obj
 0001:000cbbd5       ?SetRememberAllFlag@KLogin@@QAEX_N@Z 004ccbd5 f   Login.obj
 0001:000cbc0c       ?SetVirtualKeyboardFlag@KLogin@@QAEX_N@Z 004ccc0c f   Login.obj
 0001:000cbc2c       ?GetRoleInfo@KLogin@@QAEHHPAUKRoleChiefInfo@@@Z 004ccc2c f   Login.obj
 0001:000cbc7c       ?ProcessAccountLoginResponse@KLogin@@AAEXPAUKLoginStructHead@@@Z 004ccc7c f   Login.obj
 0001:000cbe90       ?ProcessRoleListResponse@KLogin@@AAEXPAUTProcessData@@@Z 004cce90 f   Login.obj
 0001:000cbff1       ?ProcessCreateRoleResponse@KLogin@@AAEXPAUtagNewDelRoleResponse@@@Z 004ccff1 f   Login.obj
 0001:000cc07f       ?ProcessDeleteRoleResponse@KLogin@@AAEXPAUtagNewDelRoleResponse@@@Z 004cd07f f   Login.obj
 0001:000cc204       ?ProcessAccountExtPointResponse@KLogin@@AAEXPAUKLoginStructHead@@@Z 004cd204 f   Login.obj
 0001:000cc375       ?ProcessToLoginGameServResponse@KLogin@@AAEXPAUtagNotifyPlayerLogin@@@Z 004cd375 f   Login.obj
 0001:000cc43b       ?AcceptNetMsg@KLogin@@UAEXPAX@Z 004cd43b f   Login.obj
 0001:000cc500       ?GetResult@KLogin@@QAE?AW4LOGIN_LOGIC_RESULT_INFO@@XZ 004cd500 f   Login.obj
 0001:000cc531       ?GetRoleCount@KLogin@@QAEHAAH@Z 004cd531 f   Login.obj
 0001:000cc5c3       ?GetLoginAccount@KLogin@@QAE_NPAD@Z 004cd5c3 f   Login.obj
 0001:000cc5fe       ?LoadLoginChoice@KLogin@@QAEXXZ 004cd5fe f   Login.obj
 0001:000cc85b       ?SaveLoginChoice@KLogin@@QAEXXZ 004cd85b f   Login.obj
 0001:000ccc4e       ?GetServerRegionList@KLogin@@QAEPAUKLoginServer@@AAH0@Z 004cdc4e f   Login.obj
 0001:000cce79       ?GetServerList@KLogin@@QAEPAUKLoginServer@@HAAH0@Z 004cde79 f   Login.obj
 0001:000cd2a9       ?SetAccountServer@KLogin@@QAEHABUKLoginServer@@@Z 004ce2a9 f   Login.obj
 0001:000cd2d9       ?GetVirtualKeyboard@KLogin@@QAE_NXZ 004ce2d9 f   Login.obj
 0001:000cd2f4       ?Request@KLogin@@AAEHPBDPBUtagKSG_PASSWORD@@H@Z 004ce2f4 f   Login.obj
 0001:000cd441       ?ConnectAccountServer@KLogin@@AAEHPBE@Z 004ce441 f   Login.obj
 0001:000cd472       ?RegistNetAgent@KLogin@@AAEXXZ 004ce472 f   Login.obj
 0001:000cd4d1       ?UnRegistNetAgent@KLogin@@AAEXXZ 004ce4d1 f   Login.obj
 0001:000cd528       ?SetAccountPassword@KLogin@@AAEXPBDPBUtagKSG_PASSWORD@@@Z 004ce528 f   Login.obj
 0001:000cd5fe       ?GetAccountPassword@KLogin@@AAEXPADPAUtagKSG_PASSWORD@@@Z 004ce5fe f   Login.obj
 0001:000cd6c0       ??0iKNetMsgTargetObject@@QAE@XZ 004ce6c0 f i Login.obj
 0001:000cd6e0       ?TextMsgFilter@@YAHPBDH@Z  004ce6e0 f   TextCtrlCmd.obj
 0001:000cd740       ?Error_SetErrorCode@@YAXI@Z 004ce740 f   ErrorCode.obj
 0001:000cd74d       ?Error_SetErrorString@@YAXPBD@Z 004ce74d f   ErrorCode.obj
 0001:000cd77f       ?Error_Box@@YAXXZ          004ce77f f   ErrorCode.obj
 0001:000cda6e       _PathRemoveFileSpecA@4     004cea6e f   shlwapi:SHLWAPI.dll
 0001:000cda74       _PathRemoveExtensionA@4    004cea74 f   shlwapi:SHLWAPI.dll
 0001:000cda7a       _PathFindFileNameA@4       004cea7a f   shlwapi:SHLWAPI.dll
 0001:000cda80       _lua_tostring              004cea80 f   lualibdll:LuaLibDll.dll
 0001:000cda86       _lua_gettop                004cea86 f   lualibdll:LuaLibDll.dll
 0001:000cda8c       _lua_tonumber              004cea8c f   lualibdll:LuaLibDll.dll
 0001:000cda92       _lua_type                  004cea92 f   lualibdll:LuaLibDll.dll
 0001:000cda98       _lua_pushnumber            004cea98 f   lualibdll:LuaLibDll.dll
 0001:000cda9e       _lua_pushstring            004cea9e f   lualibdll:LuaLibDll.dll
 0001:000cdaa4       _lua_isnumber              004ceaa4 f   lualibdll:LuaLibDll.dll
 0001:000cdaaa       _GetTickCount@0            004ceaaa f   kernel32:KERNEL32.dll
 0001:000cdab0       _DeleteFileA@4             004ceab0 f   kernel32:KERNEL32.dll
 0001:000cdab6       _GetTempFileNameA@16       004ceab6 f   kernel32:KERNEL32.dll
 0001:000cdabc       _GetTempPathA@8            004ceabc f   kernel32:KERNEL32.dll
 0001:000cdac2       _GlobalUnlock@4            004ceac2 f   kernel32:KERNEL32.dll
 0001:000cdac8       _GlobalLock@4              004ceac8 f   kernel32:KERNEL32.dll
 0001:000cdace       _GlobalAlloc@8             004ceace f   kernel32:KERNEL32.dll
 0001:000cdad4       _MulDiv@12                 004cead4 f   kernel32:KERNEL32.dll
 0001:000cdada       _FreeLibrary@4             004ceada f   kernel32:KERNEL32.dll
 0001:000cdae0       _GetProcAddress@8          004ceae0 f   kernel32:KERNEL32.dll
 0001:000cdae6       _LoadLibraryA@4            004ceae6 f   kernel32:KERNEL32.dll
 0001:000cdaec       _SystemTimeToTzSpecificLocalTime@12 004ceaec f   kernel32:KERNEL32.dll
 0001:000cdaf2       _RemoveDirectoryA@4        004ceaf2 f   kernel32:KERNEL32.dll
 0001:000cdaf8       _FindClose@4               004ceaf8 f   kernel32:KERNEL32.dll
 0001:000cdafe       _FindNextFileA@8           004ceafe f   kernel32:KERNEL32.dll
 0001:000cdb04       _SetFileAttributesA@8      004ceb04 f   kernel32:KERNEL32.dll
 0001:000cdb0a       _FindFirstFileA@8          004ceb0a f   kernel32:KERNEL32.dll
 0001:000cdb10       _GetVersion@0              004ceb10 f   kernel32:KERNEL32.dll
 0001:000cdb16       _GetTimeFormatA@24         004ceb16 f   kernel32:KERNEL32.dll
 0001:000cdb1c       _GetDateFormatA@24         004ceb1c f   kernel32:KERNEL32.dll
 0001:000cdb22       _FileTimeToSystemTime@8    004ceb22 f   kernel32:KERNEL32.dll
 0001:000cdb28       _FileTimeToLocalFileTime@8 004ceb28 f   kernel32:KERNEL32.dll
 0001:000cdb2e       _CloseHandle@4             004ceb2e f   kernel32:KERNEL32.dll
 0001:000cdb34       _GetFileTime@16            004ceb34 f   kernel32:KERNEL32.dll
 0001:000cdb3a       _CreateFileA@28            004ceb3a f   kernel32:KERNEL32.dll
 0001:000cdb40       _GetModuleFileNameA@12     004ceb40 f   kernel32:KERNEL32.dll
 0001:000cdb46       _FreeConsole@0             004ceb46 f   kernel32:KERNEL32.dll
 0001:000cdb4c       _AllocConsole@0            004ceb4c f   kernel32:KERNEL32.dll
 0001:000cdb52       _Sleep@4                   004ceb52 f   kernel32:KERNEL32.dll
 0001:000cdb58       _SetCursor@4               004ceb58 f   user32:USER32.dll
 0001:000cdb5e       _LoadCursorA@8             004ceb5e f   user32:USER32.dll
 0001:000cdb64       _LoadCursorFromFileA@4     004ceb64 f   user32:USER32.dll
 0001:000cdb6a       _ShowCursor@4              004ceb6a f   user32:USER32.dll
 0001:000cdb70       _SetCaretPos@8             004ceb70 f   user32:USER32.dll
 0001:000cdb76       _CloseClipboard@0          004ceb76 f   user32:USER32.dll
 0001:000cdb7c       _SetClipboardData@8        004ceb7c f   user32:USER32.dll
 0001:000cdb82       _EmptyClipboard@0          004ceb82 f   user32:USER32.dll
 0001:000cdb88       _OpenClipboard@4           004ceb88 f   user32:USER32.dll
 0001:000cdb8e       _GetClipboardData@4        004ceb8e f   user32:USER32.dll
 0001:000cdb94       _GetKeyState@4             004ceb94 f   user32:USER32.dll
 0001:000cdb9a       _SetCursorPos@8            004ceb9a f   user32:USER32.dll
 0001:000cdba0       _ClientToScreen@8          004ceba0 f   user32:USER32.dll
 0001:000cdba6       _MessageBoxA@16            004ceba6 f   user32:USER32.dll
 0001:000cdbac       _ShowWindow@8              004cebac f   user32:USER32.dll
 0001:000cdbb2       _UpdateWindow@4            004cebb2 f   user32:USER32.dll
 0001:000cdbb8       _LoadImageA@24             004cebb8 f   user32:USER32.dll
 0001:000cdbbe       _DefWindowProcA@16         004cebbe f   user32:USER32.dll
 0001:000cdbc4       _SendMessageA@16           004cebc4 f   user32:USER32.dll
 0001:000cdbca       _SetWindowTextA@8          004cebca f   user32:USER32.dll
 0001:000cdbd0       _DeleteObject@4            004cebd0 f   gdi32:GDI32.dll
 0001:000cdbd6       _SHGetSpecialFolderPathA@16 004cebd6 f   shell32:SHELL32.dll
 0001:000cdbdc       _ShellExecuteA@24          004cebdc f   shell32:SHELL32.dll
 0001:000cdbe2       _Shell_NotifyIconA@8       004cebe2 f   shell32:SHELL32.dll
 0001:000cdbe8       _TEncodeText               004cebe8 f   engine:Engine.dll
 0001:000cdbee       _TGetEncodedTextLineCount  004cebee f   engine:Engine.dll
 0001:000cdbf4       ??1KIniFile@@QAE@XZ        004cebf4 f   engine:Engine.dll
 0001:000cdbfa       ?GetString@KIniFile@@QAEHPBD00PADK@Z 004cebfa f   engine:Engine.dll
 0001:000cdc00       ?GetInteger@KIniFile@@QAEHPBD0HPAH@Z 004cec00 f   engine:Engine.dll
 0001:000cdc06       ?GetShort@KIniFile@@QAEHPBD0FPAF@Z 004cec06 f   engine:Engine.dll
 0001:000cdc0c       ?Load@KIniFile@@QAEHPBD@Z  004cec0c f   engine:Engine.dll
 0001:000cdc12       ??0KIniFile@@QAE@XZ        004cec12 f   engine:Engine.dll
 0001:000cdc18       _TFindSpecialCtrlInEncodedText 004cec18 f   engine:Engine.dll
 0001:000cdc1e       ?g_CreatePath@@YAXPAD@Z    004cec1e f   engine:Engine.dll
 0001:000cdc24       _AdviseEngine              004cec24 f   engine:Engine.dll
 0001:000cdc2a       _UnAdviseEngine            004cec2a f   engine:Engine.dll
 0001:000cdc30       ??1KPakFile@@QAE@XZ        004cec30 f   engine:Engine.dll
 0001:000cdc36       ??1KFile@@QAE@XZ           004cec36 f   engine:Engine.dll
 0001:000cdc3c       ?Close@KFile@@QAEXXZ       004cec3c f   engine:Engine.dll
 0001:000cdc42       ?Close@KPakFile@@QAEXXZ    004cec42 f   engine:Engine.dll
 0001:000cdc48       ?Write@KFile@@QAEKPAXK@Z   004cec48 f   engine:Engine.dll
 0001:000cdc4e       ?Read@KPakFile@@QAEKPAXI@Z 004cec4e f   engine:Engine.dll
 0001:000cdc54       ?Size@KPakFile@@QAEKXZ     004cec54 f   engine:Engine.dll
 0001:000cdc5a       ?Open@KPakFile@@QAEHPBD@Z  004cec5a f   engine:Engine.dll
 0001:000cdc60       ?Create@KFile@@QAEHPAD@Z   004cec60 f   engine:Engine.dll
 0001:000cdc66       ??0KFile@@QAE@XZ           004cec66 f   engine:Engine.dll
 0001:000cdc6c       ??0KPakFile@@QAE@XZ        004cec6c f   engine:Engine.dll
 0001:000cdc72       ??0KIme@@QAE@XZ            004cec72 f   engine:Engine.dll
 0001:000cdc78       ??1KIme@@QAE@XZ            004cec78 f   engine:Engine.dll
 0001:000cdc7e       ?CloseIME@KIme@@QAEXXZ     004cec7e f   engine:Engine.dll
 0001:000cdc84       ?DisableLanguageChange@KIme@@QAEXXZ 004cec84 f   engine:Engine.dll
 0001:000cdc8a       ?IsIme@KIme@@QAEHXZ        004cec8a f   engine:Engine.dll
 0001:000cdc90       ?SetCaretPos@KIme@@QAEXHH@Z 004cec90 f   engine:Engine.dll
 0001:000cdc96       ?OpenIME@KIme@@QAEXXZ      004cec96 f   engine:Engine.dll
 0001:000cdc9c       ?EnableLanguageChange@KIme@@QAEXXZ 004cec9c f   engine:Engine.dll
 0001:000cdca2       _TSplitString              004ceca2 f   engine:Engine.dll
 0001:000cdca8       _TGetLimitLenString        004ceca8 f   engine:Engine.dll
 0001:000cdcae       _TRemoveCtrlInEncodedText  004cecae f   engine:Engine.dll
 0001:000cdcb4       ?GetInteger2@KIniFile@@QAEXPBD0PAH1@Z 004cecb4 f   engine:Engine.dll
 0001:000cdcba       ?g_GetMainHWnd@@YAPAUHWND__@@XZ 004cecba f   engine:Engine.dll
 0001:000cdcc0       ?KSG_StringToMD5String@@YAHQADQBD@Z 004cecc0 f   engine:Engine.dll
 0001:000cdcc6       ?GetStruct@KIniFile@@QAEXPBD0PAXK@Z 004cecc6 f   engine:Engine.dll
 0001:000cdccc       ?EraseKey@KIniFile@@QAEXPBD0@Z 004ceccc f   engine:Engine.dll
 0001:000cdcd2       ?WriteStruct@KIniFile@@QAEXPBD0PAXK@Z 004cecd2 f   engine:Engine.dll
 0001:000cdcd8       ?WriteInteger@KIniFile@@QAEXPBD0H@Z 004cecd8 f   engine:Engine.dll
 0001:000cdcde       ?g_DebugLog@@YAXPADZZ      004cecde f   engine:Engine.dll
 0001:000cdce4       ?WriteString@KIniFile@@QAEXPBD00@Z 004cece4 f   engine:Engine.dll
 0001:000cdcea       _TGetChatItemLineCount     004cecea f   engine:Engine.dll
 0001:000cdcf0       ?g_FileName2Id@@YAKPAD@Z   004cecf0 f   engine:Engine.dll
 0001:000cdcf6       ?GetShort2@KIniFile@@QAEXPBD0PAF1@Z 004cecf6 f   engine:Engine.dll
 0001:000cdcfc       _TClearSpecialCtrlInEncodedText 004cecfc f   engine:Engine.dll
 0001:000cdd02       ?Read@KFile@@QAEKPAXK@Z    004ced02 f   engine:Engine.dll
 0001:000cdd08       ?Open@KFile@@QAEHPAD@Z     004ced08 f   engine:Engine.dll
 0001:000cdd0e       ?g_GetFullPath@@YAXPAD0@Z  004ced0e f   engine:Engine.dll
 0001:000cdd14       ?Clear@KIniFile@@QAEXXZ    004ced14 f   engine:Engine.dll
 0001:000cdd1a       _TGetEncodedTextEffectCtrls 004ced1a f   engine:Engine.dll
 0001:000cdd20       _TSplitEncodedString       004ced20 f   engine:Engine.dll
 0001:000cdd26       _TGetEncodedTextOutputLenPos 004ced26 f   engine:Engine.dll
 0001:000cdd2c       ?IsSectionExist@KIniFile@@QAEHPBD@Z 004ced2c f   engine:Engine.dll
 0001:000cdd32       ?Save@KIniFile@@QAEHPBD@Z  004ced32 f   engine:Engine.dll
 0001:000cdd38       ?EraseSection@KIniFile@@QAEXPBD@Z 004ced38 f   engine:Engine.dll
 0001:000cdd3e       ??0KLuaScript@@QAE@XZ      004ced3e f   engine:Engine.dll
 0001:000cdd44       ??1KLuaScript@@UAE@XZ      004ced44 f   engine:Engine.dll
 0001:000cdd4a       ?g_GetRootPath@@YAXPAD@Z   004ced4a f   engine:Engine.dll
 0001:000cdd50       ?RegisterFunctions@KLuaScript@@QAEHQAUTLua_Funcs@@H@Z 004ced50 f   engine:Engine.dll
 0001:000cdd56       ?Init@KLuaScript@@UAEHXZ   004ced56 f   engine:Engine.dll
 0001:000cdd5c       ?Load@KLuaScript@@UAEHPAD@Z 004ced5c f   engine:Engine.dll
 0001:000cdd62       ?ExecuteCode@KLuaScript@@QAEHXZ 004ced62 f   engine:Engine.dll
 0001:000cdd68       ?LoadBuffer@KLuaScript@@QAEHPAEK@Z 004ced68 f   engine:Engine.dll
 0001:000cdd6e       ?TurnOn@KIme@@QAEXXZ       004ced6e f   engine:Engine.dll
 0001:000cdd74       ??0KTimer@@QAE@XZ          004ced74 f   engine:Engine.dll
 0001:000cdd7a       ?GetFPS@KTimer@@QAEHPAH@Z  004ced7a f   engine:Engine.dll
 0001:000cdd80       ?Start@KTimer@@QAEXXZ      004ced80 f   engine:Engine.dll
 0001:000cdd86       ?GetElapse@KTimer@@QAEKXZ  004ced86 f   engine:Engine.dll
 0001:000cdd8c       _EDOneTimePad_Decipher     004ced8c f   engine:Engine.dll
 0001:000cdd92       ??1KMp3Music@@UAE@XZ       004ced92 f   engine:Engine.dll
 0001:000cdd98       ??1KDirectSound@@QAE@XZ    004ced98 f   engine:Engine.dll
 0001:000cdd9e       ??0KPakList@@QAE@XZ        004ced9e f   engine:Engine.dll
 0001:000cdda4       ??1KPakList@@QAE@XZ        004ceda4 f   engine:Engine.dll
 0001:000cddaa       ?Run@KWin32App@@UAEXXZ     004cedaa f   engine:Engine.dll
 0001:000cddb0       ?Init@KWin32App@@UAEHPAUHINSTANCE__@@PAD@Z 004cedb0 f   engine:Engine.dll
 0001:000cddb6       ?MsgProc@KWin32App@@UAEJPAUHWND__@@IIJ@Z 004cedb6 f   engine:Engine.dll
 0001:000cddbc       ?SetMultiGame@KWin32App@@UAEXH@Z 004cedbc f   engine:Engine.dll
 0001:000cddc2       ?ShowMouse@KWin32App@@UAEXH@Z 004cedc2 f   engine:Engine.dll
 0001:000cddc8       ?InitWindow@KWin32App@@MAEHPAUHINSTANCE__@@@Z 004cedc8 f   engine:Engine.dll
 0001:000cddce       ?InitClass@KWin32App@@MAEHPAUHINSTANCE__@@@Z 004cedce f   engine:Engine.dll
 0001:000cddd4       ??0KDirectSound@@QAE@XZ    004cedd4 f   engine:Engine.dll
 0001:000cddda       ??0KMp3Music@@QAE@XZ       004cedda f   engine:Engine.dll
 0001:000cdde0       ??0KWin32App@@QAE@XZ       004cede0 f   engine:Engine.dll
 0001:000cdde6       ?SetMouseHoverTime@KWin32App@@QAEXI@Z 004cede6 f   engine:Engine.dll
 0001:000cddec       ?Init@KDirectSound@@QAEHXZ 004cedec f   engine:Engine.dll
 0001:000cddf2       ?Open@KPakList@@QAE_NPBD@Z 004cedf2 f   engine:Engine.dll
 0001:000cddf8       ?g_FindDebugWindow@@YAPAUHWND__@@PAD0@Z 004cedf8 f   engine:Engine.dll
 0001:000cddfe       ?g_SetFilePath@@YAXPAD@Z   004cedfe f   engine:Engine.dll
 0001:000cde04       ?g_SetRootPath@@YAXPAD@Z   004cee04 f   engine:Engine.dll
 0001:000cde0a       ?Exit@KDirectSound@@QAEXXZ 004cee0a f   engine:Engine.dll
 0001:000cde10       ?NotifiIconState@KWin32App@@QAEHXZ 004cee10 f   engine:Engine.dll
 0001:000cde16       _EDOneTimePad_Encipher     004cee16 f   engine:Engine.dll
 0001:000cde1c       ?g_pClientLic@@YAXPAD@Z    004cee1c f   engine:Engine.dll
 0001:000cde22       _CoreGetShell              004cee22 f   CoreClient:CoreClient.dll
 0001:000cde28       __chkesp                   004cee28 f   MSVCRTD:MSVCRTD.dll
 0001:000cde2e       _strcmp                    004cee2e f   MSVCRTD:MSVCRTD.dll
 0001:000cde34       _floor                     004cee34 f   MSVCRTD:MSVCRTD.dll
 0001:000cde40       __ftol                     004cee40 f   MSVCRTD:MSVCRTD.dll
 0001:000cde50       __alloca_probe             004cee50 f   MSVCRTD:chkstk.obj
 0001:000cde50       __chkstk                   004cee50 f   MSVCRTD:chkstk.obj
 0001:000cde80       _strlen                    004cee80 f   MSVCRTD:MSVCRTD.dll
 0001:000cde86       _memset                    004cee86 f   MSVCRTD:MSVCRTD.dll
 0001:000cde8c       _memcpy                    004cee8c f   MSVCRTD:MSVCRTD.dll
 0001:000cde92       _strcpy                    004cee92 f   MSVCRTD:MSVCRTD.dll
 0001:000cde98       _sprintf                   004cee98 f   MSVCRTD:MSVCRTD.dll
 0001:000cde9e       ___CxxFrameHandler         004cee9e f   MSVCRTD:MSVCRTD.dll
 0001:000cdea4       _free                      004ceea4 f   MSVCRTD:MSVCRTD.dll
 0001:000cdeaa       _strcat                    004ceeaa f   MSVCRTD:MSVCRTD.dll
 0001:000cdeb0       _strftime                  004ceeb0 f   MSVCRTD:MSVCRTD.dll
 0001:000cdeb6       _localtime                 004ceeb6 f   MSVCRTD:MSVCRTD.dll
 0001:000cdebc       _time                      004ceebc f   MSVCRTD:MSVCRTD.dll
 0001:000cdec2       __purecall                 004ceec2 f   MSVCRTD:MSVCRTD.dll
 0001:000cdec8       _strncpy                   004ceec8 f   MSVCRTD:MSVCRTD.dll
 0001:000cdece       __CrtDbgReport             004ceece f   MSVCRTD:MSVCRTD.dll
 0001:000cded4       ??3@YAXPAX@Z               004ceed4 f   MSVCRTD:MSVCRTD.dll
 0001:000cdeda       ??2@YAPAXI@Z               004ceeda f   MSVCRTD:MSVCRTD.dll
 0001:000cdee0       __onexit                   004ceee0 f   MSVCRTD:atonexit.obj
 0001:000cdf20       _atexit                    004cef20 f   MSVCRTD:atonexit.obj
 0001:000cdf38       _memmove                   004cef38 f   MSVCRTD:MSVCRTD.dll
 0001:000cdf3e       _atoi                      004cef3e f   MSVCRTD:MSVCRTD.dll
 0001:000cdf44       _malloc                    004cef44 f   MSVCRTD:MSVCRTD.dll
 0001:000cdf4a       _realloc                   004cef4a f   MSVCRTD:MSVCRTD.dll
 0001:000cdf50       _memcmp                    004cef50 f   MSVCRTD:MSVCRTD.dll
 0001:000cdf56       __itoa                     004cef56 f   MSVCRTD:MSVCRTD.dll
 0001:000cdf60       ??_L@YGXPAXIHP6EX0@Z1@Z    004cef60 f   MSVCRTD:ehvecctr.obj
 0001:000ce000       ??_M@YGXPAXIHP6EX0@Z@Z     004cf000 f   MSVCRTD:ehvecdtr.obj
 0001:000ce0b0       ?__ArrayUnwind@@YGXPAXIHP6EX0@Z@Z 004cf0b0 f   MSVCRTD:ehvecdtr.obj
 0001:000ce15c       _rand                      004cf15c f   MSVCRTD:MSVCRTD.dll
 0001:000ce162       _strstr                    004cf162 f   MSVCRTD:MSVCRTD.dll
 0001:000ce168       __strcmpi                  004cf168 f   MSVCRTD:MSVCRTD.dll
 0001:000ce16e       __mbsicmp                  004cf16e f   MSVCRTD:MSVCRTD.dll
 0001:000ce174       _srand                     004cf174 f   MSVCRTD:MSVCRTD.dll
 0001:000ce17a       _strtok                    004cf17a f   MSVCRTD:MSVCRTD.dll
 0001:000ce180       __access                   004cf180 f   MSVCRTD:MSVCRTD.dll
 0001:000ce186       _mktime                    004cf186 f   MSVCRTD:MSVCRTD.dll
 0001:000ce18c       _fclose                    004cf18c f   MSVCRTD:MSVCRTD.dll
 0001:000ce192       _fopen                     004cf192 f   MSVCRTD:MSVCRTD.dll
 0001:000ce198       _remove                    004cf198 f   MSVCRTD:MSVCRTD.dll
 0001:000ce19e       __strlwr                   004cf19e f   MSVCRTD:MSVCRTD.dll
 0001:000ce1a4       _isgraph                   004cf1a4 f   MSVCRTD:MSVCRTD.dll
 0001:000ce1aa       _strchr                    004cf1aa f   MSVCRTD:MSVCRTD.dll
 0001:000ce1b0       __alldiv                   004cf1b0 f   MSVCRTD:lldiv.obj
 0001:000ce260       __allmul                   004cf260 f   MSVCRTD:llmul.obj
 0001:000ce294       _sscanf                    004cf294 f   MSVCRTD:MSVCRTD.dll
 0001:000ce2a0       _WinMainCRTStartup         004cf2a0 f   MSVCRTD:crtexew.obj
 0001:000ce49a       ___dllonexit               004cf49a f   MSVCRTD:MSVCRTD.dll
 0001:000ce4a0       __except_handler3          004cf4a0 f   MSVCRTD:MSVCRTD.dll
 0001:000ce4a6       ?terminate@@YAXXZ          004cf4a6 f   MSVCRTD:MSVCRTD.dll
 0001:000ce4ac       __exit                     004cf4ac f   MSVCRTD:MSVCRTD.dll
 0001:000ce4b2       __XcptFilter               004cf4b2 f   MSVCRTD:MSVCRTD.dll
 0001:000ce4b8       _exit                      004cf4b8 f   MSVCRTD:MSVCRTD.dll
 0001:000ce4be       ___getmainargs             004cf4be f   MSVCRTD:MSVCRTD.dll
 0001:000ce4c4       __initterm                 004cf4c4 f   MSVCRTD:MSVCRTD.dll
 0001:000ce4d0       __setdefaultprecision      004cf4d0 f   MSVCRTD:fp8.obj
 0001:000ce4e8       ___setusermatherr          004cf4e8 f   MSVCRTD:MSVCRTD.dll
 0001:000ce4f0       __matherr                  004cf4f0 f   MSVCRTD:merr.obj
 0001:000ce500       __setargv                  004cf500 f   MSVCRTD:dllargv.obj
 0001:000ce506       ___p__commode              004cf506 f   MSVCRTD:MSVCRTD.dll
 0001:000ce50c       ___p__fmode                004cf50c f   MSVCRTD:MSVCRTD.dll
 0001:000ce512       ___set_app_type            004cf512 f   MSVCRTD:MSVCRTD.dll
 0001:000ce518       __controlfp                004cf518 f   MSVCRTD:MSVCRTD.dll
 0001:000ce520       ??1?$basic_string@DU?$char_traits@D@std@@V?$allocator@D@2@@std@@QAE@XZ 004cf520 f   msvcprtd:MSVCP60D.dll
 0001:000ce526       ??0?$basic_string@DU?$char_traits@D@std@@V?$allocator@D@2@@std@@QAE@PBDABV?$allocator@D@1@@Z 004cf526 f   msvcprtd:MSVCP60D.dll
 0001:000ce52c       ?c_str@?$basic_string@DU?$char_traits@D@std@@V?$allocator@D@2@@std@@QBEPBDXZ 004cf52c f   msvcprtd:MSVCP60D.dll
 0001:000ce532       ?size@?$basic_string@DU?$char_traits@D@std@@V?$allocator@D@2@@std@@QBEIXZ 004cf532 f   msvcprtd:MSVCP60D.dll
 0001:000ce538       ??1_Lockit@std@@QAE@XZ     004cf538 f   msvcprtd:MSVCP60D.dll
 0001:000ce53e       ??0_Lockit@std@@QAE@XZ     004cf53e f   msvcprtd:MSVCP60D.dll
 0001:000ce544       ??0Init@ios_base@std@@QAE@XZ 004cf544 f   msvcprtd:MSVCP60D.dll
 0001:000ce54a       ??1Init@ios_base@std@@QAE@XZ 004cf54a f   msvcprtd:MSVCP60D.dll
 0001:000ce550       ??0_Winit@std@@QAE@XZ      004cf550 f   msvcprtd:MSVCP60D.dll
 0001:000ce556       ??1_Winit@std@@QAE@XZ      004cf556 f   msvcprtd:MSVCP60D.dll
 0001:000ce55c       ??_D?$basic_stringstream@DU?$char_traits@D@std@@V?$allocator@D@2@@std@@QAEXXZ 004cf55c f   msvcprtd:MSVCP60D.dll
 0001:000ce562       ??5?$basic_istream@DU?$char_traits@D@std@@@std@@QAEAAV01@AAH@Z 004cf562 f   msvcprtd:MSVCP60D.dll
 0001:000ce568       ??0?$basic_stringstream@DU?$char_traits@D@std@@V?$allocator@D@2@@std@@QAE@ABV?$basic_string@DU?$char_traits@D@std@@V?$allocator@D@2@@1@H@Z 004cf568 f   msvcprtd:MSVCP60D.dll
 0001:000ce56e       ??0?$basic_string@DU?$char_traits@D@std@@V?$allocator@D@2@@std@@QAE@ABV01@@Z 004cf56e f   msvcprtd:MSVCP60D.dll
 0001:000ce574       ??Y?$basic_string@DU?$char_traits@D@std@@V?$allocator@D@2@@std@@QAEAAV01@ABV01@@Z 004cf574 f   msvcprtd:MSVCP60D.dll
 0001:000ce57a       ??Y?$basic_string@DU?$char_traits@D@std@@V?$allocator@D@2@@std@@QAEAAV01@PBD@Z 004cf57a f   msvcprtd:MSVCP60D.dll
 0001:000ce580       ??4?$basic_string@DU?$char_traits@D@std@@V?$allocator@D@2@@std@@QAEAAV01@PBD@Z 004cf580 f   msvcprtd:MSVCP60D.dll
 0001:000ce586       ??0?$basic_string@DU?$char_traits@D@std@@V?$allocator@D@2@@std@@QAE@ABV?$allocator@D@1@@Z 004cf586 f   msvcprtd:MSVCP60D.dll
 0001:000ce58c       ?empty@?$basic_string@DU?$char_traits@D@std@@V?$allocator@D@2@@std@@QBE_NXZ 004cf58c f   msvcprtd:MSVCP60D.dll
 0001:000ce592       ??4?$basic_string@DU?$char_traits@D@std@@V?$allocator@D@2@@std@@QAEAAV01@ABV01@@Z 004cf592 f   msvcprtd:MSVCP60D.dll
 0001:000ce598       ??8std@@YA_NABV?$basic_string@DU?$char_traits@D@std@@V?$allocator@D@2@@0@0@Z 004cf598 f   msvcprtd:MSVCP60D.dll
 0001:000ce59e       ??8std@@YA_NABV?$basic_string@DU?$char_traits@D@std@@V?$allocator@D@2@@0@PBD@Z 004cf59e f   msvcprtd:MSVCP60D.dll
 0001:000ce5a4       ??4?$basic_string@DU?$char_traits@D@std@@V?$allocator@D@2@@std@@QAEAAV01@D@Z 004cf5a4 f   msvcprtd:MSVCP60D.dll
 0001:000ce5aa       ??Mstd@@YA_NABV?$basic_string@DU?$char_traits@D@std@@V?$allocator@D@2@@0@0@Z 004cf5aa f   msvcprtd:MSVCP60D.dll
 0001:000ce5b0       ??0?$basic_string@DU?$char_traits@D@std@@V?$allocator@D@2@@std@@QAE@PBDIABV?$allocator@D@1@@Z 004cf5b0 f   msvcprtd:MSVCP60D.dll
 0001:000ce5c0       ?AddExpression@CTextFilter@@MAEHPBD@Z 004cf5c0 f   FilterText_StaticLib:FilterText.obj
 0001:000ce82a       ?Clearup@CTextFilter@@MAEHXZ 004cf82a f   FilterText_StaticLib:FilterText.obj
 0001:000ce906       ?IsTextPass@CTextFilter@@MAEHPBD@Z 004cf906 f   FilterText_StaticLib:FilterText.obj
 0001:000cec36       _CreateTextFilter          004cfc36 f   FilterText_StaticLib:FilterText.obj
 0001:000cec80       ?Char2HashIdx@CTextFilter@@AAEED@Z 004cfc80 f i FilterText_StaticLib:FilterText.obj
 0001:000ceca0       ?NextChar@CTextFilter@@CAPBDPBD@Z 004cfca0 f i FilterText_StaticLib:FilterText.obj
 0001:000ced20       ?CreateInstance@CTextFilter@@SAPAV1@XZ 004cfd20 f i FilterText_StaticLib:FilterText.obj
 0001:000cedb0       ??0CTextFilter@@IAE@XZ     004cfdb0 f i FilterText_StaticLib:FilterText.obj
 0001:000cee60       ?AddRef@CTextFilter@@MAGKXZ 004cfe60 f i FilterText_StaticLib:FilterText.obj
 0001:000ceeb0       ?Release@CTextFilter@@MAGKXZ 004cfeb0 f i FilterText_StaticLib:FilterText.obj
 0001:000cef50       ?QueryInterface@CTextFilter@@MAGJABU_GUID@@PAPAX@Z 004cff50 f i FilterText_StaticLib:FilterText.obj
 0001:000cef60       ??0ITextFilter@@QAE@XZ     004cff60 f i FilterText_StaticLib:FilterText.obj
 0001:000cef90       ??_F?$vector@VRegexp@@V?$allocator@VRegexp@@@std@@@std@@QAEXXZ 004cff90 f i FilterText_StaticLib:FilterText.obj
 0001:000cefd0       ??_GCTextFilter@@IAEPAXI@Z 004cffd0 f i FilterText_StaticLib:FilterText.obj
 0001:000cf010       ??1CTextFilter@@IAE@XZ     004d0010 f i FilterText_StaticLib:FilterText.obj
 0001:000cf090       ??0IUnknown@@QAE@XZ        004d0090 f i FilterText_StaticLib:FilterText.obj
 0001:000cf0b0       ??0?$vector@VRegexp@@V?$allocator@VRegexp@@@std@@@std@@QAE@ABV?$allocator@VRegexp@@@1@@Z 004d00b0 f i FilterText_StaticLib:FilterText.obj
 0001:000cf0f0       ??1?$vector@VRegexp@@V?$allocator@VRegexp@@@std@@@std@@QAE@XZ 004d00f0 f i FilterText_StaticLib:FilterText.obj
 0001:000cf170       ?size@?$vector@VRegexp@@V?$allocator@VRegexp@@@std@@@std@@QBEIXZ 004d0170 f i FilterText_StaticLib:FilterText.obj
 0001:000cf1c0       ??A?$vector@VRegexp@@V?$allocator@VRegexp@@@std@@@std@@QAEAAVRegexp@@I@Z 004d01c0 f i FilterText_StaticLib:FilterText.obj
 0001:000cf1f0       ?push_back@?$vector@VRegexp@@V?$allocator@VRegexp@@@std@@@std@@QAEXABVRegexp@@@Z 004d01f0 f i FilterText_StaticLib:FilterText.obj
 0001:000cf230       ?clear@?$vector@VRegexp@@V?$allocator@VRegexp@@@std@@@std@@QAEXXZ 004d0230 f i FilterText_StaticLib:FilterText.obj
 0001:000cf270       ?begin@?$vector@VRegexp@@V?$allocator@VRegexp@@@std@@@std@@QAEPAVRegexp@@XZ 004d0270 f i FilterText_StaticLib:FilterText.obj
 0001:000cf290       ?end@?$vector@VRegexp@@V?$allocator@VRegexp@@@std@@@std@@QAEPAVRegexp@@XZ 004d0290 f i FilterText_StaticLib:FilterText.obj
 0001:000cf2b0       ?insert@?$vector@VRegexp@@V?$allocator@VRegexp@@@std@@@std@@QAEPAVRegexp@@PAV3@ABV3@@Z 004d02b0 f i FilterText_StaticLib:FilterText.obj
 0001:000cf320       ?erase@?$vector@VRegexp@@V?$allocator@VRegexp@@@std@@@std@@QAEPAVRegexp@@PAV3@0@Z 004d0320 f i FilterText_StaticLib:FilterText.obj
 0001:000cf390       ?_Destroy@?$vector@VRegexp@@V?$allocator@VRegexp@@@std@@@std@@IAEXPAVRegexp@@0@Z 004d0390 f i FilterText_StaticLib:FilterText.obj
 0001:000cf3d0       ?deallocate@?$allocator@VRegexp@@@std@@QAEXPAXI@Z 004d03d0 f i FilterText_StaticLib:FilterText.obj
 0001:000cf400       ?insert@?$vector@VRegexp@@V?$allocator@VRegexp@@@std@@@std@@QAEXPAVRegexp@@IABV3@@Z 004d0400 f i FilterText_StaticLib:FilterText.obj
 0001:000cf660       ?destroy@?$allocator@VRegexp@@@std@@QAEXPAVRegexp@@@Z 004d0660 f i FilterText_StaticLib:FilterText.obj
 0001:000cf690       ?_Ucopy@?$vector@VRegexp@@V?$allocator@VRegexp@@@std@@@std@@IAEPAVRegexp@@PBV3@0PAV3@@Z 004d0690 f i FilterText_StaticLib:FilterText.obj
 0001:000cf6e0       ?_Ufill@?$vector@VRegexp@@V?$allocator@VRegexp@@@std@@@std@@IAEXPAVRegexp@@IABV3@@Z 004d06e0 f i FilterText_StaticLib:FilterText.obj
 0001:000cf730       ?allocate@?$allocator@VRegexp@@@std@@QAEPAVRegexp@@IPBX@Z 004d0730 f i FilterText_StaticLib:FilterText.obj
 0001:000cf760       ?construct@?$allocator@VRegexp@@@std@@QAEXPAVRegexp@@ABV3@@Z 004d0760 f i FilterText_StaticLib:FilterText.obj
 0001:000cf790       ?copy@std@@YAPAVRegexp@@PAV2@00@Z 004d0790 f i FilterText_StaticLib:FilterText.obj
 0001:000cf7d0       ?fill@std@@YAXPAVRegexp@@0ABV2@@Z 004d07d0 f i FilterText_StaticLib:FilterText.obj
 0001:000cf800       ?copy_backward@std@@YAPAVRegexp@@PAV2@00@Z 004d0800 f i FilterText_StaticLib:FilterText.obj
 0001:000cf840       ?_Destroy@std@@YAXPAVRegexp@@@Z 004d0840 f i FilterText_StaticLib:FilterText.obj
 0001:000cf860       ?_Allocate@std@@YAPAVRegexp@@HPAV2@@Z 004d0860 f i FilterText_StaticLib:FilterText.obj
 0001:000cf890       ?_Construct@std@@YAXPAVRegexp@@ABV2@@Z 004d0890 f i FilterText_StaticLib:FilterText.obj
 0001:000cf920       ??_GRegexp@@QAEPAXI@Z      004d0920 f i FilterText_StaticLib:FilterText.obj
 0001:000cf960       ?regerror@CRegErrorHandler@@IBEXPBD@Z 004d0960 f   FilterText_StaticLib:Regexp.obj
 0001:000cf996       ?regerror@CRegErrorHandler@@IBEXH@Z 004d0996 f   FilterText_StaticLib:Regexp.obj
 0001:000cf9c9       ?GetErrorString@CRegErrorHandler@@QBEABV?$basic_string@DU?$char_traits@D@std@@V?$allocator@D@2@@std@@XZ 004d09c9 f   FilterText_StaticLib:Regexp.obj
 0001:000cf9de       ?ClearErrorString@CRegErrorHandler@@IBEXXZ 004d09de f   FilterText_StaticLib:Regexp.obj
 0001:000cfa10       ?FindErr@CRegErrorHandler@@CAPBDH@Z 004d0a10 f   FilterText_StaticLib:Regexp.obj
 0001:000cfa5a       ?regnode@CRegCompiler@@MAEPADH@Z 004d0a5a f   FilterText_StaticLib:Regexp.obj
 0001:000cfac8       ?reginsert@CRegCompiler@@MAEXDPAD@Z 004d0ac8 f   FilterText_StaticLib:Regexp.obj
 0001:000cfb5c       ?regtail@CRegCompiler@@MAEXPAD0@Z 004d0b5c f   FilterText_StaticLib:Regexp.obj
 0001:000cfbde       ?regoptail@CRegCompiler@@MAEXPAD0@Z 004d0bde f   FilterText_StaticLib:Regexp.obj
 0001:000cfc37       ??0CRegCompilerBase@@QAE@PBD@Z 004d0c37 f   FilterText_StaticLib:Regexp.obj
 0001:000cfc7f       ??0CRegValidator@@QAE@PBD@Z 004d0c7f f   FilterText_StaticLib:Regexp.obj
 0001:000cfd0b       ??0CRegCompiler@@QAE@PBDPAD@Z 004d0d0b f   FilterText_StaticLib:Regexp.obj
 0001:000cfd81       ??0regexp@@QAE@PBDH@Z      004d0d81 f   FilterText_StaticLib:Regexp.obj
 0001:000cff20       ??0regexp@@QAE@ABV0@@Z     004d0f20 f   FilterText_StaticLib:Regexp.obj
 0001:000d0103       ??1regexp@@QAE@XZ          004d1103 f   FilterText_StaticLib:Regexp.obj
 0001:000d01a8       ?regcomp@regexp@@QAE_NPBD@Z 004d11a8 f   FilterText_StaticLib:Regexp.obj
 0001:000d0435       ?getCopy@regexp@@QAEPAV1@XZ 004d1435 f   FilterText_StaticLib:Regexp.obj
 0001:000d04c1       ?reg@CRegCompilerBase@@QAEPADHPAH@Z 004d14c1 f   FilterText_StaticLib:Regexp.obj
 0001:000d0750       ?regbranch@CRegCompilerBase@@IAEPADPAH@Z 004d1750 f   FilterText_StaticLib:Regexp.obj
 0001:000d0854       ?regpiece@CRegCompilerBase@@IAEPADPAH@Z 004d1854 f   FilterText_StaticLib:Regexp.obj
 0001:000d0c25       ?regatom@CRegCompilerBase@@IAEPADPAH@Z 004d1c25 f   FilterText_StaticLib:Regexp.obj
 0001:000d1245       ??0CRegExecutor@@QAE@PAVregexp@@PAD@Z 004d2245 f   FilterText_StaticLib:Regexp.obj
 0001:000d1298       ?regexec@regexp@@QAE_NPBD@Z 004d2298 f   FilterText_StaticLib:Regexp.obj
 0001:000d1468       ?regtry@CRegExecutor@@IAE_NPAD@Z 004d2468 f   FilterText_StaticLib:Regexp.obj
 0001:000d1530       ?regmatch@CRegExecutor@@IAE_NPAD@Z 004d2530 f   FilterText_StaticLib:Regexp.obj
 0001:000d1a7b       ?regrepeat@CRegExecutor@@IAEIPAD@Z 004d2a7b f   FilterText_StaticLib:Regexp.obj
 0001:000d1b95       ??0Regexp@@QAE@XZ          004d2b95 f   FilterText_StaticLib:Regexp.obj
 0001:000d1beb       ??0Regexp@@QAE@PBDH@Z      004d2beb f   FilterText_StaticLib:Regexp.obj
 0001:000d1cb5       ??0Regexp@@QAE@ABV0@@Z     004d2cb5 f   FilterText_StaticLib:Regexp.obj
 0001:000d1d28       ??4Regexp@@QAEABV0@ABV0@@Z 004d2d28 f   FilterText_StaticLib:Regexp.obj
 0001:000d1e09       ??1Regexp@@QAE@XZ          004d2e09 f   FilterText_StaticLib:Regexp.obj
 0001:000d1ecb       ?Match@Regexp@@QAE_NPBD@Z  004d2ecb f   FilterText_StaticLib:Regexp.obj
 0001:000d1fd2       ?GetReplaceString@Regexp@@QBE?AV?$basic_string@DU?$char_traits@D@std@@V?$allocator@D@2@@std@@PBD@Z 004d2fd2 f   FilterText_StaticLib:Regexp.obj
 0001:000d2081       ?SubStrings@Regexp@@QBEHXZ 004d3081 f   FilterText_StaticLib:Regexp.obj
 0001:000d20f1       ?SubStart@Regexp@@QBEHI@Z  004d30f1 f   FilterText_StaticLib:Regexp.obj
 0001:000d2175       ?SubLength@Regexp@@QBEHI@Z 004d3175 f   FilterText_StaticLib:Regexp.obj
 0001:000d2207       ?CompiledOK@Regexp@@QBE_NXZ 004d3207 f   FilterText_StaticLib:Regexp.obj
 0001:000d224c       ?safeIndex@Regexp@@ABEHI@Z 004d324c f   FilterText_StaticLib:Regexp.obj
 0001:000d2281       ??ARegexp@@QBE?BV?$basic_string@DU?$char_traits@D@std@@V?$allocator@D@2@@std@@I@Z 004d3281 f   FilterText_StaticLib:Regexp.obj
 0001:000d23b7       ?ignoreCase@regexp@@QAEXPBDPAD@Z 004d33b7 f   FilterText_StaticLib:Regexp.obj
 0001:000d24d5       ?GetReplaceString@regexp@@QBE?AV?$basic_string@DU?$char_traits@D@std@@V?$allocator@D@2@@std@@PBD@Z 004d34d5 f   FilterText_StaticLib:Regexp.obj
 0001:000d29a7       ?GetErrorString@Regexp@@QBE?AV?$basic_string@DU?$char_traits@D@std@@V?$allocator@D@2@@std@@XZ 004d39a7 f   FilterText_StaticLib:Regexp.obj
 0001:000d2ab1       ?ClearErrorString@Regexp@@ABEXXZ 004d3ab1 f   FilterText_StaticLib:Regexp.obj
 0001:000d2b00       ?OP@CRegProgramAccessor@@SADPAD@Z 004d3b00 f i FilterText_StaticLib:Regexp.obj
 0001:000d2b10       ?regnext@CRegProgramAccessor@@SAPADPAD@Z 004d3b10 f i FilterText_StaticLib:Regexp.obj
 0001:000d2b80       ?OPERAND@CRegProgramAccessor@@SAPADPAD@Z 004d3b80 f i FilterText_StaticLib:Regexp.obj
 0001:000d2b90       ??0CRegProgramAccessor@@QAE@XZ 004d3b90 f i FilterText_StaticLib:Regexp.obj
 0001:000d2bc0       ??0CRegErrorHandler@@QAE@XZ 004d3bc0 f i FilterText_StaticLib:Regexp.obj
 0001:000d2c00       ?regnode@CRegValidator@@MAEPADH@Z 004d3c00 f i FilterText_StaticLib:Regexp.obj
 0001:000d2c30       ?regc@CRegValidator@@MAEXH@Z 004d3c30 f i FilterText_StaticLib:Regexp.obj
 0001:000d2c60       ?reginsert@CRegValidator@@MAEXDPAD@Z 004d3c60 f i FilterText_StaticLib:Regexp.obj
 0001:000d2c90       ?regtail@CRegValidator@@MAEXPAD0@Z 004d3c90 f i FilterText_StaticLib:Regexp.obj
 0001:000d2cb0       ?regoptail@CRegValidator@@MAEXPAD0@Z 004d3cb0 f i FilterText_StaticLib:Regexp.obj
 0001:000d2cd0       ??1CRegCompilerBase@@QAE@XZ 004d3cd0 f i FilterText_StaticLib:Regexp.obj
 0001:000d2d20       ??1CRegProgramAccessor@@QAE@XZ 004d3d20 f i FilterText_StaticLib:Regexp.obj
 0001:000d2d50       ??1CRegErrorHandler@@QAE@XZ 004d3d50 f i FilterText_StaticLib:Regexp.obj
 0001:000d2d80       ?regc@CRegCompiler@@MAEXH@Z 004d3d80 f i FilterText_StaticLib:Regexp.obj
 0001:000d2db0       ?Size@CRegValidator@@QBEJXZ 004d3db0 f i FilterText_StaticLib:Regexp.obj
 0001:000d2dd0       ??1CRegValidator@@QAE@XZ   004d3dd0 f i FilterText_StaticLib:Regexp.obj
 0001:000d2e00       ??1CRegCompiler@@QAE@XZ    004d3e00 f i FilterText_StaticLib:Regexp.obj
 0001:000d2e30       ?ISREPN@CRegCompilerBase@@IAE_ND@Z 004d3e30 f i FilterText_StaticLib:Regexp.obj
 0001:000d2e80       __tcschr                   004d3e80 f i FilterText_StaticLib:Regexp.obj
 0001:000d2eb0       __tcsstr                   004d3eb0 f i FilterText_StaticLib:Regexp.obj
 0001:000d2ee0       ??1CRegExecutor@@QAE@XZ    004d3ee0 f i FilterText_StaticLib:Regexp.obj
 0001:000d2f10       __tcsncmp                  004d3f10 f i FilterText_StaticLib:Regexp.obj
 0001:000d2f40       __tcscspn                  004d3f40 f i FilterText_StaticLib:Regexp.obj
 0001:000d2f70       __tcsspn                   004d3f70 f i FilterText_StaticLib:Regexp.obj
 0001:000d2fa0       ??_Gregexp@@QAEPAXI@Z      004d3fa0 f i FilterText_StaticLib:Regexp.obj
 0001:000d2fe0       ?Status@regexp@@QBE_NXZ    004d3fe0 f i FilterText_StaticLib:Regexp.obj
 0001:000d3000       __tcsncpy                  004d4000 f i FilterText_StaticLib:Regexp.obj
 0001:000d302c       _GetModuleHandleA@4        004d402c f   kernel32:KERNEL32.dll
 0001:000d3032       _GetStartupInfoA@4         004d4032 f   kernel32:KERNEL32.dll
 0001:000d3038       __assert                   004d4038 f   MSVCRTD:MSVCRTD.dll
 0001:000d303e       __ismbcalpha               004d403e f   MSVCRTD:MSVCRTD.dll
 0001:000d3044       __mbschr                   004d4044 f   MSVCRTD:MSVCRTD.dll
 0001:000d304a       __mbsstr                   004d404a f   MSVCRTD:MSVCRTD.dll
 0001:000d3050       _isalnum                   004d4050 f   MSVCRTD:MSVCRTD.dll
 0001:000d3056       __mbsnbcmp                 004d4056 f   MSVCRTD:MSVCRTD.dll
 0001:000d305c       __mbscspn                  004d405c f   MSVCRTD:MSVCRTD.dll
 0001:000d3062       __mbsspn                   004d4062 f   MSVCRTD:MSVCRTD.dll
 0001:000d3068       _tolower                   004d4068 f   MSVCRTD:MSVCRTD.dll
 0001:000d306e       _toupper                   004d406e f   MSVCRTD:MSVCRTD.dll
 0001:000d3074       _isalpha                   004d4074 f   MSVCRTD:MSVCRTD.dll
 0001:000d307a       _isdigit                   004d407a f   MSVCRTD:MSVCRTD.dll
 0001:000d3080       __mbsnbcpy                 004d4080 f   MSVCRTD:MSVCRTD.dll
 0001:000d3086       ?resize@?$basic_string@DU?$char_traits@D@std@@V?$allocator@D@2@@std@@QAEXI@Z 004d4086 f   msvcprtd:MSVCP60D.dll
 0001:000d308c       ?data@?$basic_string@DU?$char_traits@D@std@@V?$allocator@D@2@@std@@QBEPBDXZ 004d408c f   msvcprtd:MSVCP60D.dll
 0002:00000000       __imp__CoreGetShell        004e0000     CoreClient:CoreClient.dll
 0002:00000004       \177CoreClient_NULL_THUNK_DATA 004e0004     CoreClient:CoreClient.dll
 0002:00000008       __imp_?g_pClientLic@@YAXPAD@Z 004e0008     engine:Engine.dll
 0002:0000000c       __imp__EDOneTimePad_Encipher 004e000c     engine:Engine.dll
 0002:00000010       __imp_?NotifiIconState@KWin32App@@QAEHXZ 004e0010     engine:Engine.dll
 0002:00000014       __imp_?Exit@KDirectSound@@QAEXXZ 004e0014     engine:Engine.dll
 0002:00000018       __imp_?g_SetRootPath@@YAXPAD@Z 004e0018     engine:Engine.dll
 0002:0000001c       __imp_?g_SetFilePath@@YAXPAD@Z 004e001c     engine:Engine.dll
 0002:00000020       __imp_?g_FindDebugWindow@@YAPAUHWND__@@PAD0@Z 004e0020     engine:Engine.dll
 0002:00000024       __imp_?Open@KPakList@@QAE_NPBD@Z 004e0024     engine:Engine.dll
 0002:00000028       __imp_?Init@KDirectSound@@QAEHXZ 004e0028     engine:Engine.dll
 0002:0000002c       __imp_?SetMouseHoverTime@KWin32App@@QAEXI@Z 004e002c     engine:Engine.dll
 0002:00000030       __imp_??0KWin32App@@QAE@XZ 004e0030     engine:Engine.dll
 0002:00000034       __imp_??0KMp3Music@@QAE@XZ 004e0034     engine:Engine.dll
 0002:00000038       __imp_??0KDirectSound@@QAE@XZ 004e0038     engine:Engine.dll
 0002:0000003c       __imp_?InitClass@KWin32App@@MAEHPAUHINSTANCE__@@@Z 004e003c     engine:Engine.dll
 0002:00000040       __imp_?InitWindow@KWin32App@@MAEHPAUHINSTANCE__@@@Z 004e0040     engine:Engine.dll
 0002:00000044       __imp_?ShowMouse@KWin32App@@UAEXH@Z 004e0044     engine:Engine.dll
 0002:00000048       __imp_?SetMultiGame@KWin32App@@UAEXH@Z 004e0048     engine:Engine.dll
 0002:0000004c       __imp_?MsgProc@KWin32App@@UAEJPAUHWND__@@IIJ@Z 004e004c     engine:Engine.dll
 0002:00000050       __imp_?Init@KWin32App@@UAEHPAUHINSTANCE__@@PAD@Z 004e0050     engine:Engine.dll
 0002:00000054       __imp_?Run@KWin32App@@UAEXXZ 004e0054     engine:Engine.dll
 0002:00000058       __imp_??1KPakList@@QAE@XZ  004e0058     engine:Engine.dll
 0002:0000005c       __imp_??0KPakList@@QAE@XZ  004e005c     engine:Engine.dll
 0002:00000060       __imp_??1KDirectSound@@QAE@XZ 004e0060     engine:Engine.dll
 0002:00000064       __imp_??1KMp3Music@@UAE@XZ 004e0064     engine:Engine.dll
 0002:00000068       __imp__EDOneTimePad_Decipher 004e0068     engine:Engine.dll
 0002:0000006c       __imp_?GetElapse@KTimer@@QAEKXZ 004e006c     engine:Engine.dll
 0002:00000070       __imp_?Start@KTimer@@QAEXXZ 004e0070     engine:Engine.dll
 0002:00000074       __imp_?GetFPS@KTimer@@QAEHPAH@Z 004e0074     engine:Engine.dll
 0002:00000078       __imp_??0KTimer@@QAE@XZ    004e0078     engine:Engine.dll
 0002:0000007c       __imp_?g_pIme@@3PAVKIme@@A 004e007c     engine:Engine.dll
 0002:00000080       __imp_?LoadBuffer@KLuaScript@@QAEHPAEK@Z 004e0080     engine:Engine.dll
 0002:00000084       __imp_?ExecuteCode@KLuaScript@@QAEHXZ 004e0084     engine:Engine.dll
 0002:00000088       __imp_?Load@KLuaScript@@UAEHPAD@Z 004e0088     engine:Engine.dll
 0002:0000008c       __imp_?Init@KLuaScript@@UAEHXZ 004e008c     engine:Engine.dll
 0002:00000090       __imp_?RegisterFunctions@KLuaScript@@QAEHQAUTLua_Funcs@@H@Z 004e0090     engine:Engine.dll
 0002:00000094       __imp_?g_GetRootPath@@YAXPAD@Z 004e0094     engine:Engine.dll
 0002:00000098       __imp_??1KLuaScript@@UAE@XZ 004e0098     engine:Engine.dll
 0002:0000009c       __imp_??0KLuaScript@@QAE@XZ 004e009c     engine:Engine.dll
 0002:000000a0       __imp_?EraseSection@KIniFile@@QAEXPBD@Z 004e00a0     engine:Engine.dll
 0002:000000a4       __imp_?Save@KIniFile@@QAEHPBD@Z 004e00a4     engine:Engine.dll
 0002:000000a8       __imp_?IsSectionExist@KIniFile@@QAEHPBD@Z 004e00a8     engine:Engine.dll
 0002:000000ac       __imp__TGetEncodedTextOutputLenPos 004e00ac     engine:Engine.dll
 0002:000000b0       __imp__TSplitEncodedString 004e00b0     engine:Engine.dll
 0002:000000b4       __imp__TGetEncodedTextEffectCtrls 004e00b4     engine:Engine.dll
 0002:000000b8       __imp_?Clear@KIniFile@@QAEXXZ 004e00b8     engine:Engine.dll
 0002:000000bc       __imp_?g_GetFullPath@@YAXPAD0@Z 004e00bc     engine:Engine.dll
 0002:000000c0       __imp_?Open@KFile@@QAEHPAD@Z 004e00c0     engine:Engine.dll
 0002:000000c4       __imp_?Read@KFile@@QAEKPAXK@Z 004e00c4     engine:Engine.dll
 0002:000000c8       __imp__TClearSpecialCtrlInEncodedText 004e00c8     engine:Engine.dll
 0002:000000cc       __imp_?GetShort2@KIniFile@@QAEXPBD0PAF1@Z 004e00cc     engine:Engine.dll
 0002:000000d0       __imp_?g_FileName2Id@@YAKPAD@Z 004e00d0     engine:Engine.dll
 0002:000000d4       __imp__TGetChatItemLineCount 004e00d4     engine:Engine.dll
 0002:000000d8       __imp_?WriteString@KIniFile@@QAEXPBD00@Z 004e00d8     engine:Engine.dll
 0002:000000dc       __imp_?g_DebugLog@@YAXPADZZ 004e00dc     engine:Engine.dll
 0002:000000e0       __imp_?WriteInteger@KIniFile@@QAEXPBD0H@Z 004e00e0     engine:Engine.dll
 0002:000000e4       __imp_?WriteStruct@KIniFile@@QAEXPBD0PAXK@Z 004e00e4     engine:Engine.dll
 0002:000000e8       __imp_?EraseKey@KIniFile@@QAEXPBD0@Z 004e00e8     engine:Engine.dll
 0002:000000ec       __imp_?GetStruct@KIniFile@@QAEXPBD0PAXK@Z 004e00ec     engine:Engine.dll
 0002:000000f0       __imp_?KSG_StringToMD5String@@YAHQADQBD@Z 004e00f0     engine:Engine.dll
 0002:000000f4       __imp_?g_GetMainHWnd@@YAPAUHWND__@@XZ 004e00f4     engine:Engine.dll
 0002:000000f8       __imp_?GetInteger2@KIniFile@@QAEXPBD0PAH1@Z 004e00f8     engine:Engine.dll
 0002:000000fc       __imp__TRemoveCtrlInEncodedText 004e00fc     engine:Engine.dll
 0002:00000100       __imp__TGetLimitLenString  004e0100     engine:Engine.dll
 0002:00000104       __imp__TSplitString        004e0104     engine:Engine.dll
 0002:00000108       __imp_?EnableLanguageChange@KIme@@QAEXXZ 004e0108     engine:Engine.dll
 0002:0000010c       __imp_?OpenIME@KIme@@QAEXXZ 004e010c     engine:Engine.dll
 0002:00000110       __imp__TEncodeText         004e0110     engine:Engine.dll
 0002:00000114       __imp__TGetEncodedTextLineCount 004e0114     engine:Engine.dll
 0002:00000118       __imp_??1KIniFile@@QAE@XZ  004e0118     engine:Engine.dll
 0002:0000011c       __imp_?GetString@KIniFile@@QAEHPBD00PADK@Z 004e011c     engine:Engine.dll
 0002:00000120       __imp_?GetInteger@KIniFile@@QAEHPBD0HPAH@Z 004e0120     engine:Engine.dll
 0002:00000124       __imp_?GetShort@KIniFile@@QAEHPBD0FPAF@Z 004e0124     engine:Engine.dll
 0002:00000128       __imp_?Load@KIniFile@@QAEHPBD@Z 004e0128     engine:Engine.dll
 0002:0000012c       __imp_??0KIniFile@@QAE@XZ  004e012c     engine:Engine.dll
 0002:00000130       __imp__TFindSpecialCtrlInEncodedText 004e0130     engine:Engine.dll
 0002:00000134       __imp_?g_CreatePath@@YAXPAD@Z 004e0134     engine:Engine.dll
 0002:00000138       __imp__AdviseEngine        004e0138     engine:Engine.dll
 0002:0000013c       __imp__UnAdviseEngine      004e013c     engine:Engine.dll
 0002:00000140       __imp_??1KPakFile@@QAE@XZ  004e0140     engine:Engine.dll
 0002:00000144       __imp_??1KFile@@QAE@XZ     004e0144     engine:Engine.dll
 0002:00000148       __imp_?Close@KFile@@QAEXXZ 004e0148     engine:Engine.dll
 0002:0000014c       __imp_?Close@KPakFile@@QAEXXZ 004e014c     engine:Engine.dll
 0002:00000150       __imp_?Write@KFile@@QAEKPAXK@Z 004e0150     engine:Engine.dll
 0002:00000154       __imp_?Read@KPakFile@@QAEKPAXI@Z 004e0154     engine:Engine.dll
 0002:00000158       __imp_?Size@KPakFile@@QAEKXZ 004e0158     engine:Engine.dll
 0002:0000015c       __imp_?Open@KPakFile@@QAEHPBD@Z 004e015c     engine:Engine.dll
 0002:00000160       __imp_?Create@KFile@@QAEHPAD@Z 004e0160     engine:Engine.dll
 0002:00000164       __imp_??0KFile@@QAE@XZ     004e0164     engine:Engine.dll
 0002:00000168       __imp_??0KPakFile@@QAE@XZ  004e0168     engine:Engine.dll
 0002:0000016c       __imp_??0KIme@@QAE@XZ      004e016c     engine:Engine.dll
 0002:00000170       __imp_??1KIme@@QAE@XZ      004e0170     engine:Engine.dll
 0002:00000174       __imp_?CloseIME@KIme@@QAEXXZ 004e0174     engine:Engine.dll
 0002:00000178       __imp_?DisableLanguageChange@KIme@@QAEXXZ 004e0178     engine:Engine.dll
 0002:0000017c       __imp_?IsIme@KIme@@QAEHXZ  004e017c     engine:Engine.dll
 0002:00000180       __imp_?SetCaretPos@KIme@@QAEXHH@Z 004e0180     engine:Engine.dll
 0002:00000184       __imp_?TurnOn@KIme@@QAEXXZ 004e0184     engine:Engine.dll
 0002:00000188       \177Engine_NULL_THUNK_DATA 004e0188     engine:Engine.dll
 0002:0000018c       __imp__DeleteObject@4      004e018c     gdi32:GDI32.dll
 0002:00000190       \177GDI32_NULL_THUNK_DATA  004e0190     gdi32:GDI32.dll
 0002:00000194       __imp__GetTickCount@0      004e0194     kernel32:KERNEL32.dll
 0002:00000198       __imp__GetModuleHandleA@4  004e0198     kernel32:KERNEL32.dll
 0002:0000019c       __imp__GetStartupInfoA@4   004e019c     kernel32:KERNEL32.dll
 0002:000001a0       __imp__DeleteFileA@4       004e01a0     kernel32:KERNEL32.dll
 0002:000001a4       __imp__GetTempFileNameA@16 004e01a4     kernel32:KERNEL32.dll
 0002:000001a8       __imp__GetTempPathA@8      004e01a8     kernel32:KERNEL32.dll
 0002:000001ac       __imp__GlobalUnlock@4      004e01ac     kernel32:KERNEL32.dll
 0002:000001b0       __imp__GlobalLock@4        004e01b0     kernel32:KERNEL32.dll
 0002:000001b4       __imp__GlobalAlloc@8       004e01b4     kernel32:KERNEL32.dll
 0002:000001b8       __imp__MulDiv@12           004e01b8     kernel32:KERNEL32.dll
 0002:000001bc       __imp__FreeLibrary@4       004e01bc     kernel32:KERNEL32.dll
 0002:000001c0       __imp__GetProcAddress@8    004e01c0     kernel32:KERNEL32.dll
 0002:000001c4       __imp__LoadLibraryA@4      004e01c4     kernel32:KERNEL32.dll
 0002:000001c8       __imp__SystemTimeToTzSpecificLocalTime@12 004e01c8     kernel32:KERNEL32.dll
 0002:000001cc       __imp__RemoveDirectoryA@4  004e01cc     kernel32:KERNEL32.dll
 0002:000001d0       __imp__FindClose@4         004e01d0     kernel32:KERNEL32.dll
 0002:000001d4       __imp__FindNextFileA@8     004e01d4     kernel32:KERNEL32.dll
 0002:000001d8       __imp__SetFileAttributesA@8 004e01d8     kernel32:KERNEL32.dll
 0002:000001dc       __imp__FindFirstFileA@8    004e01dc     kernel32:KERNEL32.dll
 0002:000001e0       __imp__GetVersion@0        004e01e0     kernel32:KERNEL32.dll
 0002:000001e4       __imp__GetTimeFormatA@24   004e01e4     kernel32:KERNEL32.dll
 0002:000001e8       __imp__GetDateFormatA@24   004e01e8     kernel32:KERNEL32.dll
 0002:000001ec       __imp__FileTimeToSystemTime@8 004e01ec     kernel32:KERNEL32.dll
 0002:000001f0       __imp__FileTimeToLocalFileTime@8 004e01f0     kernel32:KERNEL32.dll
 0002:000001f4       __imp__Sleep@4             004e01f4     kernel32:KERNEL32.dll
 0002:000001f8       __imp__AllocConsole@0      004e01f8     kernel32:KERNEL32.dll
 0002:000001fc       __imp__FreeConsole@0       004e01fc     kernel32:KERNEL32.dll
 0002:00000200       __imp__GetModuleFileNameA@12 004e0200     kernel32:KERNEL32.dll
 0002:00000204       __imp__CreateFileA@28      004e0204     kernel32:KERNEL32.dll
 0002:00000208       __imp__GetFileTime@16      004e0208     kernel32:KERNEL32.dll
 0002:0000020c       __imp__CloseHandle@4       004e020c     kernel32:KERNEL32.dll
 0002:00000210       \177KERNEL32_NULL_THUNK_DATA 004e0210     kernel32:KERNEL32.dll
 0002:00000214       __imp__lua_tostring        004e0214     lualibdll:LuaLibDll.dll
 0002:00000218       __imp__lua_tonumber        004e0218     lualibdll:LuaLibDll.dll
 0002:0000021c       __imp__lua_type            004e021c     lualibdll:LuaLibDll.dll
 0002:00000220       __imp__lua_pushnumber      004e0220     lualibdll:LuaLibDll.dll
 0002:00000224       __imp__lua_pushstring      004e0224     lualibdll:LuaLibDll.dll
 0002:00000228       __imp__lua_isnumber        004e0228     lualibdll:LuaLibDll.dll
 0002:0000022c       __imp__lua_gettop          004e022c     lualibdll:LuaLibDll.dll
 0002:00000230       \177LuaLibDll_NULL_THUNK_DATA 004e0230     lualibdll:LuaLibDll.dll
 0002:00000234       __imp_?empty@?$basic_string@DU?$char_traits@D@std@@V?$allocator@D@2@@std@@QBE_NXZ 004e0234     msvcprtd:MSVCP60D.dll
 0002:00000238       __imp_??0?$basic_string@DU?$char_traits@D@std@@V?$allocator@D@2@@std@@QAE@ABV?$allocator@D@1@@Z 004e0238     msvcprtd:MSVCP60D.dll
 0002:0000023c       __imp_??4?$basic_string@DU?$char_traits@D@std@@V?$allocator@D@2@@std@@QAEAAV01@PBD@Z 004e023c     msvcprtd:MSVCP60D.dll
 0002:00000240       __imp_??Y?$basic_string@DU?$char_traits@D@std@@V?$allocator@D@2@@std@@QAEAAV01@PBD@Z 004e0240     msvcprtd:MSVCP60D.dll
 0002:00000244       __imp_??Y?$basic_string@DU?$char_traits@D@std@@V?$allocator@D@2@@std@@QAEAAV01@ABV01@@Z 004e0244     msvcprtd:MSVCP60D.dll
 0002:00000248       __imp_??0?$basic_string@DU?$char_traits@D@std@@V?$allocator@D@2@@std@@QAE@ABV01@@Z 004e0248     msvcprtd:MSVCP60D.dll
 0002:0000024c       __imp_??0?$basic_stringstream@DU?$char_traits@D@std@@V?$allocator@D@2@@std@@QAE@ABV?$basic_string@DU?$char_traits@D@std@@V?$allocator@D@2@@1@H@Z 004e024c     msvcprtd:MSVCP60D.dll
 0002:00000250       __imp_??4?$basic_string@DU?$char_traits@D@std@@V?$allocator@D@2@@std@@QAEAAV01@ABV01@@Z 004e0250     msvcprtd:MSVCP60D.dll
 0002:00000254       __imp_??_D?$basic_stringstream@DU?$char_traits@D@std@@V?$allocator@D@2@@std@@QAEXXZ 004e0254     msvcprtd:MSVCP60D.dll
 0002:00000258       __imp_??1_Winit@std@@QAE@XZ 004e0258     msvcprtd:MSVCP60D.dll
 0002:0000025c       __imp_??0_Winit@std@@QAE@XZ 004e025c     msvcprtd:MSVCP60D.dll
 0002:00000260       __imp_??1Init@ios_base@std@@QAE@XZ 004e0260     msvcprtd:MSVCP60D.dll
 0002:00000264       __imp_??0Init@ios_base@std@@QAE@XZ 004e0264     msvcprtd:MSVCP60D.dll
 0002:00000268       __imp_??0_Lockit@std@@QAE@XZ 004e0268     msvcprtd:MSVCP60D.dll
 0002:0000026c       __imp_??1_Lockit@std@@QAE@XZ 004e026c     msvcprtd:MSVCP60D.dll
 0002:00000270       __imp_??8std@@YA_NABV?$basic_string@DU?$char_traits@D@std@@V?$allocator@D@2@@0@0@Z 004e0270     msvcprtd:MSVCP60D.dll
 0002:00000274       __imp_??8std@@YA_NABV?$basic_string@DU?$char_traits@D@std@@V?$allocator@D@2@@0@PBD@Z 004e0274     msvcprtd:MSVCP60D.dll
 0002:00000278       __imp_??4?$basic_string@DU?$char_traits@D@std@@V?$allocator@D@2@@std@@QAEAAV01@D@Z 004e0278     msvcprtd:MSVCP60D.dll
 0002:0000027c       __imp_??Mstd@@YA_NABV?$basic_string@DU?$char_traits@D@std@@V?$allocator@D@2@@0@0@Z 004e027c     msvcprtd:MSVCP60D.dll
 0002:00000280       __imp_??0?$basic_string@DU?$char_traits@D@std@@V?$allocator@D@2@@std@@QAE@PBDIABV?$allocator@D@1@@Z 004e0280     msvcprtd:MSVCP60D.dll
 0002:00000284       __imp_?data@?$basic_string@DU?$char_traits@D@std@@V?$allocator@D@2@@std@@QBEPBDXZ 004e0284     msvcprtd:MSVCP60D.dll
 0002:00000288       __imp_??5?$basic_istream@DU?$char_traits@D@std@@@std@@QAEAAV01@AAH@Z 004e0288     msvcprtd:MSVCP60D.dll
 0002:0000028c       __imp_?size@?$basic_string@DU?$char_traits@D@std@@V?$allocator@D@2@@std@@QBEIXZ 004e028c     msvcprtd:MSVCP60D.dll
 0002:00000290       __imp_?c_str@?$basic_string@DU?$char_traits@D@std@@V?$allocator@D@2@@std@@QBEPBDXZ 004e0290     msvcprtd:MSVCP60D.dll
 0002:00000294       __imp_?resize@?$basic_string@DU?$char_traits@D@std@@V?$allocator@D@2@@std@@QAEXI@Z 004e0294     msvcprtd:MSVCP60D.dll
 0002:00000298       __imp_??0?$basic_string@DU?$char_traits@D@std@@V?$allocator@D@2@@std@@QAE@PBDABV?$allocator@D@1@@Z 004e0298     msvcprtd:MSVCP60D.dll
 0002:0000029c       __imp_??1?$basic_string@DU?$char_traits@D@std@@V?$allocator@D@2@@std@@QAE@XZ 004e029c     msvcprtd:MSVCP60D.dll
 0002:000002a0       \177MSVCP60D_NULL_THUNK_DATA 004e02a0     msvcprtd:MSVCP60D.dll
 0002:000002a4       __imp__strcmp              004e02a4     MSVCRTD:MSVCRTD.dll
 0002:000002a8       __imp__floor               004e02a8     MSVCRTD:MSVCRTD.dll
 0002:000002ac       __imp___ftol               004e02ac     MSVCRTD:MSVCRTD.dll
 0002:000002b0       __imp__strlen              004e02b0     MSVCRTD:MSVCRTD.dll
 0002:000002b4       __imp__memset              004e02b4     MSVCRTD:MSVCRTD.dll
 0002:000002b8       __imp__memcpy              004e02b8     MSVCRTD:MSVCRTD.dll
 0002:000002bc       __imp__strcpy              004e02bc     MSVCRTD:MSVCRTD.dll
 0002:000002c0       __imp__sprintf             004e02c0     MSVCRTD:MSVCRTD.dll
 0002:000002c4       __imp____CxxFrameHandler   004e02c4     MSVCRTD:MSVCRTD.dll
 0002:000002c8       __imp__free                004e02c8     MSVCRTD:MSVCRTD.dll
 0002:000002cc       __imp__strcat              004e02cc     MSVCRTD:MSVCRTD.dll
 0002:000002d0       __imp__strftime            004e02d0     MSVCRTD:MSVCRTD.dll
 0002:000002d4       __imp__localtime           004e02d4     MSVCRTD:MSVCRTD.dll
 0002:000002d8       __imp__time                004e02d8     MSVCRTD:MSVCRTD.dll
 0002:000002dc       __imp___purecall           004e02dc     MSVCRTD:MSVCRTD.dll
 0002:000002e0       __imp__strncpy             004e02e0     MSVCRTD:MSVCRTD.dll
 0002:000002e4       __imp___CrtDbgReport       004e02e4     MSVCRTD:MSVCRTD.dll
 0002:000002e8       __imp_??3@YAXPAX@Z         004e02e8     MSVCRTD:MSVCRTD.dll
 0002:000002ec       __imp_??2@YAPAXI@Z         004e02ec     MSVCRTD:MSVCRTD.dll
 0002:000002f0       __imp__memmove             004e02f0     MSVCRTD:MSVCRTD.dll
 0002:000002f4       __imp__atoi                004e02f4     MSVCRTD:MSVCRTD.dll
 0002:000002f8       __imp__malloc              004e02f8     MSVCRTD:MSVCRTD.dll
 0002:000002fc       __imp__realloc             004e02fc     MSVCRTD:MSVCRTD.dll
 0002:00000300       __imp__memcmp              004e0300     MSVCRTD:MSVCRTD.dll
 0002:00000304       __imp___itoa               004e0304     MSVCRTD:MSVCRTD.dll
 0002:00000304       __imp__itoa                004e0304     MSVCRTD:MSVCRTD.dll
 0002:00000308       __imp__rand                004e0308     MSVCRTD:MSVCRTD.dll
 0002:0000030c       __imp__strstr              004e030c     MSVCRTD:MSVCRTD.dll
 0002:00000310       __imp___strcmpi            004e0310     MSVCRTD:MSVCRTD.dll
 0002:00000314       __imp___mbsicmp            004e0314     MSVCRTD:MSVCRTD.dll
 0002:00000318       __imp__srand               004e0318     MSVCRTD:MSVCRTD.dll
 0002:0000031c       __imp__strtok              004e031c     MSVCRTD:MSVCRTD.dll
 0002:00000320       __imp___access             004e0320     MSVCRTD:MSVCRTD.dll
 0002:00000324       __imp__mktime              004e0324     MSVCRTD:MSVCRTD.dll
 0002:00000328       __imp__fclose              004e0328     MSVCRTD:MSVCRTD.dll
 0002:0000032c       __imp__fopen               004e032c     MSVCRTD:MSVCRTD.dll
 0002:00000330       __imp__remove              004e0330     MSVCRTD:MSVCRTD.dll
 0002:00000334       __imp___strlwr             004e0334     MSVCRTD:MSVCRTD.dll
 0002:00000338       __imp__isgraph             004e0338     MSVCRTD:MSVCRTD.dll
 0002:0000033c       __imp__strchr              004e033c     MSVCRTD:MSVCRTD.dll
 0002:00000340       __imp__sscanf              004e0340     MSVCRTD:MSVCRTD.dll
 0002:00000344       __imp____dllonexit         004e0344     MSVCRTD:MSVCRTD.dll
 0002:00000348       __imp___onexit             004e0348     MSVCRTD:MSVCRTD.dll
 0002:0000034c       __imp___except_handler3    004e034c     MSVCRTD:MSVCRTD.dll
 0002:00000350       __imp_?terminate@@YAXXZ    004e0350     MSVCRTD:MSVCRTD.dll
 0002:00000354       __imp___exit               004e0354     MSVCRTD:MSVCRTD.dll
 0002:00000358       __imp___XcptFilter         004e0358     MSVCRTD:MSVCRTD.dll
 0002:0000035c       __imp__exit                004e035c     MSVCRTD:MSVCRTD.dll
 0002:00000360       __imp___acmdln             004e0360     MSVCRTD:MSVCRTD.dll
 0002:00000364       __imp____getmainargs       004e0364     MSVCRTD:MSVCRTD.dll
 0002:00000368       __imp___initterm           004e0368     MSVCRTD:MSVCRTD.dll
 0002:0000036c       __imp____setusermatherr    004e036c     MSVCRTD:MSVCRTD.dll
 0002:00000370       __imp___adjust_fdiv        004e0370     MSVCRTD:MSVCRTD.dll
 0002:00000374       __imp____p__commode        004e0374     MSVCRTD:MSVCRTD.dll
 0002:00000378       __imp____p__fmode          004e0378     MSVCRTD:MSVCRTD.dll
 0002:0000037c       __imp____set_app_type      004e037c     MSVCRTD:MSVCRTD.dll
 0002:00000380       __imp___controlfp          004e0380     MSVCRTD:MSVCRTD.dll
 0002:00000384       __imp___chkesp             004e0384     MSVCRTD:MSVCRTD.dll
 0002:00000388       __imp___mbsnbcpy           004e0388     MSVCRTD:MSVCRTD.dll
 0002:0000038c       __imp__isdigit             004e038c     MSVCRTD:MSVCRTD.dll
 0002:00000390       __imp__isalpha             004e0390     MSVCRTD:MSVCRTD.dll
 0002:00000394       __imp__toupper             004e0394     MSVCRTD:MSVCRTD.dll
 0002:00000398       __imp__tolower             004e0398     MSVCRTD:MSVCRTD.dll
 0002:0000039c       __imp___mbsspn             004e039c     MSVCRTD:MSVCRTD.dll
 0002:000003a0       __imp___mbscspn            004e03a0     MSVCRTD:MSVCRTD.dll
 0002:000003a4       __imp___mbsnbcmp           004e03a4     MSVCRTD:MSVCRTD.dll
 0002:000003a8       __imp__isalnum             004e03a8     MSVCRTD:MSVCRTD.dll
 0002:000003ac       __imp___mbsstr             004e03ac     MSVCRTD:MSVCRTD.dll
 0002:000003b0       __imp___mbschr             004e03b0     MSVCRTD:MSVCRTD.dll
 0002:000003b4       __imp___ismbcalpha         004e03b4     MSVCRTD:MSVCRTD.dll
 0002:000003b8       __imp___assert             004e03b8     MSVCRTD:MSVCRTD.dll
 0002:000003bc       \177MSVCRTD_NULL_THUNK_DATA 004e03bc     MSVCRTD:MSVCRTD.dll
 0002:000003c0       __imp__Shell_NotifyIconA@8 004e03c0     shell32:SHELL32.dll
 0002:000003c4       __imp__ShellExecuteA@24    004e03c4     shell32:SHELL32.dll
 0002:000003c8       __imp__SHGetSpecialFolderPathA@16 004e03c8     shell32:SHELL32.dll
 0002:000003cc       \177SHELL32_NULL_THUNK_DATA 004e03cc     shell32:SHELL32.dll
 0002:000003d0       __imp__PathRemoveFileSpecA@4 004e03d0     shlwapi:SHLWAPI.dll
 0002:000003d4       __imp__PathRemoveExtensionA@4 004e03d4     shlwapi:SHLWAPI.dll
 0002:000003d8       __imp__PathFindFileNameA@4 004e03d8     shlwapi:SHLWAPI.dll
 0002:000003dc       \177SHLWAPI_NULL_THUNK_DATA 004e03dc     shlwapi:SHLWAPI.dll
 0002:000003e0       __imp__ShowCursor@4        004e03e0     user32:USER32.dll
 0002:000003e4       __imp__LoadCursorFromFileA@4 004e03e4     user32:USER32.dll
 0002:000003e8       __imp__LoadCursorA@8       004e03e8     user32:USER32.dll
 0002:000003ec       __imp__SetCursor@4         004e03ec     user32:USER32.dll
 0002:000003f0       __imp__SetCaretPos@8       004e03f0     user32:USER32.dll
 0002:000003f4       __imp__CloseClipboard@0    004e03f4     user32:USER32.dll
 0002:000003f8       __imp__SetClipboardData@8  004e03f8     user32:USER32.dll
 0002:000003fc       __imp__MessageBoxA@16      004e03fc     user32:USER32.dll
 0002:00000400       __imp__ShowWindow@8        004e0400     user32:USER32.dll
 0002:00000404       __imp__UpdateWindow@4      004e0404     user32:USER32.dll
 0002:00000408       __imp__LoadImageA@24       004e0408     user32:USER32.dll
 0002:0000040c       __imp__DefWindowProcA@16   004e040c     user32:USER32.dll
 0002:00000410       __imp__SendMessageA@16     004e0410     user32:USER32.dll
 0002:00000414       __imp__SetWindowTextA@8    004e0414     user32:USER32.dll
 0002:00000418       __imp__EmptyClipboard@0    004e0418     user32:USER32.dll
 0002:0000041c       __imp__OpenClipboard@4     004e041c     user32:USER32.dll
 0002:00000420       __imp__GetClipboardData@4  004e0420     user32:USER32.dll
 0002:00000424       __imp__GetKeyState@4       004e0424     user32:USER32.dll
 0002:00000428       __imp__ClientToScreen@8    004e0428     user32:USER32.dll
 0002:0000042c       __imp__SetCursorPos@8      004e042c     user32:USER32.dll
 0002:00000430       \177USER32_NULL_THUNK_DATA 004e0430     user32:USER32.dll
 0002:0000045c       ??_7KInlinePicSink@@6B@    004e045c     TextPic.obj
 0002:0000046c       ??_7IInlinePicEngineSink@@6B@ 004e046c     TextPic.obj
 0002:0000047c       ??_7KWndButton@@6B@        004e047c     WndButton.obj
 0002:000004bc       ??_7KWndImageTextButton@@6B@ 004e04bc     WndButton.obj
 0002:000004fc       ??_7KWndChessPanel@@6B@    004e04fc     WndChessPanel.obj
 0002:00000530       ??_7KWndEdit@@6B@          004e0530     WndEdit.obj
 0002:00000564       ??_7KWndEdit06@@6B@        004e0564     WndEdit.obj
 0002:00000598       ??_7KWndEdit32@@6B@        004e0598     WndEdit.obj
 0002:000005cc       ??_7KWndEdit80@@6B@        004e05cc     WndEdit.obj
 0002:00000600       ??_7KWndEdit128@@6B@       004e0600     WndEdit.obj
 0002:00000634       ??_7KWndEdit512@@6B@       004e0634     WndEdit.obj
 0002:00000668       ??_7KWndImage@@6B@         004e0668     WndImage.obj
 0002:0000069c       ??_7KWndImage2@@6B@        004e069c     WndImage2.obj
 0002:000006d0       ??_7KWndImagePart@@6B@     004e06d0     WndImagePart.obj
 0002:00000704       ??_7KWndLabeledButton@@6B@ 004e0704     WndLabeledButton.obj
 0002:00000744       ??_7KWndList@@6B@          004e0744     WndList.obj
 0002:00000778       ??_7KWndList2@@6B@         004e0778     WndList2.obj
 0002:000007ac       ??_7KWndListFilterItem@@6B@ 004e07ac     WndListFilterItem.obj
 0002:000007e0       ??_7KWndListPoint@@6B@     004e07e0     WndListPoint.obj
 0002:00000814       ??_7KWndMessageListBox@@6B@ 004e0814     WndMessageListBox.obj
 0002:00000848       ??_7KScrollMessageListBox@@6B@ 004e0848     WndMessageListBox.obj
 0002:0000087c       ??_7KWndMovingImage@@6B@   004e087c     WndMovingImage.obj
 0002:000008b0       ??_7KWndObjectBox@@6B@     004e08b0     WndObjContainer.obj
 0002:000008e4       ??_7KWndObjectMatrix@@6B@  004e08e4     WndObjContainer.obj
 0002:00000918       ??_7KWndPageSet@@6B@       004e0918     WndPage.obj
 0002:00000950       ??_7KWndPureTextBtn@@6B@   004e0950     WndPureTextBtn.obj
 0002:00000984       ??_7KWndScrollBar@@6B@     004e0984     WndScrollBar.obj
 0002:000009b8       ??_7KWndShowAnimate@@6B@   004e09b8     WndShowAnimate.obj
 0002:000009f0       ??_7KWndText@@6B@          004e09f0     WndText.obj
 0002:00000a24       ??_7KWndText32@@6B@        004e0a24     WndText.obj
 0002:00000a58       ??_7KWndText80@@6B@        004e0a58     WndText.obj
 0002:00000a8c       ??_7KWndText128@@6B@       004e0a8c     WndText.obj
 0002:00000ac0       ??_7KWndText256@@6B@       004e0ac0     WndText.obj
 0002:00000af4       ??_7KWndText512@@6B@       004e0af4     WndText.obj
 0002:00000b28       ??_7KWndToolBar@@6B@       004e0b28     WndToolBar.obj
 0002:00000b5c       ??_7KWndValueImage@@6B@    004e0b5c     WndValueImage.obj
 0002:00000b90       ??_7KWndWindow@@6B@        004e0b90     WndWindow.obj
 0002:00000bc4       ??_7KUiConnectInfo@@6B@    004e0bc4     UiConnectInfo.obj
 0002:00000bf8       ??_7KUiLogin@@6B@          004e0bf8     UiLogin.obj
 0002:00000c30       ??_7KUiLoginBackGround@@6B@ 004e0c30     UiLoginBg.obj
 0002:00000c64       ??_7KUiSelServer@@6B@      004e0c64     UiSelServer.obj
 0002:00000c9c       ??_7KUiChooseFace@@6B@     004e0c9c     UiChooseFace.obj
 0002:00000cd4       ??_7KUiFaceSelector@@6B@   004e0cd4     UiFaceSelector.obj
 0002:00000d08       ??_7GameWorld_DateTime@@6B@ 004e0d08     UiPlayerBar.obj
 0002:00000d48       ??_7KUiPlayerBar@@6B@      004e0d48     UiPlayerBar.obj
 0002:00000d7c       ??_7KImmediaItem@@6B@      004e0d7c     UiPlayerBar.obj
 0002:00000db0       ??_7KUiStatus@@6B@         004e0db0     UiStatus.obj
 0002:00000de8       ??_7KUiOptions@@6B@        004e0de8     UiOptions.obj
 0002:00000e1c       ??_7KUiInit@@6B@           004e0e1c     UiInit.obj
 0002:00000e54       ??_7KUiTeamBuild@@6B@      004e0e54     UiTeamBuild.obj
 0002:00000e88       ??_7KUiChaPW@@6B@          004e0e88     UiChaPW.obj
 0002:00000ec0       ??_7KUiCreatPW@@6B@        004e0ec0     UiCreatPW.obj
 0002:00000ef8       ??_7KUiExpandItem@@6B@     004e0ef8     UiExpandItem.obj
 0002:00000f30       ??_7KUiGetMoney@@6B@       004e0f30     UiGetMoney.obj
 0002:00000f64       ??_7KUiGiveBox@@6B@        004e0f64     UiGiveBox.obj
 0002:00000f98       ??_7KUiItem@@6B@           004e0f98     UiItem.obj
 0002:00000fd0       ??_7KUiKeyBoard@@6B@       004e0fd0     UiKeyBoard.obj
 0002:00001008       ??_7KUiLoginPW@@6B@        004e1008     UiLoginPW.obj
 0002:00001040       ??_7KUiReWard@@6B@         004e1040     UiReWard.obj
 0002:00001078       ??_7KUiFightSkillSubPage@@6B@ 004e1078     UiSkills.obj
 0002:000010b0       ??_7KWndPage@@6B@          004e10b0     UiSkills.obj
 0002:000010e8       ??_7KUiLiveSkill@@6B@      004e10e8     UiSkills.obj
 0002:00001120       ??_7KUiSkills@@6B@         004e1120     UiSkills.obj
 0002:00001158       ??_7KUiFightSkill@@6B@     004e1158     UiSkills.obj
 0002:00001190       ??_7KUiFightSkillSub@@6B@  004e1190     UiSkills.obj
 0002:000011c8       ??_7KUiSkillTree@@6B@      004e11c8     UiSkillTree.obj
 0002:000011fc       ??_7KUiStoreBox@@6B@       004e11fc     UiStoreBox.obj
 0002:00001234       ??_7KUiTimeBox@@6B@        004e1234     UiTimeBox.obj
 0002:00001268       ??_7KUiESCDlg@@6B@         004e1268     UiESCDlg.obj
 0002:000012a0       ??_7KUiGetNumber@@6B@      004e12a0     UiGetNumber.obj
 0002:000012d4       ??_7KUiGetString@@6B@      004e12d4     UiGetString.obj
 0002:00001308       ??_7KUiMsgSel@@6B@         004e1308     UiMsgSel.obj
 0002:00001340       ??_7KUiMsgSel2@@6B@        004e1340     UiMsgSel2.obj
 0002:00001378       ??_7KUiParadeItem@@6B@     004e1378     UiParadeItem.obj
 0002:000013b0       ??_7KUiParadeItemAttrib@@6B@ 004e13b0     UiParadeItem.obj
 0002:000013e8       ??_7KUiParadeItemEquip@@6B@ 004e13e8     UiParadeItem.obj
 0002:00001420       ??_7KUiSelPlayerNearby@@6B@ 004e1420     UiSelPlayerNearby.obj
 0002:00001458       ??_7KUiNewPlayer@@6B@      004e1458     UiNewPlayer.obj
 0002:00001490       ??_7KUiSelNativePlace@@6B@ 004e1490     UiSelNativePlace.obj
 0002:000014c8       ??_7KUiSelPlayer@@6B@      004e14c8     UiSelPlayer.obj
 0002:00001504       ??_7ServerNotify@@6B@      004e1504     UiChatCentre.obj
 0002:0000152c       ??_7AddinNotify@@6B@       004e152c     UiChatCentre.obj
 0002:00001554       ??_7FriendNotify@@6B@      004e1554     UiChatCentre.obj
 0002:0000157c       ??_7KUiChatCentre@@6B@     004e157c     UiChatCentre.obj
 0002:000015b4       ??_7KUiChatStatus@@6B@     004e15b4     UiChatStatus.obj
 0002:000015e8       ??_7KUiInformation@@6B@    004e15e8     UiInformation.obj
 0002:00001620       ??_7KUiInformation2@@6B@   004e1620     UiInformation2.obj
 0002:00001658       ??_7KUiInformation3@@6B@   004e1658     UiInformation3.obj
 0002:00001690       ??_7KUiTeamManage@@6B@     004e1690     UiTeamManage.obj
 0002:000016c8       ??_7KUiTeamStatus@@6B@     004e16c8     UiTeamStatus.obj
 0002:00001700       ??_7KUiChatItemInfo@@6B@   004e1700     UiChatItemInfo.obj
 0002:00001734       ??_7KUiHeaderControlBar@@6B@ 004e1734     UiHeaderControlBar.obj
 0002:00001768       ??_7KUiMsgCentrePad@@6B@   004e1768     UiMsgCentrePad.obj
 0002:0000179c       ??_7KSysMsgCentrePad@@6B@  004e179c     UiMsgCentrePad.obj
 0002:000017d0       ??_7KUiMakeAdv@@6B@        004e17d0     UiMakeAdv.obj
 0002:00001804       ??_7KUiMarket@@6B@         004e1804     UiMarket.obj
 0002:0000183c       ??_7KUiMarketGoods@@6B@    004e183c     UiMarket.obj
 0002:00001874       ??_7KUiMarkPrice@@6B@      004e1874     UiMarkPrice.obj
 0002:000018a8       ??_7KUiPlayerShop@@6B@     004e18a8     UiPlayerShop.obj
 0002:000018e0       ??_7KUiShop@@6B@           004e18e0     UiShop.obj
 0002:00001918       ??_7KUiShoppingCart@@6B@   004e1918     UiShoppingCart.obj
 0002:00001950       ??_7KUiShoppingCartGoods@@6B@ 004e1950     UiShoppingCart.obj
 0002:00001988       ??_7KUiTrade@@6B@          004e1988     UiTrade.obj
 0002:000019c0       ??_7KUiTradeConfirm@@6B@   004e19c0     UiTradeConfirmWnd.obj
 0002:000019f4       ??_7KUiGameSpace@@6B@      004e19f4     UiGame.obj
 0002:00001a28       ??_7KUiNotification@@6B@   004e1a28     UiNotification.obj
 0002:00001a60       ??_7KUiSysMsgCentre@@6B@   004e1a60     UiSysMsgCentre.obj
 0002:00001a94       ??_7KUiCaveMap@@6B@        004e1a94     UiCaveMap.obj
 0002:00001ac8       ??_7KUiFindPos@@6B@        004e1ac8     UiFindPos.obj
 0002:00001afc       ??_7KUiMiniMap@@6B@        004e1afc     UiMiniMap.obj
 0002:00001b30       ??_7KWndShadow@@6B@        004e1b30     UiMiniMap.obj
 0002:00001b64       ??_7KUiWorldMap@@6B@       004e1b64     UiWorldMap.obj
 0002:00001b98       ??_7KUiNewPlayerStartMsg@@6B@ 004e1b98     UiNewPlayerStartMsg.obj
 0002:00001bd0       ??_7KUiPlayVideo@@6B@      004e1bd0     UiPlayVideo.obj
 0002:00001c04       ??_7KUiHelper@@6B@         004e1c04     UiHelper.obj
 0002:00001c38       ??_7KUiHelper2@@6B@        004e1c38     UiHelper2.obj
 0002:00001c70       ??_7KUiHelperMission@@6B@  004e1c70     UiHelperMission.obj
 0002:00001ca8       ??_7KReconnectWnd@@6B@     004e1ca8     UiReconnect.obj
 0002:00001cdc       ??_7KReviveWnd@@6B@        004e1cdc     UiRevive.obj
 0002:00001d10       ??_7KTaskEdit@@6B@         004e1d10     UiTaskNote.obj
 0002:00001d44       ??_7KUiTaskNote@@6B@       004e1d44     UiTaskNote.obj
 0002:00001d7c       ??_7KUiTaskNote_System@@6B@ 004e1d7c     UiTaskNote.obj
 0002:00001db4       ??_7KUiTaskNote_Personal@@6B@ 004e1db4     UiTaskNote.obj
 0002:00001dec       ??_7KUiNewsMessage@@6B@    004e1dec     UiNewsMessage.obj
 0002:00001e24       ??_7KUiNewsMessageEx@@6B@  004e1e24     UiNewsMessageEx.obj
 0002:00001e58       ??_7KUiStrengthRank@@6B@   004e1e58     UiStrengthRank.obj
 0002:00001e90       ??_7?$KLinkStruct@UKRankIndexNode@@@@6B@ 004e1e90     UiStrengthRank.obj
 0002:00001e94       ??_7?$KLinkStruct@UKRankNode@@@@6B@ 004e1e94     UiStrengthRank.obj
 0002:00001e98       ??_7KUiPopupPasswordQuery@@6B@ 004e1e98     UiPopupPasswordQuery.obj
 0002:00001ecc       ??_7KUiTongAssignBox@@6B@  004e1ecc     UiTongAssignBox.obj
 0002:00001f00       ??_7KUiTongChangeTitle@@6B@ 004e1f00     UiTongChangeTitle.obj
 0002:00001f34       ??_7KUiTongCreateSheet@@6B@ 004e1f34     UiTongCreateSheet.obj
 0002:00001f68       ??_7KUiTongInformation@@6B@ 004e1f68     UiTongInformation.obj
 0002:00001fa0       ??_7KUiTongManager@@6B@    004e1fa0     UiTongManager.obj
 0002:00001fd8       ??_7KUiTongInfo@@6B@       004e1fd8     UiTongManager.obj
 0002:00002010       ??_7KWndRichLabeledButton@@6B@ 004e2010     UiTongManager.obj
 0002:00002050       ??_7KUiTongFunUseSubPage@@6B@ 004e2050     UiTongManager.obj
 0002:00002088       ??_7KUiTongFunUseSub@@6B@  004e2088     UiTongManager.obj
 0002:000020c0       ??_7KUiTongFunUse@@6B@     004e20c0     UiTongManager.obj
 0002:000020f8       ??_7KUiTongRightManage@@6B@ 004e20f8     UiTongManager.obj
 0002:00002130       ??_7KUiTongRecord@@6B@     004e2130     UiTongManager.obj
 0002:00002168       ??_7?$KLinkStruct@UKPilgarlicItem@@@@6B@ 004e2168     UiTongManager.obj
 0002:0000216c       ??_7KUiTongSetTax@@6B@     004e216c     UiTongSetTax .obj
 0002:000021a0       ??_7KUiAutoPlay@@6B@       004e21a0     UiAutoPlay.obj
 0002:000021d8       ??_7KUiRecovery@@6B@       004e21d8     UiAutoPlay.obj
 0002:00002210       ??_7KUiPick@@6B@           004e2210     UiAutoPlay.obj
 0002:00002248       ??_7KUiFight@@6B@          004e2248     UiAutoPlay.obj
 0002:00002280       ??_7KUiOther@@6B@          004e2280     UiAutoPlay.obj
 0002:000022b8       ??_7KUiMovePlayer@@6B@     004e22b8     UiAutoPlay.obj
 0002:000022f0       ??_7KUiSupportPlayer@@6B@  004e22f0     UiAutoPlay.obj
 0002:00002328       ??_7UiMiniBuff@@6B@        004e2328     UiMiniBuff.obj
